---
triple:          'x86_64-apple-darwin'
binary-path:     '/Users/socki/dev/zayn/build/main_mac'
relocations:
  - { offsetInCU: 0x52, offset: 0x52, size: 0x8, addend: 0x0, symName: _defaultLCGState, symObjAddr: 0x40C3B0, symBinAddr: 0x1000AC1C0, symSize: 0x0 }
  - { offsetInCU: 0xAD, offset: 0xAD, size: 0x8, addend: 0x0, symName: _EntitySizeTable, symObjAddr: 0x9B290, symBinAddr: 0x1000AC000, symSize: 0x0 }
  - { offsetInCU: 0xCE, offset: 0xCE, size: 0x8, addend: 0x0, symName: _entityTypeCounts, symObjAddr: 0x9B2A0, symBinAddr: 0x1000AC010, symSize: 0x0 }
  - { offsetInCU: 0xEF, offset: 0xEF, size: 0x8, addend: 0x0, symName: _Casette, symObjAddr: 0x40C3B8, symBinAddr: 0x1000AC1C8, symSize: 0x0 }
  - { offsetInCU: 0x50C, offset: 0x50C, size: 0x8, addend: 0x0, symName: _Zayn, symObjAddr: 0x40C3C0, symBinAddr: 0x1000AC1D0, symSize: 0x0 }
  - { offsetInCU: 0x1AB86, offset: 0x1AB86, size: 0x8, addend: 0x0, symName: __ZNSt3__16chronomiB8ue170006IxNS_5ratioILl1ELl1000000000EEExS3_EENS_11common_typeIJNS0_8durationIT_T0_EENS5_IT1_T2_EEEE4typeERKS8_RKSB_, symObjAddr: 0x89CC0, symBinAddr: 0x10008A600, symSize: 0x70 }
  - { offsetInCU: 0x1AC4D, offset: 0x1AC4D, size: 0x8, addend: 0x0, symName: __ZNSt3__16chronomiB8ue170006INS0_12steady_clockENS0_8durationIxNS_5ratioILl1ELl1000000000EEEEES6_EENS_11common_typeIJT0_T1_EE4typeERKNS0_10time_pointIT_S8_EERKNSC_ISD_S9_EE, symObjAddr: 0x1DA60, symBinAddr: 0x10001E3A0, symSize: 0x50 }
  - { offsetInCU: 0x1ACA5, offset: 0x1ACA5, size: 0x8, addend: 0x0, symName: __ZNSt3__16chrono13duration_castB8ue170006INS0_8durationIfNS_5ratioILl1ELl1EEEEExNS3_ILl1ELl1000000000EEEEENS_9enable_ifIXsr13__is_durationIT_EE5valueES8_E4typeERKNS2_IT0_T1_EE, symObjAddr: 0x89E10, symBinAddr: 0x10008A750, symSize: 0x30 }
  - { offsetInCU: 0x1AD98, offset: 0x1AD98, size: 0x8, addend: 0x0, symName: __ZNSt3__119piecewise_constructE, symObjAddr: 0x9C620, symBinAddr: 0x10009E710, symSize: 0x0 }
  - { offsetInCU: 0x2A222, offset: 0x2A222, size: 0x8, addend: 0x0, symName: __ZNSt3__17advanceB8ue170006INS_21__tree_const_iteratorINS_12__value_typeINS_12basic_stringIcNS_11char_traitsIcEENS_9allocatorIcEEEES8_EEPNS_11__tree_nodeIS9_PvEElEEllvEEvRT_T0_, symObjAddr: 0x278D0, symBinAddr: 0x100028210, symSize: 0x30 }
  - { offsetInCU: 0x2A607, offset: 0x2A607, size: 0x8, addend: 0x0, symName: __ZNSt3__17advanceB8ue170006IPN7tinyobj10material_tEllvEEvRT_T0_, symObjAddr: 0x299C0, symBinAddr: 0x10002A300, symSize: 0x30 }
  - { offsetInCU: 0x2A887, offset: 0x2A887, size: 0x8, addend: 0x0, symName: __ZNSt3__17advanceB8ue170006INS_16reverse_iteratorIPN7tinyobj10material_tEEEllvEEvRT_T0_, symObjAddr: 0x29DE0, symBinAddr: 0x10002A720, symSize: 0x30 }
  - { offsetInCU: 0x2C3F7, offset: 0x2C3F7, size: 0x8, addend: 0x0, symName: __ZNSt3__17advanceB8ue170006IPNS_12basic_stringIcNS_11char_traitsIcEENS_9allocatorIcEEEEllvEEvRT_T0_, symObjAddr: 0x2B630, symBinAddr: 0x10002BF70, symSize: 0x30 }
  - { offsetInCU: 0x2C677, offset: 0x2C677, size: 0x8, addend: 0x0, symName: __ZNSt3__17advanceB8ue170006INS_16reverse_iteratorIPNS_12basic_stringIcNS_11char_traitsIcEENS_9allocatorIcEEEEEEllvEEvRT_T0_, symObjAddr: 0x2BA40, symBinAddr: 0x10002C380, symSize: 0x30 }
  - { offsetInCU: 0x37096, offset: 0x37096, size: 0x8, addend: 0x0, symName: __ZNSt3__17advanceB8ue170006IPN7tinyobj13skin_weight_tEllvEEvRT_T0_, symObjAddr: 0x32150, symBinAddr: 0x100032A90, symSize: 0x30 }
  - { offsetInCU: 0x37316, offset: 0x37316, size: 0x8, addend: 0x0, symName: __ZNSt3__17advanceB8ue170006INS_16reverse_iteratorIPN7tinyobj13skin_weight_tEEEllvEEvRT_T0_, symObjAddr: 0x32560, symBinAddr: 0x100032EA0, symSize: 0x30 }
  - { offsetInCU: 0x3A5A1, offset: 0x3A5A1, size: 0x8, addend: 0x0, symName: __ZNSt3__17advanceB8ue170006IPN7tinyobj8__line_tEllvEEvRT_T0_, symObjAddr: 0x36220, symBinAddr: 0x100036B60, symSize: 0x30 }
  - { offsetInCU: 0x3A821, offset: 0x3A821, size: 0x8, addend: 0x0, symName: __ZNSt3__17advanceB8ue170006INS_16reverse_iteratorIPN7tinyobj8__line_tEEEllvEEvRT_T0_, symObjAddr: 0x36630, symBinAddr: 0x100036F70, symSize: 0x30 }
  - { offsetInCU: 0x3C189, offset: 0x3C189, size: 0x8, addend: 0x0, symName: __ZNSt3__17advanceB8ue170006IPN7tinyobj10__points_tEllvEEvRT_T0_, symObjAddr: 0x37B70, symBinAddr: 0x1000384B0, symSize: 0x30 }
  - { offsetInCU: 0x3C409, offset: 0x3C409, size: 0x8, addend: 0x0, symName: __ZNSt3__17advanceB8ue170006INS_16reverse_iteratorIPN7tinyobj10__points_tEEEllvEEvRT_T0_, symObjAddr: 0x37F80, symBinAddr: 0x1000388C0, symSize: 0x30 }
  - { offsetInCU: 0x3DD71, offset: 0x3DD71, size: 0x8, addend: 0x0, symName: __ZNSt3__17advanceB8ue170006IPN7tinyobj6face_tEllvEEvRT_T0_, symObjAddr: 0x39480, symBinAddr: 0x100039DC0, symSize: 0x30 }
  - { offsetInCU: 0x3DFF1, offset: 0x3DFF1, size: 0x8, addend: 0x0, symName: __ZNSt3__17advanceB8ue170006INS_16reverse_iteratorIPN7tinyobj6face_tEEEllvEEvRT_T0_, symObjAddr: 0x39890, symBinAddr: 0x10003A1D0, symSize: 0x30 }
  - { offsetInCU: 0x3E494, offset: 0x3E494, size: 0x8, addend: 0x0, symName: __ZNSt3__17advanceB8ue170006IPN7tinyobj5tag_tEllvEEvRT_T0_, symObjAddr: 0x3D580, symBinAddr: 0x10003DEC0, symSize: 0x30 }
  - { offsetInCU: 0x3EC06, offset: 0x3EC06, size: 0x8, addend: 0x0, symName: __ZNSt3__17advanceB8ue170006IPillvEEvRT_T0_, symObjAddr: 0x408D0, symBinAddr: 0x100041210, symSize: 0x30 }
  - { offsetInCU: 0x3EC71, offset: 0x3EC71, size: 0x8, addend: 0x0, symName: __ZNSt3__17advanceB8ue170006IPfllvEEvRT_T0_, symObjAddr: 0x40D60, symBinAddr: 0x1000416A0, symSize: 0x30 }
  - { offsetInCU: 0x3F275, offset: 0x3F275, size: 0x8, addend: 0x0, symName: __ZNSt3__17advanceB8ue170006IPN7tinyobj7shape_tEllvEEvRT_T0_, symObjAddr: 0x458B0, symBinAddr: 0x1000461F0, symSize: 0x30 }
  - { offsetInCU: 0x3F4F5, offset: 0x3F4F5, size: 0x8, addend: 0x0, symName: __ZNSt3__17advanceB8ue170006INS_16reverse_iteratorIPN7tinyobj7shape_tEEEllvEEvRT_T0_, symObjAddr: 0x45C70, symBinAddr: 0x1000465B0, symSize: 0x30 }
  - { offsetInCU: 0x3F8B7, offset: 0x3F8B7, size: 0x8, addend: 0x0, symName: __ZNSt3__17advanceB8ue170006INS_16reverse_iteratorIPN7tinyobj5tag_tEEEllvEEvRT_T0_, symObjAddr: 0x48500, symBinAddr: 0x100048E40, symSize: 0x30 }
  - { offsetInCU: 0x40CA7, offset: 0x40CA7, size: 0x8, addend: 0x0, symName: __ZNSt3__17advanceB8ue170006IPK6VertexllvEEvRT_T0_, symObjAddr: 0x663C0, symBinAddr: 0x100066D00, symSize: 0x30 }
  - { offsetInCU: 0x40D32, offset: 0x40D32, size: 0x8, addend: 0x0, symName: __ZNSt3__17advanceB8ue170006IPKjllvEEvRT_T0_, symObjAddr: 0x67550, symBinAddr: 0x100067E90, symSize: 0x30 }
  - { offsetInCU: 0x4F065, offset: 0x4F065, size: 0x8, addend: 0x0, symName: __ZNSt3__16copy_nB8ue170006IPKcmPcEENS_9enable_ifIXsr37__has_random_access_iterator_categoryIT_EE5valueET1_E4typeES5_T0_S6_, symObjAddr: 0x878F0, symBinAddr: 0x100088230, symSize: 0x40 }
  - { offsetInCU: 0x50DCB, offset: 0x50DCB, size: 0x8, addend: 0x0, symName: __ZNSt3__124__put_character_sequenceB8ue170006IcNS_11char_traitsIcEEEERNS_13basic_ostreamIT_T0_EES7_PKS4_m, symObjAddr: 0x8D170, symBinAddr: 0x10008DAB0, symSize: 0x1F0 }
  - { offsetInCU: 0x53F36, offset: 0x53F36, size: 0x8, addend: 0x0, symName: __ZNSt3__17advanceB8ue170006INS_21__tree_const_iteratorINS_12basic_stringIcNS_11char_traitsIcEENS_9allocatorIcEEEEPNS_11__tree_nodeIS7_PvEElEEllvEEvRT_T0_, symObjAddr: 0x90AC0, symBinAddr: 0x100091400, symSize: 0x30 }
  - { offsetInCU: 0x5561D, offset: 0x5561D, size: 0x8, addend: 0x0, symName: __ZNSt3__17advanceB8ue170006INS_21__tree_const_iteratorIjPNS_11__tree_nodeIjPvEElEEllvEEvRT_T0_, symObjAddr: 0x92610, symBinAddr: 0x100092F50, symSize: 0x30 }
  - { offsetInCU: 0x59FBA, offset: 0x59FBA, size: 0x8, addend: 0x0, symName: __ZNSt3__1lsB8ue170006INS_11char_traitsIcEEEERNS_13basic_ostreamIcT_EES6_PKc, symObjAddr: 0x36B0, symBinAddr: 0x100003FF0, symSize: 0x40 }
  - { offsetInCU: 0x5A000, offset: 0x5A000, size: 0x8, addend: 0x0, symName: __ZNSt3__1lsB8ue170006IcNS_11char_traitsIcEENS_9allocatorIcEEEERNS_13basic_ostreamIT_T0_EES9_RKNS_12basic_stringIS6_S7_T1_EE, symObjAddr: 0x36F0, symBinAddr: 0x100004030, symSize: 0x50 }
  - { offsetInCU: 0x5A2E6, offset: 0x5A2E6, size: 0x8, addend: 0x0, symName: __ZNSt3__17getlineB8ue170006IcNS_11char_traitsIcEENS_9allocatorIcEEEERNS_13basic_istreamIT_T0_EES9_RNS_12basic_stringIS6_S7_T1_EES6_, symObjAddr: 0x4160, symBinAddr: 0x100004AA0, symSize: 0x220 }
  - { offsetInCU: 0x5B92C, offset: 0x5B92C, size: 0x8, addend: 0x0, symName: __ZNSt3__1plB8ue170006IcNS_11char_traitsIcEENS_9allocatorIcEEEENS_12basic_stringIT_T0_T1_EEOS9_PKS6_, symObjAddr: 0x8600, symBinAddr: 0x100008F40, symSize: 0x50 }
  - { offsetInCU: 0x5B984, offset: 0x5B984, size: 0x8, addend: 0x0, symName: __ZNSt3__1plB8ue170006IcNS_11char_traitsIcEENS_9allocatorIcEEEENS_12basic_stringIT_T0_T1_EEPKS6_OS9_, symObjAddr: 0x8650, symBinAddr: 0x100008F90, symSize: 0x50 }
  - { offsetInCU: 0x5B9DC, offset: 0x5B9DC, size: 0x8, addend: 0x0, symName: __ZNSt3__1neB8ue170006ERKNS_20__map_const_iteratorINS_21__tree_const_iteratorINS_12__value_typeINS_12basic_stringIcNS_11char_traitsIcEENS_9allocatorIcEEEEiEEPNS_11__tree_nodeIS9_PvEElEEEESH_, symObjAddr: 0x8AD0, symBinAddr: 0x100009410, symSize: 0x30 }
  - { offsetInCU: 0x5BA19, offset: 0x5BA19, size: 0x8, addend: 0x0, symName: __ZNSt3__14endlB8ue170006IcNS_11char_traitsIcEEEERNS_13basic_ostreamIT_T0_EES7_, symObjAddr: 0xE2A0, symBinAddr: 0x10000EBE0, symSize: 0x50 }
  - { offsetInCU: 0x5BA59, offset: 0x5BA59, size: 0x8, addend: 0x0, symName: __ZNSt3__1neB8ue170006IPKPKcEEbRKNS_11__wrap_iterIT_EES9_, symObjAddr: 0x15850, symBinAddr: 0x100016190, symSize: 0x30 }
  - { offsetInCU: 0x5BA9C, offset: 0x5BA9C, size: 0x8, addend: 0x0, symName: __ZNSt3__1neB8ue170006IP21VkExtensionPropertiesEEbRKNS_11__wrap_iterIT_EES7_, symObjAddr: 0x15C00, symBinAddr: 0x100016540, symSize: 0x30 }
  - { offsetInCU: 0x5BADF, offset: 0x5BADF, size: 0x8, addend: 0x0, symName: __ZNSt3__1neB8ue170006IPK8VkFormatEEbRKNS_11__wrap_iterIT_EES8_, symObjAddr: 0x160F0, symBinAddr: 0x100016A30, symSize: 0x30 }
  - { offsetInCU: 0x5BF63, offset: 0x5BF63, size: 0x8, addend: 0x0, symName: __ZNSt3__1neB8ue170006IP23VkQueueFamilyPropertiesEEbRKNS_11__wrap_iterIT_EES7_, symObjAddr: 0x16530, symBinAddr: 0x100016E70, symSize: 0x30 }
  - { offsetInCU: 0x5BFA6, offset: 0x5BFA6, size: 0x8, addend: 0x0, symName: __ZNSt3__1neB8ue170006IPP18VkPhysicalDevice_TEEbRKNS_11__wrap_iterIT_EES8_, symObjAddr: 0x171B0, symBinAddr: 0x100017AF0, symSize: 0x30 }
  - { offsetInCU: 0x5C6CA, offset: 0x5C6CA, size: 0x8, addend: 0x0, symName: __ZNSt3__1neB8ue170006ERKNS_21__tree_const_iteratorIjPNS_11__tree_nodeIjPvEElEES7_, symObjAddr: 0x17A80, symBinAddr: 0x1000183C0, symSize: 0x30 }
  - { offsetInCU: 0x5C707, offset: 0x5C707, size: 0x8, addend: 0x0, symName: __ZNSt3__1neB8ue170006IPK18VkSurfaceFormatKHREEbRKNS_11__wrap_iterIT_EES8_, symObjAddr: 0x17DB0, symBinAddr: 0x1000186F0, symSize: 0x30 }
  - { offsetInCU: 0x5C74A, offset: 0x5C74A, size: 0x8, addend: 0x0, symName: __ZNSt3__1neB8ue170006IPK16VkPresentModeKHREEbRKNS_11__wrap_iterIT_EES8_, symObjAddr: 0x17F80, symBinAddr: 0x1000188C0, symSize: 0x30 }
  - { offsetInCU: 0x5C978, offset: 0x5C978, size: 0x8, addend: 0x0, symName: __ZNSt3__15clampB8ue170006IjEERKT_S3_S3_S3_, symObjAddr: 0x180B0, symBinAddr: 0x1000189F0, symSize: 0x30 }
  - { offsetInCU: 0x5C9C9, offset: 0x5C9C9, size: 0x8, addend: 0x0, symName: __ZNSt3__1neB8ue170006IjjEENS_9enable_ifIX16is_convertible_vIDTneclsr3stdE7declvalIRKT_EEclsr3stdE7declvalIRKT0_EEEbEEbE4typeERKNS_8optionalIS2_EERKNSB_IS5_EE, symObjAddr: 0x18560, symBinAddr: 0x100018EA0, symSize: 0xA0 }
  - { offsetInCU: 0x5CFB7, offset: 0x5CFB7, size: 0x8, addend: 0x0, symName: __ZNSt3__13maxB8ue170006IiEERKT_S3_S3_, symObjAddr: 0x1B590, symBinAddr: 0x10001BED0, symSize: 0x30 }
  - { offsetInCU: 0x5CFFA, offset: 0x5CFFA, size: 0x8, addend: 0x0, symName: __ZNSt3__1plB8ue170006IcNS_11char_traitsIcEENS_9allocatorIcEEEENS_12basic_stringIT_T0_T1_EERKS9_SB_, symObjAddr: 0x1BE40, symBinAddr: 0x10001C780, symSize: 0x110 }
  - { offsetInCU: 0x5DA03, offset: 0x5DA03, size: 0x8, addend: 0x0, symName: __ZNSt3__1neB8ue170006IPN7tinyobj7shape_tEEEbRKNS_11__wrap_iterIT_EES8_, symObjAddr: 0x1BFD0, symBinAddr: 0x10001C910, symSize: 0x30 }
  - { offsetInCU: 0x5DA46, offset: 0x5DA46, size: 0x8, addend: 0x0, symName: __ZNSt3__1neB8ue170006IPKN7tinyobj7index_tEEEbRKNS_11__wrap_iterIT_EES9_, symObjAddr: 0x1C080, symBinAddr: 0x10001C9C0, symSize: 0x30 }
  - { offsetInCU: 0x5E5EE, offset: 0x5E5EE, size: 0x8, addend: 0x0, symName: __ZNSt3__1neB8ue170006IPP15VkFramebuffer_TEEbRKNS_11__wrap_iterIT_EES8_, symObjAddr: 0x1FC30, symBinAddr: 0x100020570, symSize: 0x30 }
  - { offsetInCU: 0x5E631, offset: 0x5E631, size: 0x8, addend: 0x0, symName: __ZNSt3__1neB8ue170006IPP13VkImageView_TEEbRKNS_11__wrap_iterIT_EES8_, symObjAddr: 0x1FD00, symBinAddr: 0x100020640, symSize: 0x30 }
  - { offsetInCU: 0x5E674, offset: 0x5E674, size: 0x8, addend: 0x0, symName: __ZNSt3__18distanceB8ue170006IPKcEENS_15iterator_traitsIT_E15difference_typeES4_S4_, symObjAddr: 0x23AE0, symBinAddr: 0x100024420, symSize: 0x30 }
  - { offsetInCU: 0x5E6B7, offset: 0x5E6B7, size: 0x8, addend: 0x0, symName: __ZNSt3__110__distanceB8ue170006IPKcEENS_15iterator_traitsIT_E15difference_typeES4_S4_NS_26random_access_iterator_tagE, symObjAddr: 0x23C50, symBinAddr: 0x100024590, symSize: 0x20 }
  - { offsetInCU: 0x5E705, offset: 0x5E705, size: 0x8, addend: 0x0, symName: __ZNSt3__119__allocate_at_leastB8ue170006INS_9allocatorIcEEEENS_19__allocation_resultINS_16allocator_traitsIT_E7pointerEEERS5_m, symObjAddr: 0x23DD0, symBinAddr: 0x100024710, symSize: 0x40 }
  - { offsetInCU: 0x5E749, offset: 0x5E749, size: 0x8, addend: 0x0, symName: __ZNSt3__120__throw_length_errorB8ue170006EPKc, symObjAddr: 0x24030, symBinAddr: 0x100024970, symSize: 0x70 }
  - { offsetInCU: 0x5E773, offset: 0x5E773, size: 0x8, addend: 0x0, symName: __ZNSt3__117__libcpp_allocateB8ue170006Emm, symObjAddr: 0x241B0, symBinAddr: 0x100024AF0, symSize: 0x60 }
  - { offsetInCU: 0x5E7CF, offset: 0x5E7CF, size: 0x8, addend: 0x0, symName: __ZNSt3__124__is_overaligned_for_newB8ue170006Em, symObjAddr: 0x24210, symBinAddr: 0x100024B50, symSize: 0x20 }
  - { offsetInCU: 0x5E7FD, offset: 0x5E7FD, size: 0x8, addend: 0x0, symName: __ZNSt3__121__libcpp_operator_newB8ue170006IJmSt11align_val_tEEEPvDpT_, symObjAddr: 0x24230, symBinAddr: 0x100024B70, symSize: 0x30 }
  - { offsetInCU: 0x5E84A, offset: 0x5E84A, size: 0x8, addend: 0x0, symName: __ZNSt3__121__libcpp_operator_newB8ue170006IJmEEEPvDpT_, symObjAddr: 0x24260, symBinAddr: 0x100024BA0, symSize: 0x20 }
  - { offsetInCU: 0x5E884, offset: 0x5E884, size: 0x8, addend: 0x0, symName: __ZNSt3__119__libcpp_deallocateB8ue170006EPvmm, symObjAddr: 0x244F0, symBinAddr: 0x100024E30, symSize: 0x60 }
  - { offsetInCU: 0x5E8EC, offset: 0x5E8EC, size: 0x8, addend: 0x0, symName: __ZNSt3__127__do_deallocate_handle_sizeB8ue170006IJSt11align_val_tEEEvPvmDpT_, symObjAddr: 0x24550, symBinAddr: 0x100024E90, symSize: 0x30 }
  - { offsetInCU: 0x5E940, offset: 0x5E940, size: 0x8, addend: 0x0, symName: __ZNSt3__127__do_deallocate_handle_sizeB8ue170006IJEEEvPvmDpT_, symObjAddr: 0x24580, symBinAddr: 0x100024EC0, symSize: 0x20 }
  - { offsetInCU: 0x5E97F, offset: 0x5E97F, size: 0x8, addend: 0x0, symName: __ZNSt3__124__libcpp_operator_deleteB8ue170006IJPvSt11align_val_tEEEvDpT_, symObjAddr: 0x245A0, symBinAddr: 0x100024EE0, symSize: 0x30 }
  - { offsetInCU: 0x5E9C9, offset: 0x5E9C9, size: 0x8, addend: 0x0, symName: __ZNSt3__124__libcpp_operator_deleteB8ue170006IJPvEEEvDpT_, symObjAddr: 0x245D0, symBinAddr: 0x100024F10, symSize: 0x20 }
  - { offsetInCU: 0x5E9FE, offset: 0x5E9FE, size: 0x8, addend: 0x0, symName: __ZNSt3__118__constexpr_strlenB8ue170006EPKc, symObjAddr: 0x246A0, symBinAddr: 0x100024FE0, symSize: 0x20 }
  - { offsetInCU: 0x5EA5D, offset: 0x5EA5D, size: 0x8, addend: 0x0, symName: __ZNSt3__110destroy_atB8ue170006INS_4pairIKNS_12basic_stringIcNS_11char_traitsIcEENS_9allocatorIcEEEES7_EELi0EEEvPT_, symObjAddr: 0x24F80, symBinAddr: 0x1000258C0, symSize: 0x20 }
  - { offsetInCU: 0x5EA94, offset: 0x5EA94, size: 0x8, addend: 0x0, symName: __ZNSt3__112__destroy_atB8ue170006INS_4pairIKNS_12basic_stringIcNS_11char_traitsIcEENS_9allocatorIcEEEES7_EELi0EEEvPT_, symObjAddr: 0x24FA0, symBinAddr: 0x1000258E0, symSize: 0x20 }
  - { offsetInCU: 0x5EACB, offset: 0x5EACB, size: 0x8, addend: 0x0, symName: __ZNSt3__17launderB8ue170006INS_4pairIKNS_12basic_stringIcNS_11char_traitsIcEENS_9allocatorIcEEEES7_EEEEPT_SB_, symObjAddr: 0x25030, symBinAddr: 0x100025970, symSize: 0x20 }
  - { offsetInCU: 0x5EB02, offset: 0x5EB02, size: 0x8, addend: 0x0, symName: __ZNSt3__19__launderB8ue170006INS_4pairIKNS_12basic_stringIcNS_11char_traitsIcEENS_9allocatorIcEEEES7_EEEEPT_SB_, symObjAddr: 0x25050, symBinAddr: 0x100025990, symSize: 0x10 }
  - { offsetInCU: 0x5EB39, offset: 0x5EB39, size: 0x8, addend: 0x0, symName: __ZNSt3__122__str_find_last_not_ofB8ue170006IcmNS_11char_traitsIcEELm18446744073709551615EEET0_PKT_S3_S6_S3_S3_, symObjAddr: 0x253B0, symBinAddr: 0x100025CF0, symSize: 0xB0 }
  - { offsetInCU: 0x5EBF0, offset: 0x5EBF0, size: 0x8, addend: 0x0, symName: __ZNSt3__118__constexpr_memchrB8ue170006IKccEEPT_S3_T0_m, symObjAddr: 0x25500, symBinAddr: 0x100025E40, symSize: 0x40 }
  - { offsetInCU: 0x5EC67, offset: 0x5EC67, size: 0x8, addend: 0x0, symName: __ZNSt3__112__to_addressB8ue170006IKcEEPT_S3_, symObjAddr: 0x25540, symBinAddr: 0x100025E80, symSize: 0x10 }
  - { offsetInCU: 0x5ECCF, offset: 0x5ECCF, size: 0x8, addend: 0x0, symName: __ZNSt3__112__to_addressB8ue170006IN7tinyobj10material_tEEEPT_S4_, symObjAddr: 0x258E0, symBinAddr: 0x100026220, symSize: 0x10 }
  - { offsetInCU: 0x5ED2B, offset: 0x5ED2B, size: 0x8, addend: 0x0, symName: __ZNSt3__112construct_atB8ue170006IN7tinyobj10material_tEJRKS2_EPS2_EEPT_S7_DpOT0_, symObjAddr: 0x25950, symBinAddr: 0x100026290, symSize: 0x40 }
  - { offsetInCU: 0x5ED9D, offset: 0x5ED9D, size: 0x8, addend: 0x0, symName: __ZNSt3__1neB8ue170006ERKNS_20__map_const_iteratorINS_21__tree_const_iteratorINS_12__value_typeINS_12basic_stringIcNS_11char_traitsIcEENS_9allocatorIcEEEES8_EEPNS_11__tree_nodeIS9_PvEElEEEESH_, symObjAddr: 0x265E0, symBinAddr: 0x100026F20, symSize: 0x30 }
  - { offsetInCU: 0x5EDDA, offset: 0x5EDDA, size: 0x8, addend: 0x0, symName: __ZNSt3__1neB8ue170006ERKNS_21__tree_const_iteratorINS_12__value_typeINS_12basic_stringIcNS_11char_traitsIcEENS_9allocatorIcEEEES7_EEPNS_11__tree_nodeIS8_PvEElEESF_, symObjAddr: 0x266F0, symBinAddr: 0x100027030, symSize: 0x30 }
  - { offsetInCU: 0x5EE17, offset: 0x5EE17, size: 0x8, addend: 0x0, symName: __ZNSt3__1eqB8ue170006ERKNS_21__tree_const_iteratorINS_12__value_typeINS_12basic_stringIcNS_11char_traitsIcEENS_9allocatorIcEEEES7_EEPNS_11__tree_nodeIS8_PvEElEESF_, symObjAddr: 0x26720, symBinAddr: 0x100027060, symSize: 0x30 }
  - { offsetInCU: 0x5EE78, offset: 0x5EE78, size: 0x8, addend: 0x0, symName: __ZNSt3__14nextB8ue170006INS_21__tree_const_iteratorINS_12__value_typeINS_12basic_stringIcNS_11char_traitsIcEENS_9allocatorIcEEEES8_EEPNS_11__tree_nodeIS9_PvEElEEEENS_9enable_ifIXsr29__has_input_iterator_categoryIT_EE5valueESG_E4typeESG_NS_15iterator_traitsISG_E15difference_typeE, symObjAddr: 0x271E0, symBinAddr: 0x100027B20, symSize: 0x30 }
  - { offsetInCU: 0x5EEBB, offset: 0x5EEBB, size: 0x8, addend: 0x0, symName: __ZNSt3__1ltB8ue170006ENS_15strong_orderingENS_20_CmpUnspecifiedParamE, symObjAddr: 0x27340, symBinAddr: 0x100027C80, symSize: 0x20 }
  - { offsetInCU: 0x5EEF5, offset: 0x5EEF5, size: 0x8, addend: 0x0, symName: __ZNSt3__1ssB8ue170006IcNS_11char_traitsIcEENS_9allocatorIcEEEEDaRKNS_12basic_stringIT_T0_T1_EESC_, symObjAddr: 0x27360, symBinAddr: 0x100027CA0, symSize: 0x60 }
  - { offsetInCU: 0x5EF69, offset: 0x5EF69, size: 0x8, addend: 0x0, symName: __ZNSt3__1ssB8ue170006IcNS_11char_traitsIcEEEEDaNS_17basic_string_viewIT_T0_EES7_, symObjAddr: 0x273F0, symBinAddr: 0x100027D30, symSize: 0x90 }
  - { offsetInCU: 0x5EFB8, offset: 0x5EFB8, size: 0x8, addend: 0x0, symName: __ZNSt3__13minB8ue170006ImEERKT_S3_S3_, symObjAddr: 0x275D0, symBinAddr: 0x100027F10, symSize: 0x30 }
  - { offsetInCU: 0x5EFFB, offset: 0x5EFFB, size: 0x8, addend: 0x0, symName: __ZNSt3__13minB8ue170006ImNS_6__lessIvvEEEERKT_S5_S5_T0_, symObjAddr: 0x27670, symBinAddr: 0x100027FB0, symSize: 0x50 }
  - { offsetInCU: 0x5F0FC, offset: 0x5F0FC, size: 0x8, addend: 0x0, symName: __ZNSt3__17launderB8ue170006IKNS_4pairIKNS_12basic_stringIcNS_11char_traitsIcEENS_9allocatorIcEEEES7_EEEEPT_SC_, symObjAddr: 0x27760, symBinAddr: 0x1000280A0, symSize: 0x20 }
  - { offsetInCU: 0x5F133, offset: 0x5F133, size: 0x8, addend: 0x0, symName: __ZNSt3__19__launderB8ue170006IKNS_4pairIKNS_12basic_stringIcNS_11char_traitsIcEENS_9allocatorIcEEEES7_EEEEPT_SC_, symObjAddr: 0x27780, symBinAddr: 0x1000280C0, symSize: 0x10 }
  - { offsetInCU: 0x5F16A, offset: 0x5F16A, size: 0x8, addend: 0x0, symName: __ZNSt3__116__tree_prev_iterB8ue170006IPNS_16__tree_node_baseIPvEEPNS_15__tree_end_nodeIS4_EEEET_T0_, symObjAddr: 0x27790, symBinAddr: 0x1000280D0, symSize: 0xA0 }
  - { offsetInCU: 0x5F1B6, offset: 0x5F1B6, size: 0x8, addend: 0x0, symName: __ZNSt3__110__tree_maxB8ue170006IPNS_16__tree_node_baseIPvEEEET_S5_, symObjAddr: 0x27830, symBinAddr: 0x100028170, symSize: 0x30 }
  - { offsetInCU: 0x5F1EB, offset: 0x5F1EB, size: 0x8, addend: 0x0, symName: __ZNSt3__120__tree_is_left_childB8ue170006IPNS_16__tree_node_baseIPvEEEEbT_, symObjAddr: 0x27860, symBinAddr: 0x1000281A0, symSize: 0x30 }
  - { offsetInCU: 0x5F220, offset: 0x5F220, size: 0x8, addend: 0x0, symName: __ZNSt3__121__convert_to_integralB8ue170006El, symObjAddr: 0x27900, symBinAddr: 0x100028240, symSize: 0x10 }
  - { offsetInCU: 0x5F24C, offset: 0x5F24C, size: 0x8, addend: 0x0, symName: __ZNSt3__19__advanceB8ue170006INS_21__tree_const_iteratorINS_12__value_typeINS_12basic_stringIcNS_11char_traitsIcEENS_9allocatorIcEEEES8_EEPNS_11__tree_nodeIS9_PvEElEEEEvRT_NS_15iterator_traitsISF_E15difference_typeENS_26bidirectional_iterator_tagE, symObjAddr: 0x27910, symBinAddr: 0x100028250, symSize: 0x80 }
  - { offsetInCU: 0x5F296, offset: 0x5F296, size: 0x8, addend: 0x0, symName: __ZNSt3__116__tree_next_iterB8ue170006IPNS_15__tree_end_nodeIPNS_16__tree_node_baseIPvEEEES5_EET_T0_, symObjAddr: 0x279C0, symBinAddr: 0x100028300, symSize: 0x80 }
  - { offsetInCU: 0x5F2D4, offset: 0x5F2D4, size: 0x8, addend: 0x0, symName: __ZNSt3__110__tree_minB8ue170006IPNS_16__tree_node_baseIPvEEEET_S5_, symObjAddr: 0x27A40, symBinAddr: 0x100028380, symSize: 0x30 }
  - { offsetInCU: 0x5F34E, offset: 0x5F34E, size: 0x8, addend: 0x0, symName: __ZNSt3__112construct_atB8ue170006INS_4pairIKNS_12basic_stringIcNS_11char_traitsIcEENS_9allocatorIcEEEES7_EEJRKS9_EPS9_EEPT_SE_DpOT0_, symObjAddr: 0x27D30, symBinAddr: 0x100028670, symSize: 0x40 }
  - { offsetInCU: 0x5F3C1, offset: 0x5F3C1, size: 0x8, addend: 0x0, symName: __ZNSt3__127__tree_balance_after_insertB8ue170006IPNS_16__tree_node_baseIPvEEEEvT_S5_, symObjAddr: 0x27E60, symBinAddr: 0x1000287A0, symSize: 0x240 }
  - { offsetInCU: 0x5F442, offset: 0x5F442, size: 0x8, addend: 0x0, symName: __ZNSt3__118__tree_left_rotateB8ue170006IPNS_16__tree_node_baseIPvEEEEvT_, symObjAddr: 0x280A0, symBinAddr: 0x1000289E0, symSize: 0xD0 }
  - { offsetInCU: 0x5F486, offset: 0x5F486, size: 0x8, addend: 0x0, symName: __ZNSt3__119__tree_right_rotateB8ue170006IPNS_16__tree_node_baseIPvEEEEvT_, symObjAddr: 0x28170, symBinAddr: 0x100028AB0, symSize: 0xC0 }
  - { offsetInCU: 0x5F4FC, offset: 0x5F4FC, size: 0x8, addend: 0x0, symName: __ZNSt3__13maxB8ue170006ImEERKT_S3_S3_, symObjAddr: 0x288B0, symBinAddr: 0x1000291F0, symSize: 0x30 }
  - { offsetInCU: 0x5F729, offset: 0x5F729, size: 0x8, addend: 0x0, symName: __ZNSt3__13maxB8ue170006ImNS_6__lessIvvEEEERKT_S5_S5_T0_, symObjAddr: 0x289D0, symBinAddr: 0x100029310, symSize: 0x50 }
  - { offsetInCU: 0x5F783, offset: 0x5F783, size: 0x8, addend: 0x0, symName: __ZNSt3__119__allocate_at_leastB8ue170006INS_9allocatorIN7tinyobj10material_tEEEEENS_19__allocation_resultINS_16allocator_traitsIT_E7pointerEEERS7_m, symObjAddr: 0x28B20, symBinAddr: 0x100029460, symSize: 0x40 }
  - { offsetInCU: 0x5F7C6, offset: 0x5F7C6, size: 0x8, addend: 0x0, symName: __ZNSt3__142__uninitialized_allocator_move_if_noexceptB8ue170006INS_9allocatorIN7tinyobj10material_tEEENS_16reverse_iteratorIPS3_EES7_S7_EET2_RT_T0_T1_S8_, symObjAddr: 0x28D90, symBinAddr: 0x1000296D0, symSize: 0x180 }
  - { offsetInCU: 0x5F867, offset: 0x5F867, size: 0x8, addend: 0x0, symName: __ZNSt3__14swapB8ue170006IPN7tinyobj10material_tEEENS_9enable_ifIXaasr21is_move_constructibleIT_EE5valuesr18is_move_assignableIS5_EE5valueEvE4typeERS5_S8_, symObjAddr: 0x28F60, symBinAddr: 0x1000298A0, symSize: 0x40 }
  - { offsetInCU: 0x5F8B8, offset: 0x5F8B8, size: 0x8, addend: 0x0, symName: __ZNSt3__122__make_exception_guardB8ue170006INS_29_AllocatorDestroyRangeReverseINS_9allocatorIN7tinyobj10material_tEEENS_16reverse_iteratorIPS4_EEEEEENS_28__exception_guard_exceptionsIT_EESB_, symObjAddr: 0x29090, symBinAddr: 0x1000299D0, symSize: 0x60 }
  - { offsetInCU: 0x5F8ED, offset: 0x5F8ED, size: 0x8, addend: 0x0, symName: __ZNSt3__1neB8ue170006IPN7tinyobj10material_tES3_EEbRKNS_16reverse_iteratorIT_EERKNS4_IT0_EE, symObjAddr: 0x29130, symBinAddr: 0x100029A70, symSize: 0x40 }
  - { offsetInCU: 0x5F939, offset: 0x5F939, size: 0x8, addend: 0x0, symName: __ZNSt3__112__to_addressB8ue170006INS_16reverse_iteratorIPN7tinyobj10material_tEEEvEEu7__decayIDTclsr19__to_address_helperIT_EE6__callclsr3stdE7declvalIRKS6_EEEEES8_, symObjAddr: 0x291A0, symBinAddr: 0x100029AE0, symSize: 0x20 }
  - { offsetInCU: 0x5F96F, offset: 0x5F96F, size: 0x8, addend: 0x0, symName: __ZNSt3__112construct_atB8ue170006IN7tinyobj10material_tEJS2_EPS2_EEPT_S5_DpOT0_, symObjAddr: 0x29300, symBinAddr: 0x100029C40, symSize: 0x40 }
  - { offsetInCU: 0x5FA0A, offset: 0x5FA0A, size: 0x8, addend: 0x0, symName: __ZNSt3__14prevB8ue170006IPN7tinyobj10material_tEEENS_9enable_ifIXsr29__has_input_iterator_categoryIT_EE5valueES5_E4typeES5_NS_15iterator_traitsIS5_E15difference_typeE, symObjAddr: 0x29990, symBinAddr: 0x10002A2D0, symSize: 0x30 }
  - { offsetInCU: 0x5FA4D, offset: 0x5FA4D, size: 0x8, addend: 0x0, symName: __ZNSt3__19__advanceB8ue170006IPN7tinyobj10material_tEEEvRT_NS_15iterator_traitsIS4_E15difference_typeENS_26random_access_iterator_tagE, symObjAddr: 0x299F0, symBinAddr: 0x10002A330, symSize: 0x30 }
  - { offsetInCU: 0x5FA98, offset: 0x5FA98, size: 0x8, addend: 0x0, symName: __ZNSt3__119__allocator_destroyB8ue170006INS_9allocatorIN7tinyobj10material_tEEENS_16reverse_iteratorINS5_IPS3_EEEES8_EEvRT_T0_T1_, symObjAddr: 0x29B50, symBinAddr: 0x10002A490, symSize: 0x70 }
  - { offsetInCU: 0x5FAFB, offset: 0x5FAFB, size: 0x8, addend: 0x0, symName: __ZNSt3__1neB8ue170006INS_16reverse_iteratorIPN7tinyobj10material_tEEES5_EEbRKNS1_IT_EERKNS1_IT0_EE, symObjAddr: 0x29BF0, symBinAddr: 0x10002A530, symSize: 0x50 }
  - { offsetInCU: 0x5FB47, offset: 0x5FB47, size: 0x8, addend: 0x0, symName: __ZNSt3__112__to_addressB8ue170006INS_16reverse_iteratorINS1_IPN7tinyobj10material_tEEEEEvEEu7__decayIDTclsr19__to_address_helperIT_EE6__callclsr3stdE7declvalIRKS7_EEEEES9_, symObjAddr: 0x29C60, symBinAddr: 0x10002A5A0, symSize: 0x20 }
  - { offsetInCU: 0x5FB7D, offset: 0x5FB7D, size: 0x8, addend: 0x0, symName: __ZNSt3__110destroy_atB8ue170006IN7tinyobj10material_tELi0EEEvPT_, symObjAddr: 0x29CD0, symBinAddr: 0x10002A610, symSize: 0x20 }
  - { offsetInCU: 0x5FBB4, offset: 0x5FBB4, size: 0x8, addend: 0x0, symName: __ZNSt3__112__destroy_atB8ue170006IN7tinyobj10material_tELi0EEEvPT_, symObjAddr: 0x29CF0, symBinAddr: 0x10002A630, symSize: 0x20 }
  - { offsetInCU: 0x5FC14, offset: 0x5FC14, size: 0x8, addend: 0x0, symName: __ZNSt3__14prevB8ue170006INS_16reverse_iteratorIPN7tinyobj10material_tEEEEENS_9enable_ifIXsr29__has_input_iterator_categoryIT_EE5valueES7_E4typeES7_NS_15iterator_traitsIS7_E15difference_typeE, symObjAddr: 0x29DA0, symBinAddr: 0x10002A6E0, symSize: 0x40 }
  - { offsetInCU: 0x5FC57, offset: 0x5FC57, size: 0x8, addend: 0x0, symName: __ZNSt3__19__advanceB8ue170006INS_16reverse_iteratorIPN7tinyobj10material_tEEEEEvRT_NS_15iterator_traitsIS6_E15difference_typeENS_26random_access_iterator_tagE, symObjAddr: 0x29E10, symBinAddr: 0x10002A750, symSize: 0x30 }
  - { offsetInCU: 0x5FCA1, offset: 0x5FCA1, size: 0x8, addend: 0x0, symName: __ZNSt3__112__to_addressB8ue170006INS_12basic_stringIcNS_11char_traitsIcEENS_9allocatorIcEEEEEEPT_S8_, symObjAddr: 0x2A810, symBinAddr: 0x10002B150, symSize: 0x10 }
  - { offsetInCU: 0x5FCFD, offset: 0x5FCFD, size: 0x8, addend: 0x0, symName: __ZNSt3__112construct_atB8ue170006INS_12basic_stringIcNS_11char_traitsIcEENS_9allocatorIcEEEEJRKS6_EPS6_EEPT_SB_DpOT0_, symObjAddr: 0x2A880, symBinAddr: 0x10002B1C0, symSize: 0x40 }
  - { offsetInCU: 0x5FD6F, offset: 0x5FD6F, size: 0x8, addend: 0x0, symName: __ZNSt3__119__allocate_at_leastB8ue170006INS_9allocatorINS_12basic_stringIcNS_11char_traitsIcEENS1_IcEEEEEEEENS_19__allocation_resultINS_16allocator_traitsIT_E7pointerEEERSA_m, symObjAddr: 0x2ADB0, symBinAddr: 0x10002B6F0, symSize: 0x40 }
  - { offsetInCU: 0x5FDB2, offset: 0x5FDB2, size: 0x8, addend: 0x0, symName: __ZNSt3__142__uninitialized_allocator_move_if_noexceptB8ue170006INS_9allocatorINS_12basic_stringIcNS_11char_traitsIcEENS1_IcEEEEEENS_16reverse_iteratorIPS6_EESA_SA_EET2_RT_T0_T1_SB_, symObjAddr: 0x2AFF0, symBinAddr: 0x10002B930, symSize: 0x180 }
  - { offsetInCU: 0x5FE53, offset: 0x5FE53, size: 0x8, addend: 0x0, symName: __ZNSt3__14swapB8ue170006IPNS_12basic_stringIcNS_11char_traitsIcEENS_9allocatorIcEEEEEENS_9enable_ifIXaasr21is_move_constructibleIT_EE5valuesr18is_move_assignableIS9_EE5valueEvE4typeERS9_SC_, symObjAddr: 0x2B1C0, symBinAddr: 0x10002BB00, symSize: 0x40 }
  - { offsetInCU: 0x5FEA4, offset: 0x5FEA4, size: 0x8, addend: 0x0, symName: __ZNSt3__122__make_exception_guardB8ue170006INS_29_AllocatorDestroyRangeReverseINS_9allocatorINS_12basic_stringIcNS_11char_traitsIcEENS2_IcEEEEEENS_16reverse_iteratorIPS7_EEEEEENS_28__exception_guard_exceptionsIT_EESE_, symObjAddr: 0x2B2E0, symBinAddr: 0x10002BC20, symSize: 0x60 }
  - { offsetInCU: 0x5FED9, offset: 0x5FED9, size: 0x8, addend: 0x0, symName: __ZNSt3__1neB8ue170006IPNS_12basic_stringIcNS_11char_traitsIcEENS_9allocatorIcEEEES7_EEbRKNS_16reverse_iteratorIT_EERKNS8_IT0_EE, symObjAddr: 0x2B380, symBinAddr: 0x10002BCC0, symSize: 0x40 }
  - { offsetInCU: 0x5FF25, offset: 0x5FF25, size: 0x8, addend: 0x0, symName: __ZNSt3__112__to_addressB8ue170006INS_16reverse_iteratorIPNS_12basic_stringIcNS_11char_traitsIcEENS_9allocatorIcEEEEEEvEEu7__decayIDTclsr19__to_address_helperIT_EE6__callclsr3stdE7declvalIRKSA_EEEEESC_, symObjAddr: 0x2B3F0, symBinAddr: 0x10002BD30, symSize: 0x20 }
  - { offsetInCU: 0x5FF5B, offset: 0x5FF5B, size: 0x8, addend: 0x0, symName: __ZNSt3__112construct_atB8ue170006INS_12basic_stringIcNS_11char_traitsIcEENS_9allocatorIcEEEEJS6_EPS6_EEPT_S9_DpOT0_, symObjAddr: 0x2B550, symBinAddr: 0x10002BE90, symSize: 0x40 }
  - { offsetInCU: 0x5FFF6, offset: 0x5FFF6, size: 0x8, addend: 0x0, symName: __ZNSt3__14prevB8ue170006IPNS_12basic_stringIcNS_11char_traitsIcEENS_9allocatorIcEEEEEENS_9enable_ifIXsr29__has_input_iterator_categoryIT_EE5valueES9_E4typeES9_NS_15iterator_traitsIS9_E15difference_typeE, symObjAddr: 0x2B600, symBinAddr: 0x10002BF40, symSize: 0x30 }
  - { offsetInCU: 0x60039, offset: 0x60039, size: 0x8, addend: 0x0, symName: __ZNSt3__19__advanceB8ue170006IPNS_12basic_stringIcNS_11char_traitsIcEENS_9allocatorIcEEEEEEvRT_NS_15iterator_traitsIS8_E15difference_typeENS_26random_access_iterator_tagE, symObjAddr: 0x2B660, symBinAddr: 0x10002BFA0, symSize: 0x20 }
  - { offsetInCU: 0x60084, offset: 0x60084, size: 0x8, addend: 0x0, symName: __ZNSt3__119__allocator_destroyB8ue170006INS_9allocatorINS_12basic_stringIcNS_11char_traitsIcEENS1_IcEEEEEENS_16reverse_iteratorINS8_IPS6_EEEESB_EEvRT_T0_T1_, symObjAddr: 0x2B7B0, symBinAddr: 0x10002C0F0, symSize: 0x70 }
  - { offsetInCU: 0x600E7, offset: 0x600E7, size: 0x8, addend: 0x0, symName: __ZNSt3__1neB8ue170006INS_16reverse_iteratorIPNS_12basic_stringIcNS_11char_traitsIcEENS_9allocatorIcEEEEEES9_EEbRKNS1_IT_EERKNS1_IT0_EE, symObjAddr: 0x2B850, symBinAddr: 0x10002C190, symSize: 0x50 }
  - { offsetInCU: 0x60133, offset: 0x60133, size: 0x8, addend: 0x0, symName: __ZNSt3__112__to_addressB8ue170006INS_16reverse_iteratorINS1_IPNS_12basic_stringIcNS_11char_traitsIcEENS_9allocatorIcEEEEEEEEvEEu7__decayIDTclsr19__to_address_helperIT_EE6__callclsr3stdE7declvalIRKSB_EEEEESD_, symObjAddr: 0x2B8C0, symBinAddr: 0x10002C200, symSize: 0x20 }
  - { offsetInCU: 0x60169, offset: 0x60169, size: 0x8, addend: 0x0, symName: __ZNSt3__110destroy_atB8ue170006INS_12basic_stringIcNS_11char_traitsIcEENS_9allocatorIcEEEELi0EEEvPT_, symObjAddr: 0x2B930, symBinAddr: 0x10002C270, symSize: 0x20 }
  - { offsetInCU: 0x601A0, offset: 0x601A0, size: 0x8, addend: 0x0, symName: __ZNSt3__112__destroy_atB8ue170006INS_12basic_stringIcNS_11char_traitsIcEENS_9allocatorIcEEEELi0EEEvPT_, symObjAddr: 0x2B950, symBinAddr: 0x10002C290, symSize: 0x20 }
  - { offsetInCU: 0x60200, offset: 0x60200, size: 0x8, addend: 0x0, symName: __ZNSt3__14prevB8ue170006INS_16reverse_iteratorIPNS_12basic_stringIcNS_11char_traitsIcEENS_9allocatorIcEEEEEEEENS_9enable_ifIXsr29__has_input_iterator_categoryIT_EE5valueESB_E4typeESB_NS_15iterator_traitsISB_E15difference_typeE, symObjAddr: 0x2BA00, symBinAddr: 0x10002C340, symSize: 0x40 }
  - { offsetInCU: 0x60243, offset: 0x60243, size: 0x8, addend: 0x0, symName: __ZNSt3__19__advanceB8ue170006INS_16reverse_iteratorIPNS_12basic_stringIcNS_11char_traitsIcEENS_9allocatorIcEEEEEEEEvRT_NS_15iterator_traitsISA_E15difference_typeENS_26random_access_iterator_tagE, symObjAddr: 0x2BA70, symBinAddr: 0x10002C3B0, symSize: 0x30 }
  - { offsetInCU: 0x6028D, offset: 0x6028D, size: 0x8, addend: 0x0, symName: __ZNSt3__1plB8ue170006IcNS_11char_traitsIcEENS_9allocatorIcEEEENS_12basic_stringIT_T0_T1_EEOS9_RKS9_, symObjAddr: 0x2BE20, symBinAddr: 0x10002C760, symSize: 0x50 }
  - { offsetInCU: 0x602E5, offset: 0x602E5, size: 0x8, addend: 0x0, symName: __ZNSt3__1plB8ue170006IcNS_11char_traitsIcEENS_9allocatorIcEEEENS_12basic_stringIT_T0_T1_EERKS9_OS9_, symObjAddr: 0x2BE70, symBinAddr: 0x10002C7B0, symSize: 0x50 }
  - { offsetInCU: 0x6033D, offset: 0x6033D, size: 0x8, addend: 0x0, symName: __ZNSt3__112__to_addressB8ue170006IfEEPT_S2_, symObjAddr: 0x2C520, symBinAddr: 0x10002CE60, symSize: 0x10 }
  - { offsetInCU: 0x60372, offset: 0x60372, size: 0x8, addend: 0x0, symName: __ZNSt3__110destroy_atB8ue170006IfLi0EEEvPT_, symObjAddr: 0x2C530, symBinAddr: 0x10002CE70, symSize: 0x20 }
  - { offsetInCU: 0x603A9, offset: 0x603A9, size: 0x8, addend: 0x0, symName: __ZNSt3__112__destroy_atB8ue170006IfLi0EEEvPT_, symObjAddr: 0x2C550, symBinAddr: 0x10002CE90, symSize: 0x10 }
  - { offsetInCU: 0x603E0, offset: 0x603E0, size: 0x8, addend: 0x0, symName: __ZNSt3__112__to_addressB8ue170006IN7tinyobj7shape_tEEEPT_S4_, symObjAddr: 0x2C810, symBinAddr: 0x10002D150, symSize: 0x10 }
  - { offsetInCU: 0x60415, offset: 0x60415, size: 0x8, addend: 0x0, symName: __ZNSt3__110destroy_atB8ue170006IN7tinyobj7shape_tELi0EEEvPT_, symObjAddr: 0x2C820, symBinAddr: 0x10002D160, symSize: 0x20 }
  - { offsetInCU: 0x6044C, offset: 0x6044C, size: 0x8, addend: 0x0, symName: __ZNSt3__112__destroy_atB8ue170006IN7tinyobj7shape_tELi0EEEvPT_, symObjAddr: 0x2C840, symBinAddr: 0x10002D180, symSize: 0x20 }
  - { offsetInCU: 0x604AA, offset: 0x604AA, size: 0x8, addend: 0x0, symName: __ZNSt3__112construct_atB8ue170006IfJRKfEPfEEPT_S5_DpOT0_, symObjAddr: 0x2D7D0, symBinAddr: 0x10002E110, symSize: 0x30 }
  - { offsetInCU: 0x6051C, offset: 0x6051C, size: 0x8, addend: 0x0, symName: __ZNSt3__119__allocate_at_leastB8ue170006INS_9allocatorIfEEEENS_19__allocation_resultINS_16allocator_traitsIT_E7pointerEEERS5_m, symObjAddr: 0x2DC30, symBinAddr: 0x10002E570, symSize: 0x40 }
  - { offsetInCU: 0x6055F, offset: 0x6055F, size: 0x8, addend: 0x0, symName: __ZNSt3__142__uninitialized_allocator_move_if_noexceptB8ue170006INS_9allocatorIfEENS_16reverse_iteratorIPfEES5_fvEET1_RT_T0_S9_S6_, symObjAddr: 0x2DE70, symBinAddr: 0x10002E7B0, symSize: 0x70 }
  - { offsetInCU: 0x605DC, offset: 0x605DC, size: 0x8, addend: 0x0, symName: __ZNSt3__14swapB8ue170006IPfEENS_9enable_ifIXaasr21is_move_constructibleIT_EE5valuesr18is_move_assignableIS3_EE5valueEvE4typeERS3_S6_, symObjAddr: 0x2DF30, symBinAddr: 0x10002E870, symSize: 0x40 }
  - { offsetInCU: 0x6062D, offset: 0x6062D, size: 0x8, addend: 0x0, symName: __ZNSt3__14moveB8ue170006INS_16reverse_iteratorIPfEES3_EET0_T_S5_S4_, symObjAddr: 0x2E020, symBinAddr: 0x10002E960, symSize: 0x80 }
  - { offsetInCU: 0x60687, offset: 0x60687, size: 0x8, addend: 0x0, symName: __ZNSt3__16__moveB8ue170006INS_17_ClassicAlgPolicyENS_16reverse_iteratorIPfEES4_S4_EENS_4pairIT0_T2_EES6_T1_S7_, symObjAddr: 0x2E0A0, symBinAddr: 0x10002E9E0, symSize: 0x90 }
  - { offsetInCU: 0x606F3, offset: 0x606F3, size: 0x8, addend: 0x0, symName: __ZNSt3__123__dispatch_copy_or_moveB8ue170006INS_17_ClassicAlgPolicyENS_11__move_loopIS1_EENS_14__move_trivialENS_16reverse_iteratorIPfEES7_S7_EENS_4pairIT2_T4_EES9_T3_SA_, symObjAddr: 0x2E130, symBinAddr: 0x10002EA70, symSize: 0x90 }
  - { offsetInCU: 0x60771, offset: 0x60771, size: 0x8, addend: 0x0, symName: __ZNSt3__121__unwrap_and_dispatchB8ue170006INS_10__overloadINS_11__move_loopINS_17_ClassicAlgPolicyEEENS_14__move_trivialEEENS_16reverse_iteratorIPfEES9_S9_Li0EEENS_4pairIT0_T2_EESB_T1_SC_, symObjAddr: 0x2E1C0, symBinAddr: 0x10002EB00, symSize: 0x210 }
  - { offsetInCU: 0x60800, offset: 0x60800, size: 0x8, addend: 0x0, symName: __ZNSt3__114__unwrap_rangeB8ue170006INS_16reverse_iteratorIPfEES3_EEDaT_T0_, symObjAddr: 0x2E3D0, symBinAddr: 0x10002ED10, symSize: 0x60 }
  - { offsetInCU: 0x60E67, offset: 0x60E67, size: 0x8, addend: 0x0, symName: __ZNSt3__113__unwrap_iterB8ue170006INS_16reverse_iteratorIPfEENS_18__unwrap_iter_implIS3_Lb0EEELi0EEEDTclsrT0_8__unwrapclsr3stdE7declvalIT_EEEES7_, symObjAddr: 0x2E4D0, symBinAddr: 0x10002EE10, symSize: 0x40 }
  - { offsetInCU: 0x60EAB, offset: 0x60EAB, size: 0x8, addend: 0x0, symName: __ZNSt3__19make_pairB8ue170006INS_16reverse_iteratorIPfEES3_EENS_4pairINS_18__unwrap_ref_decayIT_E4typeENS5_IT0_E4typeEEEOS6_OS9_, symObjAddr: 0x2E510, symBinAddr: 0x10002EE50, symSize: 0x30 }
  - { offsetInCU: 0x60EFA, offset: 0x60EFA, size: 0x8, addend: 0x0, symName: __ZNSt3__114__rewrap_rangeB8ue170006INS_16reverse_iteratorIPfEES3_S3_EET0_S4_T1_, symObjAddr: 0x2E540, symBinAddr: 0x10002EE80, symSize: 0x60 }
  - { offsetInCU: 0x60F4F, offset: 0x60F4F, size: 0x8, addend: 0x0, symName: __ZNSt3__113__rewrap_iterB8ue170006INS_16reverse_iteratorIPfEES3_NS_18__unwrap_iter_implIS3_Lb0EEEEET_S6_T0_, symObjAddr: 0x2E5A0, symBinAddr: 0x10002EEE0, symSize: 0x70 }
  - { offsetInCU: 0x60FF4, offset: 0x60FF4, size: 0x8, addend: 0x0, symName: __ZNSt3__1neB8ue170006IPfS1_EEbRKNS_16reverse_iteratorIT_EERKNS2_IT0_EE, symObjAddr: 0x2E710, symBinAddr: 0x10002F050, symSize: 0x40 }
  - { offsetInCU: 0x614EE, offset: 0x614EE, size: 0x8, addend: 0x0, symName: __ZNSt3__112__to_addressB8ue170006IN7tinyobj18joint_and_weight_tEEEPT_S4_, symObjAddr: 0x2EE70, symBinAddr: 0x10002F7B0, symSize: 0x10 }
  - { offsetInCU: 0x6154A, offset: 0x6154A, size: 0x8, addend: 0x0, symName: __ZNSt3__112construct_atB8ue170006IN7tinyobj18joint_and_weight_tEJRKS2_EPS2_EEPT_S7_DpOT0_, symObjAddr: 0x2EEE0, symBinAddr: 0x10002F820, symSize: 0x30 }
  - { offsetInCU: 0x615BC, offset: 0x615BC, size: 0x8, addend: 0x0, symName: __ZNSt3__119__allocate_at_leastB8ue170006INS_9allocatorIN7tinyobj18joint_and_weight_tEEEEENS_19__allocation_resultINS_16allocator_traitsIT_E7pointerEEERS7_m, symObjAddr: 0x2F410, symBinAddr: 0x10002FD50, symSize: 0x40 }
  - { offsetInCU: 0x615FF, offset: 0x615FF, size: 0x8, addend: 0x0, symName: __ZNSt3__142__uninitialized_allocator_move_if_noexceptB8ue170006INS_9allocatorIN7tinyobj18joint_and_weight_tEEENS_16reverse_iteratorIPS3_EES7_S3_vEET1_RT_T0_SB_S8_, symObjAddr: 0x2F650, symBinAddr: 0x10002FF90, symSize: 0x70 }
  - { offsetInCU: 0x6167C, offset: 0x6167C, size: 0x8, addend: 0x0, symName: __ZNSt3__14swapB8ue170006IPN7tinyobj18joint_and_weight_tEEENS_9enable_ifIXaasr21is_move_constructibleIT_EE5valuesr18is_move_assignableIS5_EE5valueEvE4typeERS5_S8_, symObjAddr: 0x2F710, symBinAddr: 0x100030050, symSize: 0x40 }
  - { offsetInCU: 0x616CD, offset: 0x616CD, size: 0x8, addend: 0x0, symName: __ZNSt3__14moveB8ue170006INS_16reverse_iteratorIPN7tinyobj18joint_and_weight_tEEES5_EET0_T_S7_S6_, symObjAddr: 0x2F840, symBinAddr: 0x100030180, symSize: 0x80 }
  - { offsetInCU: 0x61727, offset: 0x61727, size: 0x8, addend: 0x0, symName: __ZNSt3__16__moveB8ue170006INS_17_ClassicAlgPolicyENS_16reverse_iteratorIPN7tinyobj18joint_and_weight_tEEES6_S6_EENS_4pairIT0_T2_EES8_T1_S9_, symObjAddr: 0x2F8C0, symBinAddr: 0x100030200, symSize: 0x90 }
  - { offsetInCU: 0x61793, offset: 0x61793, size: 0x8, addend: 0x0, symName: __ZNSt3__123__dispatch_copy_or_moveB8ue170006INS_17_ClassicAlgPolicyENS_11__move_loopIS1_EENS_14__move_trivialENS_16reverse_iteratorIPN7tinyobj18joint_and_weight_tEEES9_S9_EENS_4pairIT2_T4_EESB_T3_SC_, symObjAddr: 0x2F950, symBinAddr: 0x100030290, symSize: 0x90 }
  - { offsetInCU: 0x61811, offset: 0x61811, size: 0x8, addend: 0x0, symName: __ZNSt3__121__unwrap_and_dispatchB8ue170006INS_10__overloadINS_11__move_loopINS_17_ClassicAlgPolicyEEENS_14__move_trivialEEENS_16reverse_iteratorIPN7tinyobj18joint_and_weight_tEEESB_SB_Li0EEENS_4pairIT0_T2_EESD_T1_SE_, symObjAddr: 0x2F9E0, symBinAddr: 0x100030320, symSize: 0x210 }
  - { offsetInCU: 0x618A0, offset: 0x618A0, size: 0x8, addend: 0x0, symName: __ZNSt3__114__unwrap_rangeB8ue170006INS_16reverse_iteratorIPN7tinyobj18joint_and_weight_tEEES5_EEDaT_T0_, symObjAddr: 0x2FBF0, symBinAddr: 0x100030530, symSize: 0x60 }
  - { offsetInCU: 0x619C0, offset: 0x619C0, size: 0x8, addend: 0x0, symName: __ZNSt3__113__unwrap_iterB8ue170006INS_16reverse_iteratorIPN7tinyobj18joint_and_weight_tEEENS_18__unwrap_iter_implIS5_Lb0EEELi0EEEDTclsrT0_8__unwrapclsr3stdE7declvalIT_EEEES9_, symObjAddr: 0x2FCF0, symBinAddr: 0x100030630, symSize: 0x40 }
  - { offsetInCU: 0x61A04, offset: 0x61A04, size: 0x8, addend: 0x0, symName: __ZNSt3__19make_pairB8ue170006INS_16reverse_iteratorIPN7tinyobj18joint_and_weight_tEEES5_EENS_4pairINS_18__unwrap_ref_decayIT_E4typeENS7_IT0_E4typeEEEOS8_OSB_, symObjAddr: 0x2FD30, symBinAddr: 0x100030670, symSize: 0x30 }
  - { offsetInCU: 0x61A53, offset: 0x61A53, size: 0x8, addend: 0x0, symName: __ZNSt3__114__rewrap_rangeB8ue170006INS_16reverse_iteratorIPN7tinyobj18joint_and_weight_tEEES5_S5_EET0_S6_T1_, symObjAddr: 0x2FD60, symBinAddr: 0x1000306A0, symSize: 0x60 }
  - { offsetInCU: 0x61AA8, offset: 0x61AA8, size: 0x8, addend: 0x0, symName: __ZNSt3__113__rewrap_iterB8ue170006INS_16reverse_iteratorIPN7tinyobj18joint_and_weight_tEEES5_NS_18__unwrap_iter_implIS5_Lb0EEEEET_S8_T0_, symObjAddr: 0x2FDC0, symBinAddr: 0x100030700, symSize: 0x70 }
  - { offsetInCU: 0x61B4D, offset: 0x61B4D, size: 0x8, addend: 0x0, symName: __ZNSt3__1neB8ue170006IPN7tinyobj18joint_and_weight_tES3_EEbRKNS_16reverse_iteratorIT_EERKNS4_IT0_EE, symObjAddr: 0x2FF30, symBinAddr: 0x100030870, symSize: 0x40 }
  - { offsetInCU: 0x61C05, offset: 0x61C05, size: 0x8, addend: 0x0, symName: __ZNSt3__110destroy_atB8ue170006IN7tinyobj18joint_and_weight_tELi0EEEvPT_, symObjAddr: 0x30290, symBinAddr: 0x100030BD0, symSize: 0x20 }
  - { offsetInCU: 0x61C3C, offset: 0x61C3C, size: 0x8, addend: 0x0, symName: __ZNSt3__112__destroy_atB8ue170006IN7tinyobj18joint_and_weight_tELi0EEEvPT_, symObjAddr: 0x302B0, symBinAddr: 0x100030BF0, symSize: 0x10 }
  - { offsetInCU: 0x61C73, offset: 0x61C73, size: 0x8, addend: 0x0, symName: __ZNSt3__112__to_addressB8ue170006IN7tinyobj13skin_weight_tEEEPT_S4_, symObjAddr: 0x30570, symBinAddr: 0x100030EB0, symSize: 0x10 }
  - { offsetInCU: 0x61CCF, offset: 0x61CCF, size: 0x8, addend: 0x0, symName: __ZNSt3__112construct_atB8ue170006IN7tinyobj13skin_weight_tEJRKS2_EPS2_EEPT_S7_DpOT0_, symObjAddr: 0x305E0, symBinAddr: 0x100030F20, symSize: 0x40 }
  - { offsetInCU: 0x61D41, offset: 0x61D41, size: 0x8, addend: 0x0, symName: __ZNSt3__122__make_exception_guardB8ue170006INS_6vectorIN7tinyobj18joint_and_weight_tENS_9allocatorIS3_EEE16__destroy_vectorEEENS_28__exception_guard_exceptionsIT_EES9_, symObjAddr: 0x308A0, symBinAddr: 0x1000311E0, symSize: 0x40 }
  - { offsetInCU: 0x61D76, offset: 0x61D76, size: 0x8, addend: 0x0, symName: __ZNSt3__130__uninitialized_allocator_copyB8ue170006INS_9allocatorIN7tinyobj18joint_and_weight_tEEEPS3_S5_S5_EET2_RT_T0_T1_S6_, symObjAddr: 0x30AF0, symBinAddr: 0x100031430, symSize: 0x80 }
  - { offsetInCU: 0x61E15, offset: 0x61E15, size: 0x8, addend: 0x0, symName: __ZNSt3__114__unwrap_rangeB8ue170006IPN7tinyobj18joint_and_weight_tES3_EEDaT_T0_, symObjAddr: 0x30B70, symBinAddr: 0x1000314B0, symSize: 0x40 }
  - { offsetInCU: 0x61E61, offset: 0x61E61, size: 0x8, addend: 0x0, symName: __ZNSt3__135__uninitialized_allocator_copy_implB8ue170006INS_9allocatorIN7tinyobj18joint_and_weight_tEEES3_S3_S3_LPv0EEEPT2_RT_PT0_SB_S7_, symObjAddr: 0x30BB0, symBinAddr: 0x1000314F0, symSize: 0x30 }
  - { offsetInCU: 0x61EE3, offset: 0x61EE3, size: 0x8, addend: 0x0, symName: __ZNSt3__113__unwrap_iterB8ue170006IPN7tinyobj18joint_and_weight_tENS_18__unwrap_iter_implIS3_Lb1EEELi0EEEDTclsrT0_8__unwrapclsr3stdE7declvalIT_EEEES7_, symObjAddr: 0x30BE0, symBinAddr: 0x100031520, symSize: 0x20 }
  - { offsetInCU: 0x61F27, offset: 0x61F27, size: 0x8, addend: 0x0, symName: __ZNSt3__113__rewrap_iterB8ue170006IPN7tinyobj18joint_and_weight_tES3_NS_18__unwrap_iter_implIS3_Lb1EEEEET_S6_T0_, symObjAddr: 0x30C00, symBinAddr: 0x100031540, symSize: 0x40 }
  - { offsetInCU: 0x620C7, offset: 0x620C7, size: 0x8, addend: 0x0, symName: __ZNSt3__14copyB8ue170006IPN7tinyobj18joint_and_weight_tES3_EET0_T_S5_S4_, symObjAddr: 0x30CF0, symBinAddr: 0x100031630, symSize: 0x40 }
  - { offsetInCU: 0x62121, offset: 0x62121, size: 0x8, addend: 0x0, symName: __ZNSt3__16__copyB8ue170006INS_17_ClassicAlgPolicyEPN7tinyobj18joint_and_weight_tES4_S4_EENS_4pairIT0_T2_EES6_T1_S7_, symObjAddr: 0x30D30, symBinAddr: 0x100031670, symSize: 0x40 }
  - { offsetInCU: 0x6218D, offset: 0x6218D, size: 0x8, addend: 0x0, symName: __ZNSt3__123__dispatch_copy_or_moveB8ue170006INS_17_ClassicAlgPolicyENS_11__copy_loopIS1_EENS_14__copy_trivialEPN7tinyobj18joint_and_weight_tES7_S7_EENS_4pairIT2_T4_EES9_T3_SA_, symObjAddr: 0x30D70, symBinAddr: 0x1000316B0, symSize: 0x40 }
  - { offsetInCU: 0x6220B, offset: 0x6220B, size: 0x8, addend: 0x0, symName: __ZNSt3__121__unwrap_and_dispatchB8ue170006INS_10__overloadINS_11__copy_loopINS_17_ClassicAlgPolicyEEENS_14__copy_trivialEEEPN7tinyobj18joint_and_weight_tES9_S9_Li0EEENS_4pairIT0_T2_EESB_T1_SC_, symObjAddr: 0x30DB0, symBinAddr: 0x1000316F0, symSize: 0xB0 }
  - { offsetInCU: 0x625B0, offset: 0x625B0, size: 0x8, addend: 0x0, symName: __ZNSt3__19make_pairB8ue170006IPN7tinyobj18joint_and_weight_tES3_EENS_4pairINS_18__unwrap_ref_decayIT_E4typeENS5_IT0_E4typeEEEOS6_OS9_, symObjAddr: 0x30EA0, symBinAddr: 0x1000317E0, symSize: 0x30 }
  - { offsetInCU: 0x625FF, offset: 0x625FF, size: 0x8, addend: 0x0, symName: __ZNSt3__114__rewrap_rangeB8ue170006IPN7tinyobj18joint_and_weight_tES3_S3_EET0_S4_T1_, symObjAddr: 0x30ED0, symBinAddr: 0x100031810, symSize: 0x30 }
  - { offsetInCU: 0x62654, offset: 0x62654, size: 0x8, addend: 0x0, symName: __ZNSt3__119__copy_trivial_implB8ue170006IN7tinyobj18joint_and_weight_tES2_EENS_4pairIPT_PT0_EES5_S5_S7_, symObjAddr: 0x30F00, symBinAddr: 0x100031840, symSize: 0x70 }
  - { offsetInCU: 0x626BC, offset: 0x626BC, size: 0x8, addend: 0x0, symName: __ZNSt3__119__constexpr_memmoveB8ue170006IN7tinyobj18joint_and_weight_tES2_Li0EEEPT_S4_PT0_NS_15__element_countE, symObjAddr: 0x30F70, symBinAddr: 0x1000318B0, symSize: 0x50 }
  - { offsetInCU: 0x6272A, offset: 0x6272A, size: 0x8, addend: 0x0, symName: __ZNSt3__19make_pairB8ue170006IRPN7tinyobj18joint_and_weight_tES3_EENS_4pairINS_18__unwrap_ref_decayIT_E4typeENS6_IT0_E4typeEEEOS7_OSA_, symObjAddr: 0x30FC0, symBinAddr: 0x100031900, symSize: 0x30 }
  - { offsetInCU: 0x627CC, offset: 0x627CC, size: 0x8, addend: 0x0, symName: __ZNSt3__119__allocate_at_leastB8ue170006INS_9allocatorIN7tinyobj13skin_weight_tEEEEENS_19__allocation_resultINS_16allocator_traitsIT_E7pointerEEERS7_m, symObjAddr: 0x31750, symBinAddr: 0x100032090, symSize: 0x40 }
  - { offsetInCU: 0x6280F, offset: 0x6280F, size: 0x8, addend: 0x0, symName: __ZNSt3__142__uninitialized_allocator_move_if_noexceptB8ue170006INS_9allocatorIN7tinyobj13skin_weight_tEEENS_16reverse_iteratorIPS3_EES7_S7_EET2_RT_T0_T1_S8_, symObjAddr: 0x31990, symBinAddr: 0x1000322D0, symSize: 0x180 }
  - { offsetInCU: 0x628B0, offset: 0x628B0, size: 0x8, addend: 0x0, symName: __ZNSt3__14swapB8ue170006IPN7tinyobj13skin_weight_tEEENS_9enable_ifIXaasr21is_move_constructibleIT_EE5valuesr18is_move_assignableIS5_EE5valueEvE4typeERS5_S8_, symObjAddr: 0x31B60, symBinAddr: 0x1000324A0, symSize: 0x40 }
  - { offsetInCU: 0x62901, offset: 0x62901, size: 0x8, addend: 0x0, symName: __ZNSt3__122__make_exception_guardB8ue170006INS_29_AllocatorDestroyRangeReverseINS_9allocatorIN7tinyobj13skin_weight_tEEENS_16reverse_iteratorIPS4_EEEEEENS_28__exception_guard_exceptionsIT_EESB_, symObjAddr: 0x31C90, symBinAddr: 0x1000325D0, symSize: 0x60 }
  - { offsetInCU: 0x62936, offset: 0x62936, size: 0x8, addend: 0x0, symName: __ZNSt3__1neB8ue170006IPN7tinyobj13skin_weight_tES3_EEbRKNS_16reverse_iteratorIT_EERKNS4_IT0_EE, symObjAddr: 0x31D30, symBinAddr: 0x100032670, symSize: 0x40 }
  - { offsetInCU: 0x62982, offset: 0x62982, size: 0x8, addend: 0x0, symName: __ZNSt3__112__to_addressB8ue170006INS_16reverse_iteratorIPN7tinyobj13skin_weight_tEEEvEEu7__decayIDTclsr19__to_address_helperIT_EE6__callclsr3stdE7declvalIRKS6_EEEEES8_, symObjAddr: 0x31DA0, symBinAddr: 0x1000326E0, symSize: 0x20 }
  - { offsetInCU: 0x629B8, offset: 0x629B8, size: 0x8, addend: 0x0, symName: __ZNSt3__112construct_atB8ue170006IN7tinyobj13skin_weight_tEJS2_EPS2_EEPT_S5_DpOT0_, symObjAddr: 0x31F00, symBinAddr: 0x100032840, symSize: 0x40 }
  - { offsetInCU: 0x62A53, offset: 0x62A53, size: 0x8, addend: 0x0, symName: __ZNSt3__14prevB8ue170006IPN7tinyobj13skin_weight_tEEENS_9enable_ifIXsr29__has_input_iterator_categoryIT_EE5valueES5_E4typeES5_NS_15iterator_traitsIS5_E15difference_typeE, symObjAddr: 0x32120, symBinAddr: 0x100032A60, symSize: 0x30 }
  - { offsetInCU: 0x62A96, offset: 0x62A96, size: 0x8, addend: 0x0, symName: __ZNSt3__19__advanceB8ue170006IPN7tinyobj13skin_weight_tEEEvRT_NS_15iterator_traitsIS4_E15difference_typeENS_26random_access_iterator_tagE, symObjAddr: 0x32180, symBinAddr: 0x100032AC0, symSize: 0x20 }
  - { offsetInCU: 0x62AE1, offset: 0x62AE1, size: 0x8, addend: 0x0, symName: __ZNSt3__119__allocator_destroyB8ue170006INS_9allocatorIN7tinyobj13skin_weight_tEEENS_16reverse_iteratorINS5_IPS3_EEEES8_EEvRT_T0_T1_, symObjAddr: 0x322D0, symBinAddr: 0x100032C10, symSize: 0x70 }
  - { offsetInCU: 0x62B44, offset: 0x62B44, size: 0x8, addend: 0x0, symName: __ZNSt3__1neB8ue170006INS_16reverse_iteratorIPN7tinyobj13skin_weight_tEEES5_EEbRKNS1_IT_EERKNS1_IT0_EE, symObjAddr: 0x32370, symBinAddr: 0x100032CB0, symSize: 0x50 }
  - { offsetInCU: 0x62B90, offset: 0x62B90, size: 0x8, addend: 0x0, symName: __ZNSt3__112__to_addressB8ue170006INS_16reverse_iteratorINS1_IPN7tinyobj13skin_weight_tEEEEEvEEu7__decayIDTclsr19__to_address_helperIT_EE6__callclsr3stdE7declvalIRKS7_EEEEES9_, symObjAddr: 0x323E0, symBinAddr: 0x100032D20, symSize: 0x20 }
  - { offsetInCU: 0x62BC6, offset: 0x62BC6, size: 0x8, addend: 0x0, symName: __ZNSt3__110destroy_atB8ue170006IN7tinyobj13skin_weight_tELi0EEEvPT_, symObjAddr: 0x32450, symBinAddr: 0x100032D90, symSize: 0x20 }
  - { offsetInCU: 0x62BFD, offset: 0x62BFD, size: 0x8, addend: 0x0, symName: __ZNSt3__112__destroy_atB8ue170006IN7tinyobj13skin_weight_tELi0EEEvPT_, symObjAddr: 0x32470, symBinAddr: 0x100032DB0, symSize: 0x20 }
  - { offsetInCU: 0x62C5D, offset: 0x62C5D, size: 0x8, addend: 0x0, symName: __ZNSt3__14prevB8ue170006INS_16reverse_iteratorIPN7tinyobj13skin_weight_tEEEEENS_9enable_ifIXsr29__has_input_iterator_categoryIT_EE5valueES7_E4typeES7_NS_15iterator_traitsIS7_E15difference_typeE, symObjAddr: 0x32520, symBinAddr: 0x100032E60, symSize: 0x40 }
  - { offsetInCU: 0x62CA0, offset: 0x62CA0, size: 0x8, addend: 0x0, symName: __ZNSt3__19__advanceB8ue170006INS_16reverse_iteratorIPN7tinyobj13skin_weight_tEEEEEvRT_NS_15iterator_traitsIS6_E15difference_typeENS_26random_access_iterator_tagE, symObjAddr: 0x32590, symBinAddr: 0x100032ED0, symSize: 0x30 }
  - { offsetInCU: 0x62CEA, offset: 0x62CEA, size: 0x8, addend: 0x0, symName: __ZNSt3__112__to_addressB8ue170006IN7tinyobj14vertex_index_tEEEPT_S4_, symObjAddr: 0x32F00, symBinAddr: 0x100033840, symSize: 0x10 }
  - { offsetInCU: 0x62D46, offset: 0x62D46, size: 0x8, addend: 0x0, symName: __ZNSt3__112construct_atB8ue170006IN7tinyobj14vertex_index_tEJRKS2_EPS2_EEPT_S7_DpOT0_, symObjAddr: 0x32F70, symBinAddr: 0x1000338B0, symSize: 0x30 }
  - { offsetInCU: 0x62DB8, offset: 0x62DB8, size: 0x8, addend: 0x0, symName: __ZNSt3__119__allocate_at_leastB8ue170006INS_9allocatorIN7tinyobj14vertex_index_tEEEEENS_19__allocation_resultINS_16allocator_traitsIT_E7pointerEEERS7_m, symObjAddr: 0x334C0, symBinAddr: 0x100033E00, symSize: 0x40 }
  - { offsetInCU: 0x62DFB, offset: 0x62DFB, size: 0x8, addend: 0x0, symName: __ZNSt3__142__uninitialized_allocator_move_if_noexceptB8ue170006INS_9allocatorIN7tinyobj14vertex_index_tEEENS_16reverse_iteratorIPS3_EES7_S3_vEET1_RT_T0_SB_S8_, symObjAddr: 0x33700, symBinAddr: 0x100034040, symSize: 0x70 }
  - { offsetInCU: 0x62E78, offset: 0x62E78, size: 0x8, addend: 0x0, symName: __ZNSt3__14swapB8ue170006IPN7tinyobj14vertex_index_tEEENS_9enable_ifIXaasr21is_move_constructibleIT_EE5valuesr18is_move_assignableIS5_EE5valueEvE4typeERS5_S8_, symObjAddr: 0x337C0, symBinAddr: 0x100034100, symSize: 0x40 }
  - { offsetInCU: 0x62EC9, offset: 0x62EC9, size: 0x8, addend: 0x0, symName: __ZNSt3__14moveB8ue170006INS_16reverse_iteratorIPN7tinyobj14vertex_index_tEEES5_EET0_T_S7_S6_, symObjAddr: 0x338E0, symBinAddr: 0x100034220, symSize: 0x80 }
  - { offsetInCU: 0x62F23, offset: 0x62F23, size: 0x8, addend: 0x0, symName: __ZNSt3__16__moveB8ue170006INS_17_ClassicAlgPolicyENS_16reverse_iteratorIPN7tinyobj14vertex_index_tEEES6_S6_EENS_4pairIT0_T2_EES8_T1_S9_, symObjAddr: 0x33960, symBinAddr: 0x1000342A0, symSize: 0x90 }
  - { offsetInCU: 0x62F8F, offset: 0x62F8F, size: 0x8, addend: 0x0, symName: __ZNSt3__123__dispatch_copy_or_moveB8ue170006INS_17_ClassicAlgPolicyENS_11__move_loopIS1_EENS_14__move_trivialENS_16reverse_iteratorIPN7tinyobj14vertex_index_tEEES9_S9_EENS_4pairIT2_T4_EESB_T3_SC_, symObjAddr: 0x339F0, symBinAddr: 0x100034330, symSize: 0x90 }
  - { offsetInCU: 0x6300D, offset: 0x6300D, size: 0x8, addend: 0x0, symName: __ZNSt3__121__unwrap_and_dispatchB8ue170006INS_10__overloadINS_11__move_loopINS_17_ClassicAlgPolicyEEENS_14__move_trivialEEENS_16reverse_iteratorIPN7tinyobj14vertex_index_tEEESB_SB_Li0EEENS_4pairIT0_T2_EESD_T1_SE_, symObjAddr: 0x33A80, symBinAddr: 0x1000343C0, symSize: 0x210 }
  - { offsetInCU: 0x6309C, offset: 0x6309C, size: 0x8, addend: 0x0, symName: __ZNSt3__114__unwrap_rangeB8ue170006INS_16reverse_iteratorIPN7tinyobj14vertex_index_tEEES5_EEDaT_T0_, symObjAddr: 0x33C90, symBinAddr: 0x1000345D0, symSize: 0x60 }
  - { offsetInCU: 0x631BC, offset: 0x631BC, size: 0x8, addend: 0x0, symName: __ZNSt3__113__unwrap_iterB8ue170006INS_16reverse_iteratorIPN7tinyobj14vertex_index_tEEENS_18__unwrap_iter_implIS5_Lb0EEELi0EEEDTclsrT0_8__unwrapclsr3stdE7declvalIT_EEEES9_, symObjAddr: 0x33D90, symBinAddr: 0x1000346D0, symSize: 0x40 }
  - { offsetInCU: 0x63200, offset: 0x63200, size: 0x8, addend: 0x0, symName: __ZNSt3__19make_pairB8ue170006INS_16reverse_iteratorIPN7tinyobj14vertex_index_tEEES5_EENS_4pairINS_18__unwrap_ref_decayIT_E4typeENS7_IT0_E4typeEEEOS8_OSB_, symObjAddr: 0x33DD0, symBinAddr: 0x100034710, symSize: 0x30 }
  - { offsetInCU: 0x6324F, offset: 0x6324F, size: 0x8, addend: 0x0, symName: __ZNSt3__114__rewrap_rangeB8ue170006INS_16reverse_iteratorIPN7tinyobj14vertex_index_tEEES5_S5_EET0_S6_T1_, symObjAddr: 0x33E00, symBinAddr: 0x100034740, symSize: 0x60 }
  - { offsetInCU: 0x632A4, offset: 0x632A4, size: 0x8, addend: 0x0, symName: __ZNSt3__113__rewrap_iterB8ue170006INS_16reverse_iteratorIPN7tinyobj14vertex_index_tEEES5_NS_18__unwrap_iter_implIS5_Lb0EEEEET_S8_T0_, symObjAddr: 0x33E60, symBinAddr: 0x1000347A0, symSize: 0x70 }
  - { offsetInCU: 0x63349, offset: 0x63349, size: 0x8, addend: 0x0, symName: __ZNSt3__1neB8ue170006IPN7tinyobj14vertex_index_tES3_EEbRKNS_16reverse_iteratorIT_EERKNS4_IT0_EE, symObjAddr: 0x33FD0, symBinAddr: 0x100034910, symSize: 0x40 }
  - { offsetInCU: 0x63401, offset: 0x63401, size: 0x8, addend: 0x0, symName: __ZNSt3__110destroy_atB8ue170006IN7tinyobj14vertex_index_tELi0EEEvPT_, symObjAddr: 0x34340, symBinAddr: 0x100034C80, symSize: 0x20 }
  - { offsetInCU: 0x63438, offset: 0x63438, size: 0x8, addend: 0x0, symName: __ZNSt3__112__destroy_atB8ue170006IN7tinyobj14vertex_index_tELi0EEEvPT_, symObjAddr: 0x34360, symBinAddr: 0x100034CA0, symSize: 0x10 }
  - { offsetInCU: 0x6346F, offset: 0x6346F, size: 0x8, addend: 0x0, symName: __ZNSt3__112__to_addressB8ue170006IN7tinyobj8__line_tEEEPT_S4_, symObjAddr: 0x34630, symBinAddr: 0x100034F70, symSize: 0x10 }
  - { offsetInCU: 0x634CB, offset: 0x634CB, size: 0x8, addend: 0x0, symName: __ZNSt3__112construct_atB8ue170006IN7tinyobj8__line_tEJRKS2_EPS2_EEPT_S7_DpOT0_, symObjAddr: 0x346A0, symBinAddr: 0x100034FE0, symSize: 0x40 }
  - { offsetInCU: 0x6353D, offset: 0x6353D, size: 0x8, addend: 0x0, symName: __ZNSt3__122__make_exception_guardB8ue170006INS_6vectorIN7tinyobj14vertex_index_tENS_9allocatorIS3_EEE16__destroy_vectorEEENS_28__exception_guard_exceptionsIT_EES9_, symObjAddr: 0x34950, symBinAddr: 0x100035290, symSize: 0x40 }
  - { offsetInCU: 0x63572, offset: 0x63572, size: 0x8, addend: 0x0, symName: __ZNSt3__130__uninitialized_allocator_copyB8ue170006INS_9allocatorIN7tinyobj14vertex_index_tEEEPS3_S5_S5_EET2_RT_T0_T1_S6_, symObjAddr: 0x34BA0, symBinAddr: 0x1000354E0, symSize: 0x80 }
  - { offsetInCU: 0x63611, offset: 0x63611, size: 0x8, addend: 0x0, symName: __ZNSt3__114__unwrap_rangeB8ue170006IPN7tinyobj14vertex_index_tES3_EEDaT_T0_, symObjAddr: 0x34C20, symBinAddr: 0x100035560, symSize: 0x40 }
  - { offsetInCU: 0x6365D, offset: 0x6365D, size: 0x8, addend: 0x0, symName: __ZNSt3__135__uninitialized_allocator_copy_implB8ue170006INS_9allocatorIN7tinyobj14vertex_index_tEEES3_S3_S3_LPv0EEEPT2_RT_PT0_SB_S7_, symObjAddr: 0x34C60, symBinAddr: 0x1000355A0, symSize: 0x30 }
  - { offsetInCU: 0x636DF, offset: 0x636DF, size: 0x8, addend: 0x0, symName: __ZNSt3__113__unwrap_iterB8ue170006IPN7tinyobj14vertex_index_tENS_18__unwrap_iter_implIS3_Lb1EEELi0EEEDTclsrT0_8__unwrapclsr3stdE7declvalIT_EEEES7_, symObjAddr: 0x34C90, symBinAddr: 0x1000355D0, symSize: 0x20 }
  - { offsetInCU: 0x63723, offset: 0x63723, size: 0x8, addend: 0x0, symName: __ZNSt3__113__rewrap_iterB8ue170006IPN7tinyobj14vertex_index_tES3_NS_18__unwrap_iter_implIS3_Lb1EEEEET_S6_T0_, symObjAddr: 0x34CB0, symBinAddr: 0x1000355F0, symSize: 0x40 }
  - { offsetInCU: 0x638C3, offset: 0x638C3, size: 0x8, addend: 0x0, symName: __ZNSt3__14copyB8ue170006IPN7tinyobj14vertex_index_tES3_EET0_T_S5_S4_, symObjAddr: 0x34DA0, symBinAddr: 0x1000356E0, symSize: 0x40 }
  - { offsetInCU: 0x6391D, offset: 0x6391D, size: 0x8, addend: 0x0, symName: __ZNSt3__16__copyB8ue170006INS_17_ClassicAlgPolicyEPN7tinyobj14vertex_index_tES4_S4_EENS_4pairIT0_T2_EES6_T1_S7_, symObjAddr: 0x34DE0, symBinAddr: 0x100035720, symSize: 0x40 }
  - { offsetInCU: 0x63989, offset: 0x63989, size: 0x8, addend: 0x0, symName: __ZNSt3__123__dispatch_copy_or_moveB8ue170006INS_17_ClassicAlgPolicyENS_11__copy_loopIS1_EENS_14__copy_trivialEPN7tinyobj14vertex_index_tES7_S7_EENS_4pairIT2_T4_EES9_T3_SA_, symObjAddr: 0x34E20, symBinAddr: 0x100035760, symSize: 0x40 }
  - { offsetInCU: 0x63A07, offset: 0x63A07, size: 0x8, addend: 0x0, symName: __ZNSt3__121__unwrap_and_dispatchB8ue170006INS_10__overloadINS_11__copy_loopINS_17_ClassicAlgPolicyEEENS_14__copy_trivialEEEPN7tinyobj14vertex_index_tES9_S9_Li0EEENS_4pairIT0_T2_EESB_T1_SC_, symObjAddr: 0x34E60, symBinAddr: 0x1000357A0, symSize: 0xB0 }
  - { offsetInCU: 0x63A96, offset: 0x63A96, size: 0x8, addend: 0x0, symName: __ZNSt3__19make_pairB8ue170006IPN7tinyobj14vertex_index_tES3_EENS_4pairINS_18__unwrap_ref_decayIT_E4typeENS5_IT0_E4typeEEEOS6_OS9_, symObjAddr: 0x34F50, symBinAddr: 0x100035890, symSize: 0x30 }
  - { offsetInCU: 0x63AE5, offset: 0x63AE5, size: 0x8, addend: 0x0, symName: __ZNSt3__114__rewrap_rangeB8ue170006IPN7tinyobj14vertex_index_tES3_S3_EET0_S4_T1_, symObjAddr: 0x34F80, symBinAddr: 0x1000358C0, symSize: 0x30 }
  - { offsetInCU: 0x63B3A, offset: 0x63B3A, size: 0x8, addend: 0x0, symName: __ZNSt3__119__copy_trivial_implB8ue170006IN7tinyobj14vertex_index_tES2_EENS_4pairIPT_PT0_EES5_S5_S7_, symObjAddr: 0x34FB0, symBinAddr: 0x1000358F0, symSize: 0x80 }
  - { offsetInCU: 0x63BA2, offset: 0x63BA2, size: 0x8, addend: 0x0, symName: __ZNSt3__119__constexpr_memmoveB8ue170006IN7tinyobj14vertex_index_tES2_Li0EEEPT_S4_PT0_NS_15__element_countE, symObjAddr: 0x35030, symBinAddr: 0x100035970, symSize: 0x50 }
  - { offsetInCU: 0x63C10, offset: 0x63C10, size: 0x8, addend: 0x0, symName: __ZNSt3__19make_pairB8ue170006IRPN7tinyobj14vertex_index_tES3_EENS_4pairINS_18__unwrap_ref_decayIT_E4typeENS6_IT0_E4typeEEEOS7_OSA_, symObjAddr: 0x35080, symBinAddr: 0x1000359C0, symSize: 0x30 }
  - { offsetInCU: 0x63CB2, offset: 0x63CB2, size: 0x8, addend: 0x0, symName: __ZNSt3__119__allocate_at_leastB8ue170006INS_9allocatorIN7tinyobj8__line_tEEEEENS_19__allocation_resultINS_16allocator_traitsIT_E7pointerEEERS7_m, symObjAddr: 0x35840, symBinAddr: 0x100036180, symSize: 0x40 }
  - { offsetInCU: 0x63CF5, offset: 0x63CF5, size: 0x8, addend: 0x0, symName: __ZNSt3__142__uninitialized_allocator_move_if_noexceptB8ue170006INS_9allocatorIN7tinyobj8__line_tEEENS_16reverse_iteratorIPS3_EES7_S7_EET2_RT_T0_T1_S8_, symObjAddr: 0x35A80, symBinAddr: 0x1000363C0, symSize: 0x180 }
  - { offsetInCU: 0x63D96, offset: 0x63D96, size: 0x8, addend: 0x0, symName: __ZNSt3__14swapB8ue170006IPN7tinyobj8__line_tEEENS_9enable_ifIXaasr21is_move_constructibleIT_EE5valuesr18is_move_assignableIS5_EE5valueEvE4typeERS5_S8_, symObjAddr: 0x35C50, symBinAddr: 0x100036590, symSize: 0x40 }
  - { offsetInCU: 0x63DE7, offset: 0x63DE7, size: 0x8, addend: 0x0, symName: __ZNSt3__122__make_exception_guardB8ue170006INS_29_AllocatorDestroyRangeReverseINS_9allocatorIN7tinyobj8__line_tEEENS_16reverse_iteratorIPS4_EEEEEENS_28__exception_guard_exceptionsIT_EESB_, symObjAddr: 0x35D70, symBinAddr: 0x1000366B0, symSize: 0x60 }
  - { offsetInCU: 0x63E1C, offset: 0x63E1C, size: 0x8, addend: 0x0, symName: __ZNSt3__1neB8ue170006IPN7tinyobj8__line_tES3_EEbRKNS_16reverse_iteratorIT_EERKNS4_IT0_EE, symObjAddr: 0x35E10, symBinAddr: 0x100036750, symSize: 0x40 }
  - { offsetInCU: 0x63E68, offset: 0x63E68, size: 0x8, addend: 0x0, symName: __ZNSt3__112__to_addressB8ue170006INS_16reverse_iteratorIPN7tinyobj8__line_tEEEvEEu7__decayIDTclsr19__to_address_helperIT_EE6__callclsr3stdE7declvalIRKS6_EEEEES8_, symObjAddr: 0x35E80, symBinAddr: 0x1000367C0, symSize: 0x20 }
  - { offsetInCU: 0x63E9E, offset: 0x63E9E, size: 0x8, addend: 0x0, symName: __ZNSt3__112construct_atB8ue170006IN7tinyobj8__line_tEJS2_EPS2_EEPT_S5_DpOT0_, symObjAddr: 0x35FE0, symBinAddr: 0x100036920, symSize: 0x40 }
  - { offsetInCU: 0x63F39, offset: 0x63F39, size: 0x8, addend: 0x0, symName: __ZNSt3__14prevB8ue170006IPN7tinyobj8__line_tEEENS_9enable_ifIXsr29__has_input_iterator_categoryIT_EE5valueES5_E4typeES5_NS_15iterator_traitsIS5_E15difference_typeE, symObjAddr: 0x361F0, symBinAddr: 0x100036B30, symSize: 0x30 }
  - { offsetInCU: 0x63F7C, offset: 0x63F7C, size: 0x8, addend: 0x0, symName: __ZNSt3__19__advanceB8ue170006IPN7tinyobj8__line_tEEEvRT_NS_15iterator_traitsIS4_E15difference_typeENS_26random_access_iterator_tagE, symObjAddr: 0x36250, symBinAddr: 0x100036B90, symSize: 0x20 }
  - { offsetInCU: 0x63FC7, offset: 0x63FC7, size: 0x8, addend: 0x0, symName: __ZNSt3__119__allocator_destroyB8ue170006INS_9allocatorIN7tinyobj8__line_tEEENS_16reverse_iteratorINS5_IPS3_EEEES8_EEvRT_T0_T1_, symObjAddr: 0x363A0, symBinAddr: 0x100036CE0, symSize: 0x70 }
  - { offsetInCU: 0x6402A, offset: 0x6402A, size: 0x8, addend: 0x0, symName: __ZNSt3__1neB8ue170006INS_16reverse_iteratorIPN7tinyobj8__line_tEEES5_EEbRKNS1_IT_EERKNS1_IT0_EE, symObjAddr: 0x36440, symBinAddr: 0x100036D80, symSize: 0x50 }
  - { offsetInCU: 0x64076, offset: 0x64076, size: 0x8, addend: 0x0, symName: __ZNSt3__112__to_addressB8ue170006INS_16reverse_iteratorINS1_IPN7tinyobj8__line_tEEEEEvEEu7__decayIDTclsr19__to_address_helperIT_EE6__callclsr3stdE7declvalIRKS7_EEEEES9_, symObjAddr: 0x364B0, symBinAddr: 0x100036DF0, symSize: 0x20 }
  - { offsetInCU: 0x640AC, offset: 0x640AC, size: 0x8, addend: 0x0, symName: __ZNSt3__110destroy_atB8ue170006IN7tinyobj8__line_tELi0EEEvPT_, symObjAddr: 0x36520, symBinAddr: 0x100036E60, symSize: 0x20 }
  - { offsetInCU: 0x640E3, offset: 0x640E3, size: 0x8, addend: 0x0, symName: __ZNSt3__112__destroy_atB8ue170006IN7tinyobj8__line_tELi0EEEvPT_, symObjAddr: 0x36540, symBinAddr: 0x100036E80, symSize: 0x20 }
  - { offsetInCU: 0x64143, offset: 0x64143, size: 0x8, addend: 0x0, symName: __ZNSt3__14prevB8ue170006INS_16reverse_iteratorIPN7tinyobj8__line_tEEEEENS_9enable_ifIXsr29__has_input_iterator_categoryIT_EE5valueES7_E4typeES7_NS_15iterator_traitsIS7_E15difference_typeE, symObjAddr: 0x365F0, symBinAddr: 0x100036F30, symSize: 0x40 }
  - { offsetInCU: 0x64186, offset: 0x64186, size: 0x8, addend: 0x0, symName: __ZNSt3__19__advanceB8ue170006INS_16reverse_iteratorIPN7tinyobj8__line_tEEEEEvRT_NS_15iterator_traitsIS6_E15difference_typeENS_26random_access_iterator_tagE, symObjAddr: 0x36660, symBinAddr: 0x100036FA0, symSize: 0x30 }
  - { offsetInCU: 0x641D0, offset: 0x641D0, size: 0x8, addend: 0x0, symName: __ZNSt3__112__to_addressB8ue170006IN7tinyobj10__points_tEEEPT_S4_, symObjAddr: 0x36C60, symBinAddr: 0x1000375A0, symSize: 0x10 }
  - { offsetInCU: 0x6422C, offset: 0x6422C, size: 0x8, addend: 0x0, symName: __ZNSt3__112construct_atB8ue170006IN7tinyobj10__points_tEJRKS2_EPS2_EEPT_S7_DpOT0_, symObjAddr: 0x36CD0, symBinAddr: 0x100037610, symSize: 0x40 }
  - { offsetInCU: 0x6429E, offset: 0x6429E, size: 0x8, addend: 0x0, symName: __ZNSt3__119__allocate_at_leastB8ue170006INS_9allocatorIN7tinyobj10__points_tEEEEENS_19__allocation_resultINS_16allocator_traitsIT_E7pointerEEERS7_m, symObjAddr: 0x37290, symBinAddr: 0x100037BD0, symSize: 0x40 }
  - { offsetInCU: 0x642E1, offset: 0x642E1, size: 0x8, addend: 0x0, symName: __ZNSt3__142__uninitialized_allocator_move_if_noexceptB8ue170006INS_9allocatorIN7tinyobj10__points_tEEENS_16reverse_iteratorIPS3_EES7_S7_EET2_RT_T0_T1_S8_, symObjAddr: 0x374D0, symBinAddr: 0x100037E10, symSize: 0x180 }
  - { offsetInCU: 0x64382, offset: 0x64382, size: 0x8, addend: 0x0, symName: __ZNSt3__14swapB8ue170006IPN7tinyobj10__points_tEEENS_9enable_ifIXaasr21is_move_constructibleIT_EE5valuesr18is_move_assignableIS5_EE5valueEvE4typeERS5_S8_, symObjAddr: 0x376A0, symBinAddr: 0x100037FE0, symSize: 0x40 }
  - { offsetInCU: 0x643D3, offset: 0x643D3, size: 0x8, addend: 0x0, symName: __ZNSt3__122__make_exception_guardB8ue170006INS_29_AllocatorDestroyRangeReverseINS_9allocatorIN7tinyobj10__points_tEEENS_16reverse_iteratorIPS4_EEEEEENS_28__exception_guard_exceptionsIT_EESB_, symObjAddr: 0x377C0, symBinAddr: 0x100038100, symSize: 0x60 }
  - { offsetInCU: 0x64408, offset: 0x64408, size: 0x8, addend: 0x0, symName: __ZNSt3__1neB8ue170006IPN7tinyobj10__points_tES3_EEbRKNS_16reverse_iteratorIT_EERKNS4_IT0_EE, symObjAddr: 0x37860, symBinAddr: 0x1000381A0, symSize: 0x40 }
  - { offsetInCU: 0x64454, offset: 0x64454, size: 0x8, addend: 0x0, symName: __ZNSt3__112__to_addressB8ue170006INS_16reverse_iteratorIPN7tinyobj10__points_tEEEvEEu7__decayIDTclsr19__to_address_helperIT_EE6__callclsr3stdE7declvalIRKS6_EEEEES8_, symObjAddr: 0x378D0, symBinAddr: 0x100038210, symSize: 0x20 }
  - { offsetInCU: 0x6448A, offset: 0x6448A, size: 0x8, addend: 0x0, symName: __ZNSt3__112construct_atB8ue170006IN7tinyobj10__points_tEJS2_EPS2_EEPT_S5_DpOT0_, symObjAddr: 0x37A30, symBinAddr: 0x100038370, symSize: 0x40 }
  - { offsetInCU: 0x64525, offset: 0x64525, size: 0x8, addend: 0x0, symName: __ZNSt3__14prevB8ue170006IPN7tinyobj10__points_tEEENS_9enable_ifIXsr29__has_input_iterator_categoryIT_EE5valueES5_E4typeES5_NS_15iterator_traitsIS5_E15difference_typeE, symObjAddr: 0x37B40, symBinAddr: 0x100038480, symSize: 0x30 }
  - { offsetInCU: 0x64568, offset: 0x64568, size: 0x8, addend: 0x0, symName: __ZNSt3__19__advanceB8ue170006IPN7tinyobj10__points_tEEEvRT_NS_15iterator_traitsIS4_E15difference_typeENS_26random_access_iterator_tagE, symObjAddr: 0x37BA0, symBinAddr: 0x1000384E0, symSize: 0x20 }
  - { offsetInCU: 0x645B3, offset: 0x645B3, size: 0x8, addend: 0x0, symName: __ZNSt3__119__allocator_destroyB8ue170006INS_9allocatorIN7tinyobj10__points_tEEENS_16reverse_iteratorINS5_IPS3_EEEES8_EEvRT_T0_T1_, symObjAddr: 0x37CF0, symBinAddr: 0x100038630, symSize: 0x70 }
  - { offsetInCU: 0x64616, offset: 0x64616, size: 0x8, addend: 0x0, symName: __ZNSt3__1neB8ue170006INS_16reverse_iteratorIPN7tinyobj10__points_tEEES5_EEbRKNS1_IT_EERKNS1_IT0_EE, symObjAddr: 0x37D90, symBinAddr: 0x1000386D0, symSize: 0x50 }
  - { offsetInCU: 0x64662, offset: 0x64662, size: 0x8, addend: 0x0, symName: __ZNSt3__112__to_addressB8ue170006INS_16reverse_iteratorINS1_IPN7tinyobj10__points_tEEEEEvEEu7__decayIDTclsr19__to_address_helperIT_EE6__callclsr3stdE7declvalIRKS7_EEEEES9_, symObjAddr: 0x37E00, symBinAddr: 0x100038740, symSize: 0x20 }
  - { offsetInCU: 0x64698, offset: 0x64698, size: 0x8, addend: 0x0, symName: __ZNSt3__110destroy_atB8ue170006IN7tinyobj10__points_tELi0EEEvPT_, symObjAddr: 0x37E70, symBinAddr: 0x1000387B0, symSize: 0x20 }
  - { offsetInCU: 0x646CF, offset: 0x646CF, size: 0x8, addend: 0x0, symName: __ZNSt3__112__destroy_atB8ue170006IN7tinyobj10__points_tELi0EEEvPT_, symObjAddr: 0x37E90, symBinAddr: 0x1000387D0, symSize: 0x20 }
  - { offsetInCU: 0x6472F, offset: 0x6472F, size: 0x8, addend: 0x0, symName: __ZNSt3__14prevB8ue170006INS_16reverse_iteratorIPN7tinyobj10__points_tEEEEENS_9enable_ifIXsr29__has_input_iterator_categoryIT_EE5valueES7_E4typeES7_NS_15iterator_traitsIS7_E15difference_typeE, symObjAddr: 0x37F40, symBinAddr: 0x100038880, symSize: 0x40 }
  - { offsetInCU: 0x64772, offset: 0x64772, size: 0x8, addend: 0x0, symName: __ZNSt3__19__advanceB8ue170006INS_16reverse_iteratorIPN7tinyobj10__points_tEEEEEvRT_NS_15iterator_traitsIS6_E15difference_typeENS_26random_access_iterator_tagE, symObjAddr: 0x37FB0, symBinAddr: 0x1000388F0, symSize: 0x30 }
  - { offsetInCU: 0x647BC, offset: 0x647BC, size: 0x8, addend: 0x0, symName: __ZNSt3__112__to_addressB8ue170006IN7tinyobj6face_tEEEPT_S4_, symObjAddr: 0x38560, symBinAddr: 0x100038EA0, symSize: 0x10 }
  - { offsetInCU: 0x64818, offset: 0x64818, size: 0x8, addend: 0x0, symName: __ZNSt3__112construct_atB8ue170006IN7tinyobj6face_tEJRKS2_EPS2_EEPT_S7_DpOT0_, symObjAddr: 0x385D0, symBinAddr: 0x100038F10, symSize: 0x40 }
  - { offsetInCU: 0x6488A, offset: 0x6488A, size: 0x8, addend: 0x0, symName: __ZNSt3__119__allocate_at_leastB8ue170006INS_9allocatorIN7tinyobj6face_tEEEEENS_19__allocation_resultINS_16allocator_traitsIT_E7pointerEEERS7_m, symObjAddr: 0x38B80, symBinAddr: 0x1000394C0, symSize: 0x40 }
  - { offsetInCU: 0x648CD, offset: 0x648CD, size: 0x8, addend: 0x0, symName: __ZNSt3__142__uninitialized_allocator_move_if_noexceptB8ue170006INS_9allocatorIN7tinyobj6face_tEEENS_16reverse_iteratorIPS3_EES7_S7_EET2_RT_T0_T1_S8_, symObjAddr: 0x38DC0, symBinAddr: 0x100039700, symSize: 0x180 }
  - { offsetInCU: 0x6496E, offset: 0x6496E, size: 0x8, addend: 0x0, symName: __ZNSt3__14swapB8ue170006IPN7tinyobj6face_tEEENS_9enable_ifIXaasr21is_move_constructibleIT_EE5valuesr18is_move_assignableIS5_EE5valueEvE4typeERS5_S8_, symObjAddr: 0x38F90, symBinAddr: 0x1000398D0, symSize: 0x40 }
  - { offsetInCU: 0x649BF, offset: 0x649BF, size: 0x8, addend: 0x0, symName: __ZNSt3__122__make_exception_guardB8ue170006INS_29_AllocatorDestroyRangeReverseINS_9allocatorIN7tinyobj6face_tEEENS_16reverse_iteratorIPS4_EEEEEENS_28__exception_guard_exceptionsIT_EESB_, symObjAddr: 0x390C0, symBinAddr: 0x100039A00, symSize: 0x60 }
  - { offsetInCU: 0x649F4, offset: 0x649F4, size: 0x8, addend: 0x0, symName: __ZNSt3__1neB8ue170006IPN7tinyobj6face_tES3_EEbRKNS_16reverse_iteratorIT_EERKNS4_IT0_EE, symObjAddr: 0x39160, symBinAddr: 0x100039AA0, symSize: 0x40 }
  - { offsetInCU: 0x64A40, offset: 0x64A40, size: 0x8, addend: 0x0, symName: __ZNSt3__112__to_addressB8ue170006INS_16reverse_iteratorIPN7tinyobj6face_tEEEvEEu7__decayIDTclsr19__to_address_helperIT_EE6__callclsr3stdE7declvalIRKS6_EEEEES8_, symObjAddr: 0x391D0, symBinAddr: 0x100039B10, symSize: 0x20 }
  - { offsetInCU: 0x64A76, offset: 0x64A76, size: 0x8, addend: 0x0, symName: __ZNSt3__112construct_atB8ue170006IN7tinyobj6face_tEJS2_EPS2_EEPT_S5_DpOT0_, symObjAddr: 0x39330, symBinAddr: 0x100039C70, symSize: 0x40 }
  - { offsetInCU: 0x64B11, offset: 0x64B11, size: 0x8, addend: 0x0, symName: __ZNSt3__14prevB8ue170006IPN7tinyobj6face_tEEENS_9enable_ifIXsr29__has_input_iterator_categoryIT_EE5valueES5_E4typeES5_NS_15iterator_traitsIS5_E15difference_typeE, symObjAddr: 0x39450, symBinAddr: 0x100039D90, symSize: 0x30 }
  - { offsetInCU: 0x64B54, offset: 0x64B54, size: 0x8, addend: 0x0, symName: __ZNSt3__19__advanceB8ue170006IPN7tinyobj6face_tEEEvRT_NS_15iterator_traitsIS4_E15difference_typeENS_26random_access_iterator_tagE, symObjAddr: 0x394B0, symBinAddr: 0x100039DF0, symSize: 0x20 }
  - { offsetInCU: 0x64B9F, offset: 0x64B9F, size: 0x8, addend: 0x0, symName: __ZNSt3__119__allocator_destroyB8ue170006INS_9allocatorIN7tinyobj6face_tEEENS_16reverse_iteratorINS5_IPS3_EEEES8_EEvRT_T0_T1_, symObjAddr: 0x39600, symBinAddr: 0x100039F40, symSize: 0x70 }
  - { offsetInCU: 0x64C02, offset: 0x64C02, size: 0x8, addend: 0x0, symName: __ZNSt3__1neB8ue170006INS_16reverse_iteratorIPN7tinyobj6face_tEEES5_EEbRKNS1_IT_EERKNS1_IT0_EE, symObjAddr: 0x396A0, symBinAddr: 0x100039FE0, symSize: 0x50 }
  - { offsetInCU: 0x64C4E, offset: 0x64C4E, size: 0x8, addend: 0x0, symName: __ZNSt3__112__to_addressB8ue170006INS_16reverse_iteratorINS1_IPN7tinyobj6face_tEEEEEvEEu7__decayIDTclsr19__to_address_helperIT_EE6__callclsr3stdE7declvalIRKS7_EEEEES9_, symObjAddr: 0x39710, symBinAddr: 0x10003A050, symSize: 0x20 }
  - { offsetInCU: 0x64C84, offset: 0x64C84, size: 0x8, addend: 0x0, symName: __ZNSt3__110destroy_atB8ue170006IN7tinyobj6face_tELi0EEEvPT_, symObjAddr: 0x39780, symBinAddr: 0x10003A0C0, symSize: 0x20 }
  - { offsetInCU: 0x64CBB, offset: 0x64CBB, size: 0x8, addend: 0x0, symName: __ZNSt3__112__destroy_atB8ue170006IN7tinyobj6face_tELi0EEEvPT_, symObjAddr: 0x397A0, symBinAddr: 0x10003A0E0, symSize: 0x20 }
  - { offsetInCU: 0x64D1B, offset: 0x64D1B, size: 0x8, addend: 0x0, symName: __ZNSt3__14prevB8ue170006INS_16reverse_iteratorIPN7tinyobj6face_tEEEEENS_9enable_ifIXsr29__has_input_iterator_categoryIT_EE5valueES7_E4typeES7_NS_15iterator_traitsIS7_E15difference_typeE, symObjAddr: 0x39850, symBinAddr: 0x10003A190, symSize: 0x40 }
  - { offsetInCU: 0x64D5E, offset: 0x64D5E, size: 0x8, addend: 0x0, symName: __ZNSt3__19__advanceB8ue170006INS_16reverse_iteratorIPN7tinyobj6face_tEEEEEvRT_NS_15iterator_traitsIS6_E15difference_typeENS_26random_access_iterator_tagE, symObjAddr: 0x398C0, symBinAddr: 0x10003A200, symSize: 0x30 }
  - { offsetInCU: 0x65199, offset: 0x65199, size: 0x8, addend: 0x0, symName: __ZNSt3__112__to_addressB8ue170006IjEEPT_S2_, symObjAddr: 0x3A280, symBinAddr: 0x10003ABC0, symSize: 0x10 }
  - { offsetInCU: 0x651F5, offset: 0x651F5, size: 0x8, addend: 0x0, symName: __ZNSt3__112construct_atB8ue170006IjJjEPjEEPT_S3_DpOT0_, symObjAddr: 0x3A2F0, symBinAddr: 0x10003AC30, symSize: 0x30 }
  - { offsetInCU: 0x65267, offset: 0x65267, size: 0x8, addend: 0x0, symName: __ZNSt3__119__allocate_at_leastB8ue170006INS_9allocatorIjEEEENS_19__allocation_resultINS_16allocator_traitsIT_E7pointerEEERS5_m, symObjAddr: 0x3A800, symBinAddr: 0x10003B140, symSize: 0x40 }
  - { offsetInCU: 0x652AA, offset: 0x652AA, size: 0x8, addend: 0x0, symName: __ZNSt3__142__uninitialized_allocator_move_if_noexceptB8ue170006INS_9allocatorIjEENS_16reverse_iteratorIPjEES5_jvEET1_RT_T0_S9_S6_, symObjAddr: 0x3AA60, symBinAddr: 0x10003B3A0, symSize: 0x70 }
  - { offsetInCU: 0x65327, offset: 0x65327, size: 0x8, addend: 0x0, symName: __ZNSt3__14swapB8ue170006IPjEENS_9enable_ifIXaasr21is_move_constructibleIT_EE5valuesr18is_move_assignableIS3_EE5valueEvE4typeERS3_S6_, symObjAddr: 0x3AB20, symBinAddr: 0x10003B460, symSize: 0x40 }
  - { offsetInCU: 0x65378, offset: 0x65378, size: 0x8, addend: 0x0, symName: __ZNSt3__14moveB8ue170006INS_16reverse_iteratorIPjEES3_EET0_T_S5_S4_, symObjAddr: 0x3AC30, symBinAddr: 0x10003B570, symSize: 0x80 }
  - { offsetInCU: 0x653D2, offset: 0x653D2, size: 0x8, addend: 0x0, symName: __ZNSt3__16__moveB8ue170006INS_17_ClassicAlgPolicyENS_16reverse_iteratorIPjEES4_S4_EENS_4pairIT0_T2_EES6_T1_S7_, symObjAddr: 0x3ACB0, symBinAddr: 0x10003B5F0, symSize: 0x90 }
  - { offsetInCU: 0x6543E, offset: 0x6543E, size: 0x8, addend: 0x0, symName: __ZNSt3__123__dispatch_copy_or_moveB8ue170006INS_17_ClassicAlgPolicyENS_11__move_loopIS1_EENS_14__move_trivialENS_16reverse_iteratorIPjEES7_S7_EENS_4pairIT2_T4_EES9_T3_SA_, symObjAddr: 0x3AD40, symBinAddr: 0x10003B680, symSize: 0x90 }
  - { offsetInCU: 0x654BC, offset: 0x654BC, size: 0x8, addend: 0x0, symName: __ZNSt3__121__unwrap_and_dispatchB8ue170006INS_10__overloadINS_11__move_loopINS_17_ClassicAlgPolicyEEENS_14__move_trivialEEENS_16reverse_iteratorIPjEES9_S9_Li0EEENS_4pairIT0_T2_EESB_T1_SC_, symObjAddr: 0x3ADD0, symBinAddr: 0x10003B710, symSize: 0x210 }
  - { offsetInCU: 0x6554B, offset: 0x6554B, size: 0x8, addend: 0x0, symName: __ZNSt3__114__unwrap_rangeB8ue170006INS_16reverse_iteratorIPjEES3_EEDaT_T0_, symObjAddr: 0x3AFE0, symBinAddr: 0x10003B920, symSize: 0x60 }
  - { offsetInCU: 0x6566B, offset: 0x6566B, size: 0x8, addend: 0x0, symName: __ZNSt3__113__unwrap_iterB8ue170006INS_16reverse_iteratorIPjEENS_18__unwrap_iter_implIS3_Lb0EEELi0EEEDTclsrT0_8__unwrapclsr3stdE7declvalIT_EEEES7_, symObjAddr: 0x3B0E0, symBinAddr: 0x10003BA20, symSize: 0x40 }
  - { offsetInCU: 0x656AF, offset: 0x656AF, size: 0x8, addend: 0x0, symName: __ZNSt3__19make_pairB8ue170006INS_16reverse_iteratorIPjEES3_EENS_4pairINS_18__unwrap_ref_decayIT_E4typeENS5_IT0_E4typeEEEOS6_OS9_, symObjAddr: 0x3B120, symBinAddr: 0x10003BA60, symSize: 0x30 }
  - { offsetInCU: 0x656FE, offset: 0x656FE, size: 0x8, addend: 0x0, symName: __ZNSt3__114__rewrap_rangeB8ue170006INS_16reverse_iteratorIPjEES3_S3_EET0_S4_T1_, symObjAddr: 0x3B150, symBinAddr: 0x10003BA90, symSize: 0x60 }
  - { offsetInCU: 0x65753, offset: 0x65753, size: 0x8, addend: 0x0, symName: __ZNSt3__113__rewrap_iterB8ue170006INS_16reverse_iteratorIPjEES3_NS_18__unwrap_iter_implIS3_Lb0EEEEET_S6_T0_, symObjAddr: 0x3B1B0, symBinAddr: 0x10003BAF0, symSize: 0x70 }
  - { offsetInCU: 0x657F8, offset: 0x657F8, size: 0x8, addend: 0x0, symName: __ZNSt3__1neB8ue170006IPjS1_EEbRKNS_16reverse_iteratorIT_EERKNS2_IT0_EE, symObjAddr: 0x3B320, symBinAddr: 0x10003BC60, symSize: 0x40 }
  - { offsetInCU: 0x658B0, offset: 0x658B0, size: 0x8, addend: 0x0, symName: __ZNSt3__110destroy_atB8ue170006IjLi0EEEvPT_, symObjAddr: 0x3B680, symBinAddr: 0x10003BFC0, symSize: 0x20 }
  - { offsetInCU: 0x658E7, offset: 0x658E7, size: 0x8, addend: 0x0, symName: __ZNSt3__112__destroy_atB8ue170006IjLi0EEEvPT_, symObjAddr: 0x3B6A0, symBinAddr: 0x10003BFE0, symSize: 0x10 }
  - { offsetInCU: 0x6591E, offset: 0x6591E, size: 0x8, addend: 0x0, symName: __ZNSt3__112__to_addressB8ue170006IiEEPT_S2_, symObjAddr: 0x3B960, symBinAddr: 0x10003C2A0, symSize: 0x10 }
  - { offsetInCU: 0x6597A, offset: 0x6597A, size: 0x8, addend: 0x0, symName: __ZNSt3__112construct_atB8ue170006IiJRKiEPiEEPT_S5_DpOT0_, symObjAddr: 0x3B9D0, symBinAddr: 0x10003C310, symSize: 0x30 }
  - { offsetInCU: 0x659EC, offset: 0x659EC, size: 0x8, addend: 0x0, symName: __ZNSt3__119__allocate_at_leastB8ue170006INS_9allocatorIiEEEENS_19__allocation_resultINS_16allocator_traitsIT_E7pointerEEERS5_m, symObjAddr: 0x3BF00, symBinAddr: 0x10003C840, symSize: 0x40 }
  - { offsetInCU: 0x65A2F, offset: 0x65A2F, size: 0x8, addend: 0x0, symName: __ZNSt3__142__uninitialized_allocator_move_if_noexceptB8ue170006INS_9allocatorIiEENS_16reverse_iteratorIPiEES5_ivEET1_RT_T0_S9_S6_, symObjAddr: 0x3C140, symBinAddr: 0x10003CA80, symSize: 0x70 }
  - { offsetInCU: 0x65AAC, offset: 0x65AAC, size: 0x8, addend: 0x0, symName: __ZNSt3__14swapB8ue170006IPiEENS_9enable_ifIXaasr21is_move_constructibleIT_EE5valuesr18is_move_assignableIS3_EE5valueEvE4typeERS3_S6_, symObjAddr: 0x3C200, symBinAddr: 0x10003CB40, symSize: 0x40 }
  - { offsetInCU: 0x65AFD, offset: 0x65AFD, size: 0x8, addend: 0x0, symName: __ZNSt3__14moveB8ue170006INS_16reverse_iteratorIPiEES3_EET0_T_S5_S4_, symObjAddr: 0x3C330, symBinAddr: 0x10003CC70, symSize: 0x80 }
  - { offsetInCU: 0x65B57, offset: 0x65B57, size: 0x8, addend: 0x0, symName: __ZNSt3__16__moveB8ue170006INS_17_ClassicAlgPolicyENS_16reverse_iteratorIPiEES4_S4_EENS_4pairIT0_T2_EES6_T1_S7_, symObjAddr: 0x3C3B0, symBinAddr: 0x10003CCF0, symSize: 0x90 }
  - { offsetInCU: 0x65BC3, offset: 0x65BC3, size: 0x8, addend: 0x0, symName: __ZNSt3__123__dispatch_copy_or_moveB8ue170006INS_17_ClassicAlgPolicyENS_11__move_loopIS1_EENS_14__move_trivialENS_16reverse_iteratorIPiEES7_S7_EENS_4pairIT2_T4_EES9_T3_SA_, symObjAddr: 0x3C440, symBinAddr: 0x10003CD80, symSize: 0x90 }
  - { offsetInCU: 0x65C41, offset: 0x65C41, size: 0x8, addend: 0x0, symName: __ZNSt3__121__unwrap_and_dispatchB8ue170006INS_10__overloadINS_11__move_loopINS_17_ClassicAlgPolicyEEENS_14__move_trivialEEENS_16reverse_iteratorIPiEES9_S9_Li0EEENS_4pairIT0_T2_EESB_T1_SC_, symObjAddr: 0x3C4D0, symBinAddr: 0x10003CE10, symSize: 0x210 }
  - { offsetInCU: 0x65CD0, offset: 0x65CD0, size: 0x8, addend: 0x0, symName: __ZNSt3__114__unwrap_rangeB8ue170006INS_16reverse_iteratorIPiEES3_EEDaT_T0_, symObjAddr: 0x3C6E0, symBinAddr: 0x10003D020, symSize: 0x60 }
  - { offsetInCU: 0x65DF0, offset: 0x65DF0, size: 0x8, addend: 0x0, symName: __ZNSt3__113__unwrap_iterB8ue170006INS_16reverse_iteratorIPiEENS_18__unwrap_iter_implIS3_Lb0EEELi0EEEDTclsrT0_8__unwrapclsr3stdE7declvalIT_EEEES7_, symObjAddr: 0x3C7E0, symBinAddr: 0x10003D120, symSize: 0x40 }
  - { offsetInCU: 0x65E34, offset: 0x65E34, size: 0x8, addend: 0x0, symName: __ZNSt3__19make_pairB8ue170006INS_16reverse_iteratorIPiEES3_EENS_4pairINS_18__unwrap_ref_decayIT_E4typeENS5_IT0_E4typeEEEOS6_OS9_, symObjAddr: 0x3C820, symBinAddr: 0x10003D160, symSize: 0x30 }
  - { offsetInCU: 0x65E83, offset: 0x65E83, size: 0x8, addend: 0x0, symName: __ZNSt3__114__rewrap_rangeB8ue170006INS_16reverse_iteratorIPiEES3_S3_EET0_S4_T1_, symObjAddr: 0x3C850, symBinAddr: 0x10003D190, symSize: 0x60 }
  - { offsetInCU: 0x65ED8, offset: 0x65ED8, size: 0x8, addend: 0x0, symName: __ZNSt3__113__rewrap_iterB8ue170006INS_16reverse_iteratorIPiEES3_NS_18__unwrap_iter_implIS3_Lb0EEEEET_S6_T0_, symObjAddr: 0x3C8B0, symBinAddr: 0x10003D1F0, symSize: 0x70 }
  - { offsetInCU: 0x65F7D, offset: 0x65F7D, size: 0x8, addend: 0x0, symName: __ZNSt3__1neB8ue170006IPiS1_EEbRKNS_16reverse_iteratorIT_EERKNS2_IT0_EE, symObjAddr: 0x3CA20, symBinAddr: 0x10003D360, symSize: 0x40 }
  - { offsetInCU: 0x66035, offset: 0x66035, size: 0x8, addend: 0x0, symName: __ZNSt3__110destroy_atB8ue170006IiLi0EEEvPT_, symObjAddr: 0x3CD80, symBinAddr: 0x10003D6C0, symSize: 0x20 }
  - { offsetInCU: 0x6606C, offset: 0x6606C, size: 0x8, addend: 0x0, symName: __ZNSt3__112__destroy_atB8ue170006IiLi0EEEvPT_, symObjAddr: 0x3CDA0, symBinAddr: 0x10003D6E0, symSize: 0x10 }
  - { offsetInCU: 0x660A3, offset: 0x660A3, size: 0x8, addend: 0x0, symName: __ZNSt3__18distanceB8ue170006IPN7tinyobj5tag_tEEENS_15iterator_traitsIT_E15difference_typeES5_S5_, symObjAddr: 0x3D130, symBinAddr: 0x10003DA70, symSize: 0x30 }
  - { offsetInCU: 0x660E6, offset: 0x660E6, size: 0x8, addend: 0x0, symName: __ZNSt3__14nextB8ue170006IPN7tinyobj5tag_tEEENS_9enable_ifIXsr29__has_input_iterator_categoryIT_EE5valueES5_E4typeES5_NS_15iterator_traitsIS5_E15difference_typeE, symObjAddr: 0x3D1D0, symBinAddr: 0x10003DB10, symSize: 0x30 }
  - { offsetInCU: 0x66129, offset: 0x66129, size: 0x8, addend: 0x0, symName: __ZNSt3__14copyB8ue170006IPN7tinyobj5tag_tES3_EET0_T_S5_S4_, symObjAddr: 0x3D200, symBinAddr: 0x10003DB40, symSize: 0x40 }
  - { offsetInCU: 0x66183, offset: 0x66183, size: 0x8, addend: 0x0, symName: __ZNSt3__16__copyB8ue170006INS_17_ClassicAlgPolicyEPN7tinyobj5tag_tES4_S4_EENS_4pairIT0_T2_EES6_T1_S7_, symObjAddr: 0x3D2D0, symBinAddr: 0x10003DC10, symSize: 0x40 }
  - { offsetInCU: 0x661EF, offset: 0x661EF, size: 0x8, addend: 0x0, symName: __ZNSt3__19__advanceB8ue170006IPN7tinyobj5tag_tEEEvRT_NS_15iterator_traitsIS4_E15difference_typeENS_26random_access_iterator_tagE, symObjAddr: 0x3D5B0, symBinAddr: 0x10003DEF0, symSize: 0x20 }
  - { offsetInCU: 0x66239, offset: 0x66239, size: 0x8, addend: 0x0, symName: __ZNSt3__130__uninitialized_allocator_copyB8ue170006INS_9allocatorIN7tinyobj5tag_tEEEPS3_S5_S5_EET2_RT_T0_T1_S6_, symObjAddr: 0x3D600, symBinAddr: 0x10003DF40, symSize: 0x80 }
  - { offsetInCU: 0x662D8, offset: 0x662D8, size: 0x8, addend: 0x0, symName: __ZNSt3__114__unwrap_rangeB8ue170006IPN7tinyobj5tag_tES3_EEDaT_T0_, symObjAddr: 0x3D700, symBinAddr: 0x10003E040, symSize: 0x40 }
  - { offsetInCU: 0x66324, offset: 0x66324, size: 0x8, addend: 0x0, symName: __ZNSt3__135__uninitialized_allocator_copy_implB8ue170006INS_9allocatorIN7tinyobj5tag_tEEEPS3_S5_S5_EET2_RT_T0_T1_S6_, symObjAddr: 0x3D740, symBinAddr: 0x10003E080, symSize: 0x100 }
  - { offsetInCU: 0x663C4, offset: 0x663C4, size: 0x8, addend: 0x0, symName: __ZNSt3__113__unwrap_iterB8ue170006IPN7tinyobj5tag_tENS_18__unwrap_iter_implIS3_Lb1EEELi0EEEDTclsrT0_8__unwrapclsr3stdE7declvalIT_EEEES7_, symObjAddr: 0x3D840, symBinAddr: 0x10003E180, symSize: 0x20 }
  - { offsetInCU: 0x66408, offset: 0x66408, size: 0x8, addend: 0x0, symName: __ZNSt3__113__rewrap_iterB8ue170006IPN7tinyobj5tag_tES3_NS_18__unwrap_iter_implIS3_Lb1EEEEET_S6_T0_, symObjAddr: 0x3D860, symBinAddr: 0x10003E1A0, symSize: 0x40 }
  - { offsetInCU: 0x66581, offset: 0x66581, size: 0x8, addend: 0x0, symName: __ZNSt3__122__make_exception_guardB8ue170006INS_29_AllocatorDestroyRangeReverseINS_9allocatorIN7tinyobj5tag_tEEEPS4_EEEENS_28__exception_guard_exceptionsIT_EES9_, symObjAddr: 0x3D950, symBinAddr: 0x10003E290, symSize: 0x60 }
  - { offsetInCU: 0x665B6, offset: 0x665B6, size: 0x8, addend: 0x0, symName: __ZNSt3__112__to_addressB8ue170006IN7tinyobj5tag_tEEEPT_S4_, symObjAddr: 0x3DA20, symBinAddr: 0x10003E360, symSize: 0x10 }
  - { offsetInCU: 0x66612, offset: 0x66612, size: 0x8, addend: 0x0, symName: __ZNSt3__112construct_atB8ue170006IN7tinyobj5tag_tEJRS2_EPS2_EEPT_S6_DpOT0_, symObjAddr: 0x3DB20, symBinAddr: 0x10003E460, symSize: 0x40 }
  - { offsetInCU: 0x66684, offset: 0x66684, size: 0x8, addend: 0x0, symName: __ZNSt3__122__make_exception_guardB8ue170006INS_6vectorIiNS_9allocatorIiEEE16__destroy_vectorEEENS_28__exception_guard_exceptionsIT_EES7_, symObjAddr: 0x3DF00, symBinAddr: 0x10003E840, symSize: 0x40 }
  - { offsetInCU: 0x666B9, offset: 0x666B9, size: 0x8, addend: 0x0, symName: __ZNSt3__130__uninitialized_allocator_copyB8ue170006INS_9allocatorIiEEPiS3_S3_EET2_RT_T0_T1_S4_, symObjAddr: 0x3E150, symBinAddr: 0x10003EA90, symSize: 0x80 }
  - { offsetInCU: 0x66758, offset: 0x66758, size: 0x8, addend: 0x0, symName: __ZNSt3__114__unwrap_rangeB8ue170006IPiS1_EEDaT_T0_, symObjAddr: 0x3E1D0, symBinAddr: 0x10003EB10, symSize: 0x40 }
  - { offsetInCU: 0x667A4, offset: 0x667A4, size: 0x8, addend: 0x0, symName: __ZNSt3__135__uninitialized_allocator_copy_implB8ue170006INS_9allocatorIiEEiiiLPv0EEEPT2_RT_PT0_S9_S5_, symObjAddr: 0x3E210, symBinAddr: 0x10003EB50, symSize: 0x30 }
  - { offsetInCU: 0x66826, offset: 0x66826, size: 0x8, addend: 0x0, symName: __ZNSt3__113__unwrap_iterB8ue170006IPiNS_18__unwrap_iter_implIS1_Lb1EEELi0EEEDTclsrT0_8__unwrapclsr3stdE7declvalIT_EEEES5_, symObjAddr: 0x3E240, symBinAddr: 0x10003EB80, symSize: 0x20 }
  - { offsetInCU: 0x6686A, offset: 0x6686A, size: 0x8, addend: 0x0, symName: __ZNSt3__113__rewrap_iterB8ue170006IPiS1_NS_18__unwrap_iter_implIS1_Lb1EEEEET_S4_T0_, symObjAddr: 0x3E260, symBinAddr: 0x10003EBA0, symSize: 0x40 }
  - { offsetInCU: 0x66A12, offset: 0x66A12, size: 0x8, addend: 0x0, symName: __ZNSt3__14copyB8ue170006IPiS1_EET0_T_S3_S2_, symObjAddr: 0x3E350, symBinAddr: 0x10003EC90, symSize: 0x40 }
  - { offsetInCU: 0x66A6C, offset: 0x66A6C, size: 0x8, addend: 0x0, symName: __ZNSt3__16__copyB8ue170006INS_17_ClassicAlgPolicyEPiS2_S2_EENS_4pairIT0_T2_EES4_T1_S5_, symObjAddr: 0x3E390, symBinAddr: 0x10003ECD0, symSize: 0x40 }
  - { offsetInCU: 0x66AD8, offset: 0x66AD8, size: 0x8, addend: 0x0, symName: __ZNSt3__123__dispatch_copy_or_moveB8ue170006INS_17_ClassicAlgPolicyENS_11__copy_loopIS1_EENS_14__copy_trivialEPiS5_S5_EENS_4pairIT2_T4_EES7_T3_S8_, symObjAddr: 0x3E3D0, symBinAddr: 0x10003ED10, symSize: 0x40 }
  - { offsetInCU: 0x66B56, offset: 0x66B56, size: 0x8, addend: 0x0, symName: __ZNSt3__121__unwrap_and_dispatchB8ue170006INS_10__overloadINS_11__copy_loopINS_17_ClassicAlgPolicyEEENS_14__copy_trivialEEEPiS7_S7_Li0EEENS_4pairIT0_T2_EES9_T1_SA_, symObjAddr: 0x3E410, symBinAddr: 0x10003ED50, symSize: 0xB0 }
  - { offsetInCU: 0x66BE5, offset: 0x66BE5, size: 0x8, addend: 0x0, symName: __ZNSt3__19make_pairB8ue170006IPiS1_EENS_4pairINS_18__unwrap_ref_decayIT_E4typeENS3_IT0_E4typeEEEOS4_OS7_, symObjAddr: 0x3E500, symBinAddr: 0x10003EE40, symSize: 0x30 }
  - { offsetInCU: 0x66C34, offset: 0x66C34, size: 0x8, addend: 0x0, symName: __ZNSt3__114__rewrap_rangeB8ue170006IPiS1_S1_EET0_S2_T1_, symObjAddr: 0x3E530, symBinAddr: 0x10003EE70, symSize: 0x30 }
  - { offsetInCU: 0x66C89, offset: 0x66C89, size: 0x8, addend: 0x0, symName: __ZNSt3__119__copy_trivial_implB8ue170006IiiEENS_4pairIPT_PT0_EES3_S3_S5_, symObjAddr: 0x3E560, symBinAddr: 0x10003EEA0, symSize: 0x70 }
  - { offsetInCU: 0x66CF1, offset: 0x66CF1, size: 0x8, addend: 0x0, symName: __ZNSt3__119__constexpr_memmoveB8ue170006IiiLi0EEEPT_S2_PT0_NS_15__element_countE, symObjAddr: 0x3E5D0, symBinAddr: 0x10003EF10, symSize: 0x50 }
  - { offsetInCU: 0x66D5F, offset: 0x66D5F, size: 0x8, addend: 0x0, symName: __ZNSt3__19make_pairB8ue170006IRPiS1_EENS_4pairINS_18__unwrap_ref_decayIT_E4typeENS4_IT0_E4typeEEEOS5_OS8_, symObjAddr: 0x3E620, symBinAddr: 0x10003EF60, symSize: 0x30 }
  - { offsetInCU: 0x66E01, offset: 0x66E01, size: 0x8, addend: 0x0, symName: __ZNSt3__122__make_exception_guardB8ue170006INS_6vectorIfNS_9allocatorIfEEE16__destroy_vectorEEENS_28__exception_guard_exceptionsIT_EES7_, symObjAddr: 0x3EA90, symBinAddr: 0x10003F3D0, symSize: 0x40 }
  - { offsetInCU: 0x66E36, offset: 0x66E36, size: 0x8, addend: 0x0, symName: __ZNSt3__130__uninitialized_allocator_copyB8ue170006INS_9allocatorIfEEPfS3_S3_EET2_RT_T0_T1_S4_, symObjAddr: 0x3ECE0, symBinAddr: 0x10003F620, symSize: 0x80 }
  - { offsetInCU: 0x66ED5, offset: 0x66ED5, size: 0x8, addend: 0x0, symName: __ZNSt3__114__unwrap_rangeB8ue170006IPfS1_EEDaT_T0_, symObjAddr: 0x3ED60, symBinAddr: 0x10003F6A0, symSize: 0x40 }
  - { offsetInCU: 0x66F21, offset: 0x66F21, size: 0x8, addend: 0x0, symName: __ZNSt3__135__uninitialized_allocator_copy_implB8ue170006INS_9allocatorIfEEfffLPv0EEEPT2_RT_PT0_S9_S5_, symObjAddr: 0x3EDA0, symBinAddr: 0x10003F6E0, symSize: 0x30 }
  - { offsetInCU: 0x66FA3, offset: 0x66FA3, size: 0x8, addend: 0x0, symName: __ZNSt3__113__unwrap_iterB8ue170006IPfNS_18__unwrap_iter_implIS1_Lb1EEELi0EEEDTclsrT0_8__unwrapclsr3stdE7declvalIT_EEEES5_, symObjAddr: 0x3EDD0, symBinAddr: 0x10003F710, symSize: 0x20 }
  - { offsetInCU: 0x66FE7, offset: 0x66FE7, size: 0x8, addend: 0x0, symName: __ZNSt3__113__rewrap_iterB8ue170006IPfS1_NS_18__unwrap_iter_implIS1_Lb1EEEEET_S4_T0_, symObjAddr: 0x3EDF0, symBinAddr: 0x10003F730, symSize: 0x40 }
  - { offsetInCU: 0x6718F, offset: 0x6718F, size: 0x8, addend: 0x0, symName: __ZNSt3__14copyB8ue170006IPfS1_EET0_T_S3_S2_, symObjAddr: 0x3EEE0, symBinAddr: 0x10003F820, symSize: 0x40 }
  - { offsetInCU: 0x671E9, offset: 0x671E9, size: 0x8, addend: 0x0, symName: __ZNSt3__16__copyB8ue170006INS_17_ClassicAlgPolicyEPfS2_S2_EENS_4pairIT0_T2_EES4_T1_S5_, symObjAddr: 0x3EF20, symBinAddr: 0x10003F860, symSize: 0x40 }
  - { offsetInCU: 0x67255, offset: 0x67255, size: 0x8, addend: 0x0, symName: __ZNSt3__123__dispatch_copy_or_moveB8ue170006INS_17_ClassicAlgPolicyENS_11__copy_loopIS1_EENS_14__copy_trivialEPfS5_S5_EENS_4pairIT2_T4_EES7_T3_S8_, symObjAddr: 0x3EF60, symBinAddr: 0x10003F8A0, symSize: 0x40 }
  - { offsetInCU: 0x672D3, offset: 0x672D3, size: 0x8, addend: 0x0, symName: __ZNSt3__121__unwrap_and_dispatchB8ue170006INS_10__overloadINS_11__copy_loopINS_17_ClassicAlgPolicyEEENS_14__copy_trivialEEEPfS7_S7_Li0EEENS_4pairIT0_T2_EES9_T1_SA_, symObjAddr: 0x3EFA0, symBinAddr: 0x10003F8E0, symSize: 0xB0 }
  - { offsetInCU: 0x67362, offset: 0x67362, size: 0x8, addend: 0x0, symName: __ZNSt3__19make_pairB8ue170006IPfS1_EENS_4pairINS_18__unwrap_ref_decayIT_E4typeENS3_IT0_E4typeEEEOS4_OS7_, symObjAddr: 0x3F090, symBinAddr: 0x10003F9D0, symSize: 0x30 }
  - { offsetInCU: 0x673B1, offset: 0x673B1, size: 0x8, addend: 0x0, symName: __ZNSt3__114__rewrap_rangeB8ue170006IPfS1_S1_EET0_S2_T1_, symObjAddr: 0x3F0C0, symBinAddr: 0x10003FA00, symSize: 0x30 }
  - { offsetInCU: 0x67406, offset: 0x67406, size: 0x8, addend: 0x0, symName: __ZNSt3__119__copy_trivial_implB8ue170006IffEENS_4pairIPT_PT0_EES3_S3_S5_, symObjAddr: 0x3F0F0, symBinAddr: 0x10003FA30, symSize: 0x70 }
  - { offsetInCU: 0x6746E, offset: 0x6746E, size: 0x8, addend: 0x0, symName: __ZNSt3__119__constexpr_memmoveB8ue170006IffLi0EEEPT_S2_PT0_NS_15__element_countE, symObjAddr: 0x3F160, symBinAddr: 0x10003FAA0, symSize: 0x50 }
  - { offsetInCU: 0x674DC, offset: 0x674DC, size: 0x8, addend: 0x0, symName: __ZNSt3__19make_pairB8ue170006IRPfS1_EENS_4pairINS_18__unwrap_ref_decayIT_E4typeENS4_IT0_E4typeEEEOS5_OS8_, symObjAddr: 0x3F1B0, symBinAddr: 0x10003FAF0, symSize: 0x30 }
  - { offsetInCU: 0x6757E, offset: 0x6757E, size: 0x8, addend: 0x0, symName: __ZNSt3__122__make_exception_guardB8ue170006INS_6vectorINS_12basic_stringIcNS_11char_traitsIcEENS_9allocatorIcEEEENS5_IS7_EEE16__destroy_vectorEEENS_28__exception_guard_exceptionsIT_EESC_, symObjAddr: 0x3F580, symBinAddr: 0x10003FEC0, symSize: 0x40 }
  - { offsetInCU: 0x675B3, offset: 0x675B3, size: 0x8, addend: 0x0, symName: __ZNSt3__130__uninitialized_allocator_copyB8ue170006INS_9allocatorINS_12basic_stringIcNS_11char_traitsIcEENS1_IcEEEEEEPS6_S8_S8_EET2_RT_T0_T1_S9_, symObjAddr: 0x3F780, symBinAddr: 0x1000400C0, symSize: 0x80 }
  - { offsetInCU: 0x67652, offset: 0x67652, size: 0x8, addend: 0x0, symName: __ZNSt3__114__unwrap_rangeB8ue170006IPNS_12basic_stringIcNS_11char_traitsIcEENS_9allocatorIcEEEES7_EEDaT_T0_, symObjAddr: 0x3F800, symBinAddr: 0x100040140, symSize: 0x40 }
  - { offsetInCU: 0x6769E, offset: 0x6769E, size: 0x8, addend: 0x0, symName: __ZNSt3__135__uninitialized_allocator_copy_implB8ue170006INS_9allocatorINS_12basic_stringIcNS_11char_traitsIcEENS1_IcEEEEEEPS6_S8_S8_EET2_RT_T0_T1_S9_, symObjAddr: 0x3F840, symBinAddr: 0x100040180, symSize: 0x100 }
  - { offsetInCU: 0x6773E, offset: 0x6773E, size: 0x8, addend: 0x0, symName: __ZNSt3__113__unwrap_iterB8ue170006IPNS_12basic_stringIcNS_11char_traitsIcEENS_9allocatorIcEEEENS_18__unwrap_iter_implIS7_Lb1EEELi0EEEDTclsrT0_8__unwrapclsr3stdE7declvalIT_EEEESB_, symObjAddr: 0x3F940, symBinAddr: 0x100040280, symSize: 0x20 }
  - { offsetInCU: 0x67782, offset: 0x67782, size: 0x8, addend: 0x0, symName: __ZNSt3__113__rewrap_iterB8ue170006IPNS_12basic_stringIcNS_11char_traitsIcEENS_9allocatorIcEEEES7_NS_18__unwrap_iter_implIS7_Lb1EEEEET_SA_T0_, symObjAddr: 0x3F960, symBinAddr: 0x1000402A0, symSize: 0x40 }
  - { offsetInCU: 0x678FB, offset: 0x678FB, size: 0x8, addend: 0x0, symName: __ZNSt3__122__make_exception_guardB8ue170006INS_29_AllocatorDestroyRangeReverseINS_9allocatorINS_12basic_stringIcNS_11char_traitsIcEENS2_IcEEEEEEPS7_EEEENS_28__exception_guard_exceptionsIT_EESC_, symObjAddr: 0x3FA50, symBinAddr: 0x100040390, symSize: 0x60 }
  - { offsetInCU: 0x67930, offset: 0x67930, size: 0x8, addend: 0x0, symName: __ZNSt3__112construct_atB8ue170006INS_12basic_stringIcNS_11char_traitsIcEENS_9allocatorIcEEEEJRS6_EPS6_EEPT_SA_DpOT0_, symObjAddr: 0x3FC10, symBinAddr: 0x100040550, symSize: 0x40 }
  - { offsetInCU: 0x679A3, offset: 0x679A3, size: 0x8, addend: 0x0, symName: __ZNSt3__119__allocator_destroyB8ue170006INS_9allocatorINS_12basic_stringIcNS_11char_traitsIcEENS1_IcEEEEEENS_16reverse_iteratorIPS6_EESA_EEvRT_T0_T1_, symObjAddr: 0x3FCF0, symBinAddr: 0x100040630, symSize: 0x70 }
  - { offsetInCU: 0x67A5A, offset: 0x67A5A, size: 0x8, addend: 0x0, symName: __ZNSt3__119__allocator_destroyB8ue170006INS_9allocatorIN7tinyobj5tag_tEEENS_16reverse_iteratorIPS3_EES7_EEvRT_T0_T1_, symObjAddr: 0x3FEF0, symBinAddr: 0x100040830, symSize: 0x70 }
  - { offsetInCU: 0x67ABD, offset: 0x67ABD, size: 0x8, addend: 0x0, symName: __ZNSt3__1neB8ue170006IPN7tinyobj5tag_tES3_EEbRKNS_16reverse_iteratorIT_EERKNS4_IT0_EE, symObjAddr: 0x3FF90, symBinAddr: 0x1000408D0, symSize: 0x40 }
  - { offsetInCU: 0x67B09, offset: 0x67B09, size: 0x8, addend: 0x0, symName: __ZNSt3__112__to_addressB8ue170006INS_16reverse_iteratorIPN7tinyobj5tag_tEEEvEEu7__decayIDTclsr19__to_address_helperIT_EE6__callclsr3stdE7declvalIRKS6_EEEEES8_, symObjAddr: 0x3FFF0, symBinAddr: 0x100040930, symSize: 0x20 }
  - { offsetInCU: 0x67B3F, offset: 0x67B3F, size: 0x8, addend: 0x0, symName: __ZNSt3__110destroy_atB8ue170006IN7tinyobj5tag_tELi0EEEvPT_, symObjAddr: 0x40050, symBinAddr: 0x100040990, symSize: 0x20 }
  - { offsetInCU: 0x67B76, offset: 0x67B76, size: 0x8, addend: 0x0, symName: __ZNSt3__112__destroy_atB8ue170006IN7tinyobj5tag_tELi0EEEvPT_, symObjAddr: 0x40070, symBinAddr: 0x1000409B0, symSize: 0x20 }
  - { offsetInCU: 0x67BD6, offset: 0x67BD6, size: 0x8, addend: 0x0, symName: __ZNSt3__14prevB8ue170006IPN7tinyobj5tag_tEEENS_9enable_ifIXsr29__has_input_iterator_categoryIT_EE5valueES5_E4typeES5_NS_15iterator_traitsIS5_E15difference_typeE, symObjAddr: 0x40100, symBinAddr: 0x100040A40, symSize: 0x30 }
  - { offsetInCU: 0x67C6C, offset: 0x67C6C, size: 0x8, addend: 0x0, symName: __ZNSt3__123__dispatch_copy_or_moveB8ue170006INS_17_ClassicAlgPolicyENS_11__copy_loopIS1_EENS_14__copy_trivialEPN7tinyobj5tag_tES7_S7_EENS_4pairIT2_T4_EES9_T3_SA_, symObjAddr: 0x40230, symBinAddr: 0x100040B70, symSize: 0x40 }
  - { offsetInCU: 0x67CEA, offset: 0x67CEA, size: 0x8, addend: 0x0, symName: __ZNSt3__121__unwrap_and_dispatchB8ue170006INS_10__overloadINS_11__copy_loopINS_17_ClassicAlgPolicyEEENS_14__copy_trivialEEEPN7tinyobj5tag_tES9_S9_Li0EEENS_4pairIT0_T2_EESB_T1_SC_, symObjAddr: 0x40270, symBinAddr: 0x100040BB0, symSize: 0xB0 }
  - { offsetInCU: 0x67E0A, offset: 0x67E0A, size: 0x8, addend: 0x0, symName: __ZNSt3__19make_pairB8ue170006IPN7tinyobj5tag_tES3_EENS_4pairINS_18__unwrap_ref_decayIT_E4typeENS5_IT0_E4typeEEEOS6_OS9_, symObjAddr: 0x403A0, symBinAddr: 0x100040CE0, symSize: 0x30 }
  - { offsetInCU: 0x67E59, offset: 0x67E59, size: 0x8, addend: 0x0, symName: __ZNSt3__114__rewrap_rangeB8ue170006IPN7tinyobj5tag_tES3_S3_EET0_S4_T1_, symObjAddr: 0x403D0, symBinAddr: 0x100040D10, symSize: 0x30 }
  - { offsetInCU: 0x67EAE, offset: 0x67EAE, size: 0x8, addend: 0x0, symName: __ZNSt3__18distanceB8ue170006IPiEENS_15iterator_traitsIT_E15difference_typeES3_S3_, symObjAddr: 0x40790, symBinAddr: 0x1000410D0, symSize: 0x30 }
  - { offsetInCU: 0x67EF1, offset: 0x67EF1, size: 0x8, addend: 0x0, symName: __ZNSt3__14nextB8ue170006IPiEENS_9enable_ifIXsr29__has_input_iterator_categoryIT_EE5valueES3_E4typeES3_NS_15iterator_traitsIS3_E15difference_typeE, symObjAddr: 0x407C0, symBinAddr: 0x100041100, symSize: 0x30 }
  - { offsetInCU: 0x67F34, offset: 0x67F34, size: 0x8, addend: 0x0, symName: __ZNSt3__19__advanceB8ue170006IPiEEvRT_NS_15iterator_traitsIS2_E15difference_typeENS_26random_access_iterator_tagE, symObjAddr: 0x40900, symBinAddr: 0x100041240, symSize: 0x20 }
  - { offsetInCU: 0x67F7E, offset: 0x67F7E, size: 0x8, addend: 0x0, symName: __ZNSt3__110__distanceB8ue170006IPiEENS_15iterator_traitsIT_E15difference_typeES3_S3_NS_26random_access_iterator_tagE, symObjAddr: 0x40A00, symBinAddr: 0x100041340, symSize: 0x20 }
  - { offsetInCU: 0x67FCC, offset: 0x67FCC, size: 0x8, addend: 0x0, symName: __ZNSt3__18distanceB8ue170006IPfEENS_15iterator_traitsIT_E15difference_typeES3_S3_, symObjAddr: 0x40C20, symBinAddr: 0x100041560, symSize: 0x30 }
  - { offsetInCU: 0x6800F, offset: 0x6800F, size: 0x8, addend: 0x0, symName: __ZNSt3__14nextB8ue170006IPfEENS_9enable_ifIXsr29__has_input_iterator_categoryIT_EE5valueES3_E4typeES3_NS_15iterator_traitsIS3_E15difference_typeE, symObjAddr: 0x40C50, symBinAddr: 0x100041590, symSize: 0x30 }
  - { offsetInCU: 0x68052, offset: 0x68052, size: 0x8, addend: 0x0, symName: __ZNSt3__19__advanceB8ue170006IPfEEvRT_NS_15iterator_traitsIS2_E15difference_typeENS_26random_access_iterator_tagE, symObjAddr: 0x40D90, symBinAddr: 0x1000416D0, symSize: 0x20 }
  - { offsetInCU: 0x6809C, offset: 0x6809C, size: 0x8, addend: 0x0, symName: __ZNSt3__110__distanceB8ue170006IPfEENS_15iterator_traitsIT_E15difference_typeES3_S3_NS_26random_access_iterator_tagE, symObjAddr: 0x40DB0, symBinAddr: 0x1000416F0, symSize: 0x20 }
  - { offsetInCU: 0x680EA, offset: 0x680EA, size: 0x8, addend: 0x0, symName: __ZNSt3__18distanceB8ue170006IPNS_12basic_stringIcNS_11char_traitsIcEENS_9allocatorIcEEEEEENS_15iterator_traitsIT_E15difference_typeES9_S9_, symObjAddr: 0x40FD0, symBinAddr: 0x100041910, symSize: 0x30 }
  - { offsetInCU: 0x6812D, offset: 0x6812D, size: 0x8, addend: 0x0, symName: __ZNSt3__14nextB8ue170006IPNS_12basic_stringIcNS_11char_traitsIcEENS_9allocatorIcEEEEEENS_9enable_ifIXsr29__has_input_iterator_categoryIT_EE5valueES9_E4typeES9_NS_15iterator_traitsIS9_E15difference_typeE, symObjAddr: 0x41000, symBinAddr: 0x100041940, symSize: 0x30 }
  - { offsetInCU: 0x68170, offset: 0x68170, size: 0x8, addend: 0x0, symName: __ZNSt3__14copyB8ue170006IPNS_12basic_stringIcNS_11char_traitsIcEENS_9allocatorIcEEEES7_EET0_T_S9_S8_, symObjAddr: 0x41030, symBinAddr: 0x100041970, symSize: 0x40 }
  - { offsetInCU: 0x681CA, offset: 0x681CA, size: 0x8, addend: 0x0, symName: __ZNSt3__16__copyB8ue170006INS_17_ClassicAlgPolicyEPNS_12basic_stringIcNS_11char_traitsIcEENS_9allocatorIcEEEES8_S8_EENS_4pairIT0_T2_EESA_T1_SB_, symObjAddr: 0x41070, symBinAddr: 0x1000419B0, symSize: 0x40 }
  - { offsetInCU: 0x68236, offset: 0x68236, size: 0x8, addend: 0x0, symName: __ZNSt3__123__dispatch_copy_or_moveB8ue170006INS_17_ClassicAlgPolicyENS_11__copy_loopIS1_EENS_14__copy_trivialEPNS_12basic_stringIcNS_11char_traitsIcEENS_9allocatorIcEEEESB_SB_EENS_4pairIT2_T4_EESD_T3_SE_, symObjAddr: 0x41190, symBinAddr: 0x100041AD0, symSize: 0x40 }
  - { offsetInCU: 0x682B4, offset: 0x682B4, size: 0x8, addend: 0x0, symName: __ZNSt3__121__unwrap_and_dispatchB8ue170006INS_10__overloadINS_11__copy_loopINS_17_ClassicAlgPolicyEEENS_14__copy_trivialEEEPNS_12basic_stringIcNS_11char_traitsIcEENS_9allocatorIcEEEESD_SD_Li0EEENS_4pairIT0_T2_EESF_T1_SG_, symObjAddr: 0x411D0, symBinAddr: 0x100041B10, symSize: 0xB0 }
  - { offsetInCU: 0x68343, offset: 0x68343, size: 0x8, addend: 0x0, symName: __ZNSt3__19make_pairB8ue170006IPNS_12basic_stringIcNS_11char_traitsIcEENS_9allocatorIcEEEES7_EENS_4pairINS_18__unwrap_ref_decayIT_E4typeENS9_IT0_E4typeEEEOSA_OSD_, symObjAddr: 0x41300, symBinAddr: 0x100041C40, symSize: 0x30 }
  - { offsetInCU: 0x68392, offset: 0x68392, size: 0x8, addend: 0x0, symName: __ZNSt3__114__rewrap_rangeB8ue170006IPNS_12basic_stringIcNS_11char_traitsIcEENS_9allocatorIcEEEES7_S7_EET0_S8_T1_, symObjAddr: 0x41330, symBinAddr: 0x100041C70, symSize: 0x30 }
  - { offsetInCU: 0x683E7, offset: 0x683E7, size: 0x8, addend: 0x0, symName: __ZNSt3__110__distanceB8ue170006IPNS_12basic_stringIcNS_11char_traitsIcEENS_9allocatorIcEEEEEENS_15iterator_traitsIT_E15difference_typeES9_S9_NS_26random_access_iterator_tagE, symObjAddr: 0x41430, symBinAddr: 0x100041D70, symSize: 0x30 }
  - { offsetInCU: 0x68435, offset: 0x68435, size: 0x8, addend: 0x0, symName: __ZNSt3__119__allocate_at_leastB8ue170006INS_9allocatorIN7tinyobj5tag_tEEEEENS_19__allocation_resultINS_16allocator_traitsIT_E7pointerEEERS7_m, symObjAddr: 0x41850, symBinAddr: 0x100042190, symSize: 0x40 }
  - { offsetInCU: 0x68478, offset: 0x68478, size: 0x8, addend: 0x0, symName: __ZNSt3__110__distanceB8ue170006IPN7tinyobj5tag_tEEENS_15iterator_traitsIT_E15difference_typeES5_S5_NS_26random_access_iterator_tagE, symObjAddr: 0x41A00, symBinAddr: 0x100042340, symSize: 0x30 }
  - { offsetInCU: 0x684C6, offset: 0x684C6, size: 0x8, addend: 0x0, symName: __ZNSt3__112construct_atB8ue170006IiJiEPiEEPT_S3_DpOT0_, symObjAddr: 0x41BC0, symBinAddr: 0x100042500, symSize: 0x30 }
  - { offsetInCU: 0x6855F, offset: 0x6855F, size: 0x8, addend: 0x0, symName: __ZNSt3__112construct_atB8ue170006IN7tinyobj7shape_tEJRKS2_EPS2_EEPT_S7_DpOT0_, symObjAddr: 0x41FD0, symBinAddr: 0x100042910, symSize: 0x40 }
  - { offsetInCU: 0x685D1, offset: 0x685D1, size: 0x8, addend: 0x0, symName: __ZNSt3__122__make_exception_guardB8ue170006INS_6vectorIN7tinyobj7index_tENS_9allocatorIS3_EEE16__destroy_vectorEEENS_28__exception_guard_exceptionsIT_EES9_, symObjAddr: 0x425F0, symBinAddr: 0x100042F30, symSize: 0x40 }
  - { offsetInCU: 0x68606, offset: 0x68606, size: 0x8, addend: 0x0, symName: __ZNSt3__119__allocate_at_leastB8ue170006INS_9allocatorIN7tinyobj7index_tEEEEENS_19__allocation_resultINS_16allocator_traitsIT_E7pointerEEERS7_m, symObjAddr: 0x428C0, symBinAddr: 0x100043200, symSize: 0x40 }
  - { offsetInCU: 0x68649, offset: 0x68649, size: 0x8, addend: 0x0, symName: __ZNSt3__112__to_addressB8ue170006IN7tinyobj7index_tEEEPT_S4_, symObjAddr: 0x42B40, symBinAddr: 0x100043480, symSize: 0x10 }
  - { offsetInCU: 0x6867E, offset: 0x6867E, size: 0x8, addend: 0x0, symName: __ZNSt3__130__uninitialized_allocator_copyB8ue170006INS_9allocatorIN7tinyobj7index_tEEEPS3_S5_S5_EET2_RT_T0_T1_S6_, symObjAddr: 0x42BD0, symBinAddr: 0x100043510, symSize: 0x80 }
  - { offsetInCU: 0x6871D, offset: 0x6871D, size: 0x8, addend: 0x0, symName: __ZNSt3__114__unwrap_rangeB8ue170006IPN7tinyobj7index_tES3_EEDaT_T0_, symObjAddr: 0x42CB0, symBinAddr: 0x1000435F0, symSize: 0x40 }
  - { offsetInCU: 0x68769, offset: 0x68769, size: 0x8, addend: 0x0, symName: __ZNSt3__135__uninitialized_allocator_copy_implB8ue170006INS_9allocatorIN7tinyobj7index_tEEES3_S3_S3_LPv0EEEPT2_RT_PT0_SB_S7_, symObjAddr: 0x42CF0, symBinAddr: 0x100043630, symSize: 0x30 }
  - { offsetInCU: 0x687EB, offset: 0x687EB, size: 0x8, addend: 0x0, symName: __ZNSt3__113__unwrap_iterB8ue170006IPN7tinyobj7index_tENS_18__unwrap_iter_implIS3_Lb1EEELi0EEEDTclsrT0_8__unwrapclsr3stdE7declvalIT_EEEES7_, symObjAddr: 0x42D20, symBinAddr: 0x100043660, symSize: 0x20 }
  - { offsetInCU: 0x6882F, offset: 0x6882F, size: 0x8, addend: 0x0, symName: __ZNSt3__113__rewrap_iterB8ue170006IPN7tinyobj7index_tES3_NS_18__unwrap_iter_implIS3_Lb1EEEEET_S6_T0_, symObjAddr: 0x42D40, symBinAddr: 0x100043680, symSize: 0x40 }
  - { offsetInCU: 0x689CF, offset: 0x689CF, size: 0x8, addend: 0x0, symName: __ZNSt3__14copyB8ue170006IPN7tinyobj7index_tES3_EET0_T_S5_S4_, symObjAddr: 0x42E30, symBinAddr: 0x100043770, symSize: 0x40 }
  - { offsetInCU: 0x68A29, offset: 0x68A29, size: 0x8, addend: 0x0, symName: __ZNSt3__16__copyB8ue170006INS_17_ClassicAlgPolicyEPN7tinyobj7index_tES4_S4_EENS_4pairIT0_T2_EES6_T1_S7_, symObjAddr: 0x42E70, symBinAddr: 0x1000437B0, symSize: 0x40 }
  - { offsetInCU: 0x68A95, offset: 0x68A95, size: 0x8, addend: 0x0, symName: __ZNSt3__123__dispatch_copy_or_moveB8ue170006INS_17_ClassicAlgPolicyENS_11__copy_loopIS1_EENS_14__copy_trivialEPN7tinyobj7index_tES7_S7_EENS_4pairIT2_T4_EES9_T3_SA_, symObjAddr: 0x42EB0, symBinAddr: 0x1000437F0, symSize: 0x40 }
  - { offsetInCU: 0x68B13, offset: 0x68B13, size: 0x8, addend: 0x0, symName: __ZNSt3__121__unwrap_and_dispatchB8ue170006INS_10__overloadINS_11__copy_loopINS_17_ClassicAlgPolicyEEENS_14__copy_trivialEEEPN7tinyobj7index_tES9_S9_Li0EEENS_4pairIT0_T2_EESB_T1_SC_, symObjAddr: 0x42EF0, symBinAddr: 0x100043830, symSize: 0xB0 }
  - { offsetInCU: 0x68BA2, offset: 0x68BA2, size: 0x8, addend: 0x0, symName: __ZNSt3__19make_pairB8ue170006IPN7tinyobj7index_tES3_EENS_4pairINS_18__unwrap_ref_decayIT_E4typeENS5_IT0_E4typeEEEOS6_OS9_, symObjAddr: 0x42FE0, symBinAddr: 0x100043920, symSize: 0x30 }
  - { offsetInCU: 0x68BF1, offset: 0x68BF1, size: 0x8, addend: 0x0, symName: __ZNSt3__114__rewrap_rangeB8ue170006IPN7tinyobj7index_tES3_S3_EET0_S4_T1_, symObjAddr: 0x43010, symBinAddr: 0x100043950, symSize: 0x30 }
  - { offsetInCU: 0x68C46, offset: 0x68C46, size: 0x8, addend: 0x0, symName: __ZNSt3__119__copy_trivial_implB8ue170006IN7tinyobj7index_tES2_EENS_4pairIPT_PT0_EES5_S5_S7_, symObjAddr: 0x43040, symBinAddr: 0x100043980, symSize: 0x80 }
  - { offsetInCU: 0x68CAE, offset: 0x68CAE, size: 0x8, addend: 0x0, symName: __ZNSt3__119__constexpr_memmoveB8ue170006IN7tinyobj7index_tES2_Li0EEEPT_S4_PT0_NS_15__element_countE, symObjAddr: 0x430C0, symBinAddr: 0x100043A00, symSize: 0x50 }
  - { offsetInCU: 0x68D1C, offset: 0x68D1C, size: 0x8, addend: 0x0, symName: __ZNSt3__19make_pairB8ue170006IRPN7tinyobj7index_tES3_EENS_4pairINS_18__unwrap_ref_decayIT_E4typeENS6_IT0_E4typeEEEOS7_OSA_, symObjAddr: 0x43110, symBinAddr: 0x100043A50, symSize: 0x30 }
  - { offsetInCU: 0x68DBE, offset: 0x68DBE, size: 0x8, addend: 0x0, symName: __ZNSt3__110destroy_atB8ue170006IN7tinyobj7index_tELi0EEEvPT_, symObjAddr: 0x434D0, symBinAddr: 0x100043E10, symSize: 0x20 }
  - { offsetInCU: 0x68DF5, offset: 0x68DF5, size: 0x8, addend: 0x0, symName: __ZNSt3__112__destroy_atB8ue170006IN7tinyobj7index_tELi0EEEvPT_, symObjAddr: 0x434F0, symBinAddr: 0x100043E30, symSize: 0x10 }
  - { offsetInCU: 0x68E2C, offset: 0x68E2C, size: 0x8, addend: 0x0, symName: __ZNSt3__122__make_exception_guardB8ue170006INS_6vectorIjNS_9allocatorIjEEE16__destroy_vectorEEENS_28__exception_guard_exceptionsIT_EES7_, symObjAddr: 0x43730, symBinAddr: 0x100044070, symSize: 0x40 }
  - { offsetInCU: 0x68E61, offset: 0x68E61, size: 0x8, addend: 0x0, symName: __ZNSt3__130__uninitialized_allocator_copyB8ue170006INS_9allocatorIjEEPjS3_S3_EET2_RT_T0_T1_S4_, symObjAddr: 0x43980, symBinAddr: 0x1000442C0, symSize: 0x80 }
  - { offsetInCU: 0x68F00, offset: 0x68F00, size: 0x8, addend: 0x0, symName: __ZNSt3__114__unwrap_rangeB8ue170006IPjS1_EEDaT_T0_, symObjAddr: 0x43A00, symBinAddr: 0x100044340, symSize: 0x40 }
  - { offsetInCU: 0x68F4C, offset: 0x68F4C, size: 0x8, addend: 0x0, symName: __ZNSt3__135__uninitialized_allocator_copy_implB8ue170006INS_9allocatorIjEEjjjLPv0EEEPT2_RT_PT0_S9_S5_, symObjAddr: 0x43A40, symBinAddr: 0x100044380, symSize: 0x30 }
  - { offsetInCU: 0x68FCE, offset: 0x68FCE, size: 0x8, addend: 0x0, symName: __ZNSt3__113__unwrap_iterB8ue170006IPjNS_18__unwrap_iter_implIS1_Lb1EEELi0EEEDTclsrT0_8__unwrapclsr3stdE7declvalIT_EEEES5_, symObjAddr: 0x43A70, symBinAddr: 0x1000443B0, symSize: 0x20 }
  - { offsetInCU: 0x69012, offset: 0x69012, size: 0x8, addend: 0x0, symName: __ZNSt3__113__rewrap_iterB8ue170006IPjS1_NS_18__unwrap_iter_implIS1_Lb1EEEEET_S4_T0_, symObjAddr: 0x43A90, symBinAddr: 0x1000443D0, symSize: 0x40 }
  - { offsetInCU: 0x691B2, offset: 0x691B2, size: 0x8, addend: 0x0, symName: __ZNSt3__14copyB8ue170006IPjS1_EET0_T_S3_S2_, symObjAddr: 0x43B80, symBinAddr: 0x1000444C0, symSize: 0x40 }
  - { offsetInCU: 0x6920C, offset: 0x6920C, size: 0x8, addend: 0x0, symName: __ZNSt3__16__copyB8ue170006INS_17_ClassicAlgPolicyEPjS2_S2_EENS_4pairIT0_T2_EES4_T1_S5_, symObjAddr: 0x43BC0, symBinAddr: 0x100044500, symSize: 0x40 }
  - { offsetInCU: 0x69278, offset: 0x69278, size: 0x8, addend: 0x0, symName: __ZNSt3__123__dispatch_copy_or_moveB8ue170006INS_17_ClassicAlgPolicyENS_11__copy_loopIS1_EENS_14__copy_trivialEPjS5_S5_EENS_4pairIT2_T4_EES7_T3_S8_, symObjAddr: 0x43C00, symBinAddr: 0x100044540, symSize: 0x40 }
  - { offsetInCU: 0x692F6, offset: 0x692F6, size: 0x8, addend: 0x0, symName: __ZNSt3__121__unwrap_and_dispatchB8ue170006INS_10__overloadINS_11__copy_loopINS_17_ClassicAlgPolicyEEENS_14__copy_trivialEEEPjS7_S7_Li0EEENS_4pairIT0_T2_EES9_T1_SA_, symObjAddr: 0x43C40, symBinAddr: 0x100044580, symSize: 0xB0 }
  - { offsetInCU: 0x69385, offset: 0x69385, size: 0x8, addend: 0x0, symName: __ZNSt3__19make_pairB8ue170006IPjS1_EENS_4pairINS_18__unwrap_ref_decayIT_E4typeENS3_IT0_E4typeEEEOS4_OS7_, symObjAddr: 0x43D30, symBinAddr: 0x100044670, symSize: 0x30 }
  - { offsetInCU: 0x693D4, offset: 0x693D4, size: 0x8, addend: 0x0, symName: __ZNSt3__114__rewrap_rangeB8ue170006IPjS1_S1_EET0_S2_T1_, symObjAddr: 0x43D60, symBinAddr: 0x1000446A0, symSize: 0x30 }
  - { offsetInCU: 0x69429, offset: 0x69429, size: 0x8, addend: 0x0, symName: __ZNSt3__119__copy_trivial_implB8ue170006IjjEENS_4pairIPT_PT0_EES3_S3_S5_, symObjAddr: 0x43D90, symBinAddr: 0x1000446D0, symSize: 0x70 }
  - { offsetInCU: 0x69491, offset: 0x69491, size: 0x8, addend: 0x0, symName: __ZNSt3__119__constexpr_memmoveB8ue170006IjjLi0EEEPT_S2_PT0_NS_15__element_countE, symObjAddr: 0x43E00, symBinAddr: 0x100044740, symSize: 0x50 }
  - { offsetInCU: 0x694FF, offset: 0x694FF, size: 0x8, addend: 0x0, symName: __ZNSt3__19make_pairB8ue170006IRPjS1_EENS_4pairINS_18__unwrap_ref_decayIT_E4typeENS4_IT0_E4typeEEEOS5_OS8_, symObjAddr: 0x43E50, symBinAddr: 0x100044790, symSize: 0x30 }
  - { offsetInCU: 0x695A1, offset: 0x695A1, size: 0x8, addend: 0x0, symName: __ZNSt3__122__make_exception_guardB8ue170006INS_6vectorIN7tinyobj5tag_tENS_9allocatorIS3_EEE16__destroy_vectorEEENS_28__exception_guard_exceptionsIT_EES9_, symObjAddr: 0x442C0, symBinAddr: 0x100044C00, symSize: 0x40 }
  - { offsetInCU: 0x695D6, offset: 0x695D6, size: 0x8, addend: 0x0, symName: __ZNSt3__119__allocate_at_leastB8ue170006INS_9allocatorIN7tinyobj7shape_tEEEEENS_19__allocation_resultINS_16allocator_traitsIT_E7pointerEEERS7_m, symObjAddr: 0x44A00, symBinAddr: 0x100045340, symSize: 0x40 }
  - { offsetInCU: 0x69619, offset: 0x69619, size: 0x8, addend: 0x0, symName: __ZNSt3__142__uninitialized_allocator_move_if_noexceptB8ue170006INS_9allocatorIN7tinyobj7shape_tEEENS_16reverse_iteratorIPS3_EES7_S7_EET2_RT_T0_T1_S8_, symObjAddr: 0x44C70, symBinAddr: 0x1000455B0, symSize: 0x180 }
  - { offsetInCU: 0x696BA, offset: 0x696BA, size: 0x8, addend: 0x0, symName: __ZNSt3__14swapB8ue170006IPN7tinyobj7shape_tEEENS_9enable_ifIXaasr21is_move_constructibleIT_EE5valuesr18is_move_assignableIS5_EE5valueEvE4typeERS5_S8_, symObjAddr: 0x44E40, symBinAddr: 0x100045780, symSize: 0x40 }
  - { offsetInCU: 0x6970B, offset: 0x6970B, size: 0x8, addend: 0x0, symName: __ZNSt3__122__make_exception_guardB8ue170006INS_29_AllocatorDestroyRangeReverseINS_9allocatorIN7tinyobj7shape_tEEENS_16reverse_iteratorIPS4_EEEEEENS_28__exception_guard_exceptionsIT_EESB_, symObjAddr: 0x44F30, symBinAddr: 0x100045870, symSize: 0x60 }
  - { offsetInCU: 0x69740, offset: 0x69740, size: 0x8, addend: 0x0, symName: __ZNSt3__1neB8ue170006IPN7tinyobj7shape_tES3_EEbRKNS_16reverse_iteratorIT_EERKNS4_IT0_EE, symObjAddr: 0x44FD0, symBinAddr: 0x100045910, symSize: 0x40 }
  - { offsetInCU: 0x6978C, offset: 0x6978C, size: 0x8, addend: 0x0, symName: __ZNSt3__112__to_addressB8ue170006INS_16reverse_iteratorIPN7tinyobj7shape_tEEEvEEu7__decayIDTclsr19__to_address_helperIT_EE6__callclsr3stdE7declvalIRKS6_EEEEES8_, symObjAddr: 0x45040, symBinAddr: 0x100045980, symSize: 0x20 }
  - { offsetInCU: 0x697C2, offset: 0x697C2, size: 0x8, addend: 0x0, symName: __ZNSt3__112construct_atB8ue170006IN7tinyobj7shape_tEJS2_EPS2_EEPT_S5_DpOT0_, symObjAddr: 0x451A0, symBinAddr: 0x100045AE0, symSize: 0x40 }
  - { offsetInCU: 0x6985D, offset: 0x6985D, size: 0x8, addend: 0x0, symName: __ZNSt3__14prevB8ue170006IPN7tinyobj7shape_tEEENS_9enable_ifIXsr29__has_input_iterator_categoryIT_EE5valueES5_E4typeES5_NS_15iterator_traitsIS5_E15difference_typeE, symObjAddr: 0x45880, symBinAddr: 0x1000461C0, symSize: 0x30 }
  - { offsetInCU: 0x698A0, offset: 0x698A0, size: 0x8, addend: 0x0, symName: __ZNSt3__19__advanceB8ue170006IPN7tinyobj7shape_tEEEvRT_NS_15iterator_traitsIS4_E15difference_typeENS_26random_access_iterator_tagE, symObjAddr: 0x458E0, symBinAddr: 0x100046220, symSize: 0x30 }
  - { offsetInCU: 0x698EB, offset: 0x698EB, size: 0x8, addend: 0x0, symName: __ZNSt3__119__allocator_destroyB8ue170006INS_9allocatorIN7tinyobj7shape_tEEENS_16reverse_iteratorINS5_IPS3_EEEES8_EEvRT_T0_T1_, symObjAddr: 0x45A40, symBinAddr: 0x100046380, symSize: 0x70 }
  - { offsetInCU: 0x6994E, offset: 0x6994E, size: 0x8, addend: 0x0, symName: __ZNSt3__1neB8ue170006INS_16reverse_iteratorIPN7tinyobj7shape_tEEES5_EEbRKNS1_IT_EERKNS1_IT0_EE, symObjAddr: 0x45AE0, symBinAddr: 0x100046420, symSize: 0x50 }
  - { offsetInCU: 0x6999A, offset: 0x6999A, size: 0x8, addend: 0x0, symName: __ZNSt3__112__to_addressB8ue170006INS_16reverse_iteratorINS1_IPN7tinyobj7shape_tEEEEEvEEu7__decayIDTclsr19__to_address_helperIT_EE6__callclsr3stdE7declvalIRKS7_EEEEES9_, symObjAddr: 0x45B30, symBinAddr: 0x100046470, symSize: 0x20 }
  - { offsetInCU: 0x699F9, offset: 0x699F9, size: 0x8, addend: 0x0, symName: __ZNSt3__14prevB8ue170006INS_16reverse_iteratorIPN7tinyobj7shape_tEEEEENS_9enable_ifIXsr29__has_input_iterator_categoryIT_EE5valueES7_E4typeES7_NS_15iterator_traitsIS7_E15difference_typeE, symObjAddr: 0x45C30, symBinAddr: 0x100046570, symSize: 0x40 }
  - { offsetInCU: 0x69A3C, offset: 0x69A3C, size: 0x8, addend: 0x0, symName: __ZNSt3__19__advanceB8ue170006INS_16reverse_iteratorIPN7tinyobj7shape_tEEEEEvRT_NS_15iterator_traitsIS6_E15difference_typeENS_26random_access_iterator_tagE, symObjAddr: 0x45CA0, symBinAddr: 0x1000465E0, symSize: 0x30 }
  - { offsetInCU: 0x69A86, offset: 0x69A86, size: 0x8, addend: 0x0, symName: __ZNSt3__112construct_atB8ue170006IiJEPiEEPT_S3_DpOT0_, symObjAddr: 0x46E30, symBinAddr: 0x100047770, symSize: 0x20 }
  - { offsetInCU: 0x69AE4, offset: 0x69AE4, size: 0x8, addend: 0x0, symName: __ZNSt3__112construct_atB8ue170006IfJEPfEEPT_S3_DpOT0_, symObjAddr: 0x47190, symBinAddr: 0x100047AD0, symSize: 0x20 }
  - { offsetInCU: 0x69B42, offset: 0x69B42, size: 0x8, addend: 0x0, symName: __ZNSt3__112construct_atB8ue170006INS_12basic_stringIcNS_11char_traitsIcEENS_9allocatorIcEEEEJEPS6_EEPT_S9_DpOT0_, symObjAddr: 0x474F0, symBinAddr: 0x100047E30, symSize: 0x30 }
  - { offsetInCU: 0x69BA0, offset: 0x69BA0, size: 0x8, addend: 0x0, symName: __ZNSt3__112construct_atB8ue170006IN7tinyobj5tag_tEJRKS2_EPS2_EEPT_S7_DpOT0_, symObjAddr: 0x47760, symBinAddr: 0x1000480A0, symSize: 0x40 }
  - { offsetInCU: 0x69C12, offset: 0x69C12, size: 0x8, addend: 0x0, symName: __ZNSt3__142__uninitialized_allocator_move_if_noexceptB8ue170006INS_9allocatorIN7tinyobj5tag_tEEENS_16reverse_iteratorIPS3_EES7_S7_EET2_RT_T0_T1_S8_, symObjAddr: 0x47B10, symBinAddr: 0x100048450, symSize: 0x180 }
  - { offsetInCU: 0x69CB3, offset: 0x69CB3, size: 0x8, addend: 0x0, symName: __ZNSt3__14swapB8ue170006IPN7tinyobj5tag_tEEENS_9enable_ifIXaasr21is_move_constructibleIT_EE5valuesr18is_move_assignableIS5_EE5valueEvE4typeERS5_S8_, symObjAddr: 0x47C90, symBinAddr: 0x1000485D0, symSize: 0x40 }
  - { offsetInCU: 0x69D04, offset: 0x69D04, size: 0x8, addend: 0x0, symName: __ZNSt3__122__make_exception_guardB8ue170006INS_29_AllocatorDestroyRangeReverseINS_9allocatorIN7tinyobj5tag_tEEENS_16reverse_iteratorIPS4_EEEEEENS_28__exception_guard_exceptionsIT_EESB_, symObjAddr: 0x47CD0, symBinAddr: 0x100048610, symSize: 0x60 }
  - { offsetInCU: 0x69D39, offset: 0x69D39, size: 0x8, addend: 0x0, symName: __ZNSt3__112construct_atB8ue170006IN7tinyobj5tag_tEJS2_EPS2_EEPT_S5_DpOT0_, symObjAddr: 0x47EC0, symBinAddr: 0x100048800, symSize: 0x40 }
  - { offsetInCU: 0x69DAC, offset: 0x69DAC, size: 0x8, addend: 0x0, symName: __ZNSt3__119__allocator_destroyB8ue170006INS_9allocatorIN7tinyobj5tag_tEEENS_16reverse_iteratorINS5_IPS3_EEEES8_EEvRT_T0_T1_, symObjAddr: 0x482D0, symBinAddr: 0x100048C10, symSize: 0x70 }
  - { offsetInCU: 0x69E0F, offset: 0x69E0F, size: 0x8, addend: 0x0, symName: __ZNSt3__1neB8ue170006INS_16reverse_iteratorIPN7tinyobj5tag_tEEES5_EEbRKNS1_IT_EERKNS1_IT0_EE, symObjAddr: 0x48370, symBinAddr: 0x100048CB0, symSize: 0x50 }
  - { offsetInCU: 0x69E5B, offset: 0x69E5B, size: 0x8, addend: 0x0, symName: __ZNSt3__112__to_addressB8ue170006INS_16reverse_iteratorINS1_IPN7tinyobj5tag_tEEEEEvEEu7__decayIDTclsr19__to_address_helperIT_EE6__callclsr3stdE7declvalIRKS7_EEEEES9_, symObjAddr: 0x483C0, symBinAddr: 0x100048D00, symSize: 0x20 }
  - { offsetInCU: 0x69EBA, offset: 0x69EBA, size: 0x8, addend: 0x0, symName: __ZNSt3__14prevB8ue170006INS_16reverse_iteratorIPN7tinyobj5tag_tEEEEENS_9enable_ifIXsr29__has_input_iterator_categoryIT_EE5valueES7_E4typeES7_NS_15iterator_traitsIS7_E15difference_typeE, symObjAddr: 0x484C0, symBinAddr: 0x100048E00, symSize: 0x40 }
  - { offsetInCU: 0x69EFD, offset: 0x69EFD, size: 0x8, addend: 0x0, symName: __ZNSt3__19__advanceB8ue170006INS_16reverse_iteratorIPN7tinyobj5tag_tEEEEEvRT_NS_15iterator_traitsIS6_E15difference_typeENS_26random_access_iterator_tagE, symObjAddr: 0x48530, symBinAddr: 0x100048E70, symSize: 0x30 }
  - { offsetInCU: 0x69F47, offset: 0x69F47, size: 0x8, addend: 0x0, symName: __ZNSt3__116__swap_allocatorB8ue170006INS_9allocatorIfEEEEvRT_S4_NS_17integral_constantIbLb0EEE, symObjAddr: 0x48800, symBinAddr: 0x100049140, symSize: 0x10 }
  - { offsetInCU: 0x69F8B, offset: 0x69F8B, size: 0x8, addend: 0x0, symName: __ZNSt3__116__swap_allocatorB8ue170006INS_9allocatorIN7tinyobj13skin_weight_tEEEEEvRT_S6_NS_17integral_constantIbLb0EEE, symObjAddr: 0x48810, symBinAddr: 0x100049150, symSize: 0x10 }
  - { offsetInCU: 0x69FF6, offset: 0x69FF6, size: 0x8, addend: 0x0, symName: __ZNSt3__112construct_atB8ue170006IN7tinyobj7index_tEJRKS2_EPS2_EEPT_S7_DpOT0_, symObjAddr: 0x493A0, symBinAddr: 0x100049CE0, symSize: 0x30 }
  - { offsetInCU: 0x6A068, offset: 0x6A068, size: 0x8, addend: 0x0, symName: __ZNSt3__142__uninitialized_allocator_move_if_noexceptB8ue170006INS_9allocatorIN7tinyobj7index_tEEENS_16reverse_iteratorIPS3_EES7_S3_vEET1_RT_T0_SB_S8_, symObjAddr: 0x497E0, symBinAddr: 0x10004A120, symSize: 0x70 }
  - { offsetInCU: 0x6A0E5, offset: 0x6A0E5, size: 0x8, addend: 0x0, symName: __ZNSt3__14swapB8ue170006IPN7tinyobj7index_tEEENS_9enable_ifIXaasr21is_move_constructibleIT_EE5valuesr18is_move_assignableIS5_EE5valueEvE4typeERS5_S8_, symObjAddr: 0x498A0, symBinAddr: 0x10004A1E0, symSize: 0x40 }
  - { offsetInCU: 0x6A136, offset: 0x6A136, size: 0x8, addend: 0x0, symName: __ZNSt3__14moveB8ue170006INS_16reverse_iteratorIPN7tinyobj7index_tEEES5_EET0_T_S7_S6_, symObjAddr: 0x498E0, symBinAddr: 0x10004A220, symSize: 0x80 }
  - { offsetInCU: 0x6A190, offset: 0x6A190, size: 0x8, addend: 0x0, symName: __ZNSt3__16__moveB8ue170006INS_17_ClassicAlgPolicyENS_16reverse_iteratorIPN7tinyobj7index_tEEES6_S6_EENS_4pairIT0_T2_EES8_T1_S9_, symObjAddr: 0x49960, symBinAddr: 0x10004A2A0, symSize: 0x90 }
  - { offsetInCU: 0x6A1FC, offset: 0x6A1FC, size: 0x8, addend: 0x0, symName: __ZNSt3__123__dispatch_copy_or_moveB8ue170006INS_17_ClassicAlgPolicyENS_11__move_loopIS1_EENS_14__move_trivialENS_16reverse_iteratorIPN7tinyobj7index_tEEES9_S9_EENS_4pairIT2_T4_EESB_T3_SC_, symObjAddr: 0x499F0, symBinAddr: 0x10004A330, symSize: 0x90 }
  - { offsetInCU: 0x6A27A, offset: 0x6A27A, size: 0x8, addend: 0x0, symName: __ZNSt3__121__unwrap_and_dispatchB8ue170006INS_10__overloadINS_11__move_loopINS_17_ClassicAlgPolicyEEENS_14__move_trivialEEENS_16reverse_iteratorIPN7tinyobj7index_tEEESB_SB_Li0EEENS_4pairIT0_T2_EESD_T1_SE_, symObjAddr: 0x49A80, symBinAddr: 0x10004A3C0, symSize: 0x210 }
  - { offsetInCU: 0x6A309, offset: 0x6A309, size: 0x8, addend: 0x0, symName: __ZNSt3__114__unwrap_rangeB8ue170006INS_16reverse_iteratorIPN7tinyobj7index_tEEES5_EEDaT_T0_, symObjAddr: 0x49C90, symBinAddr: 0x10004A5D0, symSize: 0x60 }
  - { offsetInCU: 0x6A429, offset: 0x6A429, size: 0x8, addend: 0x0, symName: __ZNSt3__113__unwrap_iterB8ue170006INS_16reverse_iteratorIPN7tinyobj7index_tEEENS_18__unwrap_iter_implIS5_Lb0EEELi0EEEDTclsrT0_8__unwrapclsr3stdE7declvalIT_EEEES9_, symObjAddr: 0x49D90, symBinAddr: 0x10004A6D0, symSize: 0x40 }
  - { offsetInCU: 0x6A46D, offset: 0x6A46D, size: 0x8, addend: 0x0, symName: __ZNSt3__19make_pairB8ue170006INS_16reverse_iteratorIPN7tinyobj7index_tEEES5_EENS_4pairINS_18__unwrap_ref_decayIT_E4typeENS7_IT0_E4typeEEEOS8_OSB_, symObjAddr: 0x49DD0, symBinAddr: 0x10004A710, symSize: 0x30 }
  - { offsetInCU: 0x6A4BC, offset: 0x6A4BC, size: 0x8, addend: 0x0, symName: __ZNSt3__114__rewrap_rangeB8ue170006INS_16reverse_iteratorIPN7tinyobj7index_tEEES5_S5_EET0_S6_T1_, symObjAddr: 0x49E00, symBinAddr: 0x10004A740, symSize: 0x60 }
  - { offsetInCU: 0x6A511, offset: 0x6A511, size: 0x8, addend: 0x0, symName: __ZNSt3__113__rewrap_iterB8ue170006INS_16reverse_iteratorIPN7tinyobj7index_tEEES5_NS_18__unwrap_iter_implIS5_Lb0EEEEET_S8_T0_, symObjAddr: 0x49E60, symBinAddr: 0x10004A7A0, symSize: 0x70 }
  - { offsetInCU: 0x6A5B6, offset: 0x6A5B6, size: 0x8, addend: 0x0, symName: __ZNSt3__1neB8ue170006IPN7tinyobj7index_tES3_EEbRKNS_16reverse_iteratorIT_EERKNS4_IT0_EE, symObjAddr: 0x49FD0, symBinAddr: 0x10004A910, symSize: 0x40 }
  - { offsetInCU: 0x6A66F, offset: 0x6A66F, size: 0x8, addend: 0x0, symName: __ZNSt3__120__throw_out_of_rangeB8ue170006EPKc, symObjAddr: 0x4A350, symBinAddr: 0x10004AC90, symSize: 0x70 }
  - { offsetInCU: 0x6A699, offset: 0x6A699, size: 0x8, addend: 0x0, symName: __ZNSt3__112__to_addressB8ue170006IPKcEEPT_S4_, symObjAddr: 0x4A9F0, symBinAddr: 0x10004B330, symSize: 0x10 }
  - { offsetInCU: 0x6A6F5, offset: 0x6A6F5, size: 0x8, addend: 0x0, symName: __ZNSt3__112construct_atB8ue170006IPKcJEPS2_EEPT_S5_DpOT0_, symObjAddr: 0x4AA60, symBinAddr: 0x10004B3A0, symSize: 0x20 }
  - { offsetInCU: 0x6A753, offset: 0x6A753, size: 0x8, addend: 0x0, symName: __ZNSt3__119__allocate_at_leastB8ue170006INS_9allocatorIPKcEEEENS_19__allocation_resultINS_16allocator_traitsIT_E7pointerEEERS7_m, symObjAddr: 0x4AD40, symBinAddr: 0x10004B680, symSize: 0x40 }
  - { offsetInCU: 0x6A796, offset: 0x6A796, size: 0x8, addend: 0x0, symName: __ZNSt3__142__uninitialized_allocator_move_if_noexceptB8ue170006INS_9allocatorIPKcEENS_16reverse_iteratorIPS3_EES7_S3_vEET1_RT_T0_SB_S8_, symObjAddr: 0x4B030, symBinAddr: 0x10004B970, symSize: 0x70 }
  - { offsetInCU: 0x6A813, offset: 0x6A813, size: 0x8, addend: 0x0, symName: __ZNSt3__14swapB8ue170006IPPKcEENS_9enable_ifIXaasr21is_move_constructibleIT_EE5valuesr18is_move_assignableIS5_EE5valueEvE4typeERS5_S8_, symObjAddr: 0x4B0F0, symBinAddr: 0x10004BA30, symSize: 0x40 }
  - { offsetInCU: 0x6A864, offset: 0x6A864, size: 0x8, addend: 0x0, symName: __ZNSt3__14moveB8ue170006INS_16reverse_iteratorIPPKcEES5_EET0_T_S7_S6_, symObjAddr: 0x4B200, symBinAddr: 0x10004BB40, symSize: 0x80 }
  - { offsetInCU: 0x6A8BE, offset: 0x6A8BE, size: 0x8, addend: 0x0, symName: __ZNSt3__16__moveB8ue170006INS_17_ClassicAlgPolicyENS_16reverse_iteratorIPPKcEES6_S6_EENS_4pairIT0_T2_EES8_T1_S9_, symObjAddr: 0x4B280, symBinAddr: 0x10004BBC0, symSize: 0x90 }
  - { offsetInCU: 0x6A92A, offset: 0x6A92A, size: 0x8, addend: 0x0, symName: __ZNSt3__123__dispatch_copy_or_moveB8ue170006INS_17_ClassicAlgPolicyENS_11__move_loopIS1_EENS_14__move_trivialENS_16reverse_iteratorIPPKcEES9_S9_EENS_4pairIT2_T4_EESB_T3_SC_, symObjAddr: 0x4B310, symBinAddr: 0x10004BC50, symSize: 0x90 }
  - { offsetInCU: 0x6A9A8, offset: 0x6A9A8, size: 0x8, addend: 0x0, symName: __ZNSt3__121__unwrap_and_dispatchB8ue170006INS_10__overloadINS_11__move_loopINS_17_ClassicAlgPolicyEEENS_14__move_trivialEEENS_16reverse_iteratorIPPKcEESB_SB_Li0EEENS_4pairIT0_T2_EESD_T1_SE_, symObjAddr: 0x4B3A0, symBinAddr: 0x10004BCE0, symSize: 0x210 }
  - { offsetInCU: 0x6AA37, offset: 0x6AA37, size: 0x8, addend: 0x0, symName: __ZNSt3__114__unwrap_rangeB8ue170006INS_16reverse_iteratorIPPKcEES5_EEDaT_T0_, symObjAddr: 0x4B5B0, symBinAddr: 0x10004BEF0, symSize: 0x60 }
  - { offsetInCU: 0x6AB57, offset: 0x6AB57, size: 0x8, addend: 0x0, symName: __ZNSt3__113__unwrap_iterB8ue170006INS_16reverse_iteratorIPPKcEENS_18__unwrap_iter_implIS5_Lb0EEELi0EEEDTclsrT0_8__unwrapclsr3stdE7declvalIT_EEEES9_, symObjAddr: 0x4B6B0, symBinAddr: 0x10004BFF0, symSize: 0x40 }
  - { offsetInCU: 0x6AB9B, offset: 0x6AB9B, size: 0x8, addend: 0x0, symName: __ZNSt3__19make_pairB8ue170006INS_16reverse_iteratorIPPKcEES5_EENS_4pairINS_18__unwrap_ref_decayIT_E4typeENS7_IT0_E4typeEEEOS8_OSB_, symObjAddr: 0x4B6F0, symBinAddr: 0x10004C030, symSize: 0x30 }
  - { offsetInCU: 0x6ABEA, offset: 0x6ABEA, size: 0x8, addend: 0x0, symName: __ZNSt3__114__rewrap_rangeB8ue170006INS_16reverse_iteratorIPPKcEES5_S5_EET0_S6_T1_, symObjAddr: 0x4B720, symBinAddr: 0x10004C060, symSize: 0x60 }
  - { offsetInCU: 0x6AC3F, offset: 0x6AC3F, size: 0x8, addend: 0x0, symName: __ZNSt3__113__rewrap_iterB8ue170006INS_16reverse_iteratorIPPKcEES5_NS_18__unwrap_iter_implIS5_Lb0EEEEET_S8_T0_, symObjAddr: 0x4B780, symBinAddr: 0x10004C0C0, symSize: 0x70 }
  - { offsetInCU: 0x6ACE4, offset: 0x6ACE4, size: 0x8, addend: 0x0, symName: __ZNSt3__1neB8ue170006IPPKcS3_EEbRKNS_16reverse_iteratorIT_EERKNS4_IT0_EE, symObjAddr: 0x4B8F0, symBinAddr: 0x10004C230, symSize: 0x40 }
  - { offsetInCU: 0x6AD9C, offset: 0x6AD9C, size: 0x8, addend: 0x0, symName: __ZNSt3__110destroy_atB8ue170006IPKcLi0EEEvPT_, symObjAddr: 0x4BC50, symBinAddr: 0x10004C590, symSize: 0x20 }
  - { offsetInCU: 0x6ADD3, offset: 0x6ADD3, size: 0x8, addend: 0x0, symName: __ZNSt3__112__destroy_atB8ue170006IPKcLi0EEEvPT_, symObjAddr: 0x4BC70, symBinAddr: 0x10004C5B0, symSize: 0x10 }
  - { offsetInCU: 0x6AE0A, offset: 0x6AE0A, size: 0x8, addend: 0x0, symName: __ZNSt3__118__str_find_last_ofB8ue170006IcmNS_11char_traitsIcEELm18446744073709551615EEET0_PKT_S3_S6_S3_S3_, symObjAddr: 0x4C160, symBinAddr: 0x10004CAA0, symSize: 0xC0 }
  - { offsetInCU: 0x6AEE0, offset: 0x6AEE0, size: 0x8, addend: 0x0, symName: __ZNSt3__18distanceB8ue170006IPK6VertexEENS_15iterator_traitsIT_E15difference_typeES5_S5_, symObjAddr: 0x65FB0, symBinAddr: 0x1000668F0, symSize: 0x30 }
  - { offsetInCU: 0x6AF23, offset: 0x6AF23, size: 0x8, addend: 0x0, symName: __ZNSt3__14nextB8ue170006IPK6VertexEENS_9enable_ifIXsr29__has_input_iterator_categoryIT_EE5valueES5_E4typeES5_NS_15iterator_traitsIS5_E15difference_typeE, symObjAddr: 0x66010, symBinAddr: 0x100066950, symSize: 0x30 }
  - { offsetInCU: 0x6AF66, offset: 0x6AF66, size: 0x8, addend: 0x0, symName: __ZNSt3__14copyB8ue170006IPK6VertexPS1_EET0_T_S6_S5_, symObjAddr: 0x66040, symBinAddr: 0x100066980, symSize: 0x40 }
  - { offsetInCU: 0x6AFC0, offset: 0x6AFC0, size: 0x8, addend: 0x0, symName: __ZNSt3__16__copyB8ue170006INS_17_ClassicAlgPolicyEPK6VertexS4_PS2_EENS_4pairIT0_T2_EES7_T1_S8_, symObjAddr: 0x66110, symBinAddr: 0x100066A50, symSize: 0x40 }
  - { offsetInCU: 0x6B02C, offset: 0x6B02C, size: 0x8, addend: 0x0, symName: __ZNSt3__19__advanceB8ue170006IPK6VertexEEvRT_NS_15iterator_traitsIS4_E15difference_typeENS_26random_access_iterator_tagE, symObjAddr: 0x663F0, symBinAddr: 0x100066D30, symSize: 0x20 }
  - { offsetInCU: 0x6B076, offset: 0x6B076, size: 0x8, addend: 0x0, symName: __ZNSt3__130__uninitialized_allocator_copyB8ue170006INS_9allocatorI6VertexEEPKS2_S5_PS2_EET2_RT_T0_T1_S7_, symObjAddr: 0x66440, symBinAddr: 0x100066D80, symSize: 0x80 }
  - { offsetInCU: 0x6B115, offset: 0x6B115, size: 0x8, addend: 0x0, symName: __ZNSt3__114__unwrap_rangeB8ue170006IPK6VertexS3_EEDaT_T0_, symObjAddr: 0x66540, symBinAddr: 0x100066E80, symSize: 0x40 }
  - { offsetInCU: 0x6B161, offset: 0x6B161, size: 0x8, addend: 0x0, symName: __ZNSt3__135__uninitialized_allocator_copy_implB8ue170006INS_9allocatorI6VertexEEKS2_S2_S2_LPv0EEEPT2_RT_PT0_SB_S7_, symObjAddr: 0x66580, symBinAddr: 0x100066EC0, symSize: 0x30 }
  - { offsetInCU: 0x6B1E3, offset: 0x6B1E3, size: 0x8, addend: 0x0, symName: __ZNSt3__113__unwrap_iterB8ue170006IP6VertexNS_18__unwrap_iter_implIS2_Lb1EEELi0EEEDTclsrT0_8__unwrapclsr3stdE7declvalIT_EEEES6_, symObjAddr: 0x665B0, symBinAddr: 0x100066EF0, symSize: 0x20 }
  - { offsetInCU: 0x6B227, offset: 0x6B227, size: 0x8, addend: 0x0, symName: __ZNSt3__113__rewrap_iterB8ue170006IP6VertexS2_NS_18__unwrap_iter_implIS2_Lb1EEEEET_S5_T0_, symObjAddr: 0x665D0, symBinAddr: 0x100066F10, symSize: 0x40 }
  - { offsetInCU: 0x6B398, offset: 0x6B398, size: 0x8, addend: 0x0, symName: __ZNSt3__113__unwrap_iterB8ue170006IPK6VertexNS_18__unwrap_iter_implIS3_Lb1EEELi0EEEDTclsrT0_8__unwrapclsr3stdE7declvalIT_EEEES7_, symObjAddr: 0x66660, symBinAddr: 0x100066FA0, symSize: 0x20 }
  - { offsetInCU: 0x6B42F, offset: 0x6B42F, size: 0x8, addend: 0x0, symName: __ZNSt3__112__to_addressB8ue170006IK6VertexEEPT_S4_, symObjAddr: 0x666D0, symBinAddr: 0x100067010, symSize: 0x10 }
  - { offsetInCU: 0x6B4B7, offset: 0x6B4B7, size: 0x8, addend: 0x0, symName: __ZNSt3__112__to_addressB8ue170006I6VertexEEPT_S3_, symObjAddr: 0x66730, symBinAddr: 0x100067070, symSize: 0x10 }
  - { offsetInCU: 0x6B4EC, offset: 0x6B4EC, size: 0x8, addend: 0x0, symName: __ZNSt3__123__dispatch_copy_or_moveB8ue170006INS_17_ClassicAlgPolicyENS_11__copy_loopIS1_EENS_14__copy_trivialEPK6VertexS7_PS5_EENS_4pairIT2_T4_EESA_T3_SB_, symObjAddr: 0x667E0, symBinAddr: 0x100067120, symSize: 0x40 }
  - { offsetInCU: 0x6B56A, offset: 0x6B56A, size: 0x8, addend: 0x0, symName: __ZNSt3__121__unwrap_and_dispatchB8ue170006INS_10__overloadINS_11__copy_loopINS_17_ClassicAlgPolicyEEENS_14__copy_trivialEEEPK6VertexS9_PS7_Li0EEENS_4pairIT0_T2_EESC_T1_SD_, symObjAddr: 0x66820, symBinAddr: 0x100067160, symSize: 0xB0 }
  - { offsetInCU: 0x6B6FC, offset: 0x6B6FC, size: 0x8, addend: 0x0, symName: __ZNSt3__19make_pairB8ue170006IPK6VertexPS1_EENS_4pairINS_18__unwrap_ref_decayIT_E4typeENS6_IT0_E4typeEEEOS7_OSA_, symObjAddr: 0x66910, symBinAddr: 0x100067250, symSize: 0x30 }
  - { offsetInCU: 0x6B74B, offset: 0x6B74B, size: 0x8, addend: 0x0, symName: __ZNSt3__114__rewrap_rangeB8ue170006IPK6VertexS3_S3_EET0_S4_T1_, symObjAddr: 0x66940, symBinAddr: 0x100067280, symSize: 0x30 }
  - { offsetInCU: 0x6B7A0, offset: 0x6B7A0, size: 0x8, addend: 0x0, symName: __ZNSt3__119__copy_trivial_implB8ue170006IK6VertexS1_EENS_4pairIPT_PT0_EES5_S5_S7_, symObjAddr: 0x66970, symBinAddr: 0x1000672B0, symSize: 0x70 }
  - { offsetInCU: 0x6B808, offset: 0x6B808, size: 0x8, addend: 0x0, symName: __ZNSt3__119__constexpr_memmoveB8ue170006I6VertexKS1_Li0EEEPT_S4_PT0_NS_15__element_countE, symObjAddr: 0x669E0, symBinAddr: 0x100067320, symSize: 0x50 }
  - { offsetInCU: 0x6B876, offset: 0x6B876, size: 0x8, addend: 0x0, symName: __ZNSt3__19make_pairB8ue170006IRPK6VertexPS1_EENS_4pairINS_18__unwrap_ref_decayIT_E4typeENS7_IT0_E4typeEEEOS8_OSB_, symObjAddr: 0x66A30, symBinAddr: 0x100067370, symSize: 0x30 }
  - { offsetInCU: 0x6B8C5, offset: 0x6B8C5, size: 0x8, addend: 0x0, symName: __ZNSt3__113__rewrap_iterB8ue170006IPK6VertexS3_NS_18__unwrap_iter_implIS3_Lb1EEEEET_S6_T0_, symObjAddr: 0x66B50, symBinAddr: 0x100067490, symSize: 0x40 }
  - { offsetInCU: 0x6B91A, offset: 0x6B91A, size: 0x8, addend: 0x0, symName: __ZNSt3__110destroy_atB8ue170006I6VertexLi0EEEvPT_, symObjAddr: 0x66D20, symBinAddr: 0x100067660, symSize: 0x20 }
  - { offsetInCU: 0x6B951, offset: 0x6B951, size: 0x8, addend: 0x0, symName: __ZNSt3__112__destroy_atB8ue170006I6VertexLi0EEEvPT_, symObjAddr: 0x66D40, symBinAddr: 0x100067680, symSize: 0x10 }
  - { offsetInCU: 0x6B988, offset: 0x6B988, size: 0x8, addend: 0x0, symName: __ZNSt3__119__allocate_at_leastB8ue170006INS_9allocatorI6VertexEEEENS_19__allocation_resultINS_16allocator_traitsIT_E7pointerEEERS6_m, symObjAddr: 0x66FC0, symBinAddr: 0x100067900, symSize: 0x40 }
  - { offsetInCU: 0x6B9CB, offset: 0x6B9CB, size: 0x8, addend: 0x0, symName: __ZNSt3__110__distanceB8ue170006IPK6VertexEENS_15iterator_traitsIT_E15difference_typeES5_S5_NS_26random_access_iterator_tagE, symObjAddr: 0x67170, symBinAddr: 0x100067AB0, symSize: 0x20 }
  - { offsetInCU: 0x6BA19, offset: 0x6BA19, size: 0x8, addend: 0x0, symName: __ZNSt3__18distanceB8ue170006IPKjEENS_15iterator_traitsIT_E15difference_typeES4_S4_, symObjAddr: 0x67390, symBinAddr: 0x100067CD0, symSize: 0x30 }
  - { offsetInCU: 0x6BA5C, offset: 0x6BA5C, size: 0x8, addend: 0x0, symName: __ZNSt3__14nextB8ue170006IPKjEENS_9enable_ifIXsr29__has_input_iterator_categoryIT_EE5valueES4_E4typeES4_NS_15iterator_traitsIS4_E15difference_typeE, symObjAddr: 0x673C0, symBinAddr: 0x100067D00, symSize: 0x30 }
  - { offsetInCU: 0x6BA9F, offset: 0x6BA9F, size: 0x8, addend: 0x0, symName: __ZNSt3__14copyB8ue170006IPKjPjEET0_T_S5_S4_, symObjAddr: 0x673F0, symBinAddr: 0x100067D30, symSize: 0x40 }
  - { offsetInCU: 0x6BAF9, offset: 0x6BAF9, size: 0x8, addend: 0x0, symName: __ZNSt3__16__copyB8ue170006INS_17_ClassicAlgPolicyEPKjS3_PjEENS_4pairIT0_T2_EES6_T1_S7_, symObjAddr: 0x674C0, symBinAddr: 0x100067E00, symSize: 0x40 }
  - { offsetInCU: 0x6BB65, offset: 0x6BB65, size: 0x8, addend: 0x0, symName: __ZNSt3__19__advanceB8ue170006IPKjEEvRT_NS_15iterator_traitsIS3_E15difference_typeENS_26random_access_iterator_tagE, symObjAddr: 0x67580, symBinAddr: 0x100067EC0, symSize: 0x20 }
  - { offsetInCU: 0x6BBAF, offset: 0x6BBAF, size: 0x8, addend: 0x0, symName: __ZNSt3__130__uninitialized_allocator_copyB8ue170006INS_9allocatorIjEEPKjS4_PjEET2_RT_T0_T1_S6_, symObjAddr: 0x675A0, symBinAddr: 0x100067EE0, symSize: 0x80 }
  - { offsetInCU: 0x6BC4E, offset: 0x6BC4E, size: 0x8, addend: 0x0, symName: __ZNSt3__114__unwrap_rangeB8ue170006IPKjS2_EEDaT_T0_, symObjAddr: 0x67620, symBinAddr: 0x100067F60, symSize: 0x40 }
  - { offsetInCU: 0x6BC9A, offset: 0x6BC9A, size: 0x8, addend: 0x0, symName: __ZNSt3__135__uninitialized_allocator_copy_implB8ue170006INS_9allocatorIjEEKjjjLPv0EEEPT2_RT_PT0_SA_S6_, symObjAddr: 0x67660, symBinAddr: 0x100067FA0, symSize: 0x30 }
  - { offsetInCU: 0x6BE38, offset: 0x6BE38, size: 0x8, addend: 0x0, symName: __ZNSt3__113__unwrap_iterB8ue170006IPKjNS_18__unwrap_iter_implIS2_Lb1EEELi0EEEDTclsrT0_8__unwrapclsr3stdE7declvalIT_EEEES6_, symObjAddr: 0x676E0, symBinAddr: 0x100068020, symSize: 0x20 }
  - { offsetInCU: 0x6BECF, offset: 0x6BECF, size: 0x8, addend: 0x0, symName: __ZNSt3__112__to_addressB8ue170006IKjEEPT_S3_, symObjAddr: 0x67750, symBinAddr: 0x100068090, symSize: 0x10 }
  - { offsetInCU: 0x6BF04, offset: 0x6BF04, size: 0x8, addend: 0x0, symName: __ZNSt3__123__dispatch_copy_or_moveB8ue170006INS_17_ClassicAlgPolicyENS_11__copy_loopIS1_EENS_14__copy_trivialEPKjS6_PjEENS_4pairIT2_T4_EES9_T3_SA_, symObjAddr: 0x67790, symBinAddr: 0x1000680D0, symSize: 0x40 }
  - { offsetInCU: 0x6BF82, offset: 0x6BF82, size: 0x8, addend: 0x0, symName: __ZNSt3__121__unwrap_and_dispatchB8ue170006INS_10__overloadINS_11__copy_loopINS_17_ClassicAlgPolicyEEENS_14__copy_trivialEEEPKjS8_PjLi0EEENS_4pairIT0_T2_EESB_T1_SC_, symObjAddr: 0x677D0, symBinAddr: 0x100068110, symSize: 0xB0 }
  - { offsetInCU: 0x6C114, offset: 0x6C114, size: 0x8, addend: 0x0, symName: __ZNSt3__19make_pairB8ue170006IPKjPjEENS_4pairINS_18__unwrap_ref_decayIT_E4typeENS5_IT0_E4typeEEEOS6_OS9_, symObjAddr: 0x678C0, symBinAddr: 0x100068200, symSize: 0x30 }
  - { offsetInCU: 0x6C163, offset: 0x6C163, size: 0x8, addend: 0x0, symName: __ZNSt3__114__rewrap_rangeB8ue170006IPKjS2_S2_EET0_S3_T1_, symObjAddr: 0x678F0, symBinAddr: 0x100068230, symSize: 0x30 }
  - { offsetInCU: 0x6C1B8, offset: 0x6C1B8, size: 0x8, addend: 0x0, symName: __ZNSt3__119__copy_trivial_implB8ue170006IKjjEENS_4pairIPT_PT0_EES4_S4_S6_, symObjAddr: 0x67920, symBinAddr: 0x100068260, symSize: 0x70 }
  - { offsetInCU: 0x6C220, offset: 0x6C220, size: 0x8, addend: 0x0, symName: __ZNSt3__119__constexpr_memmoveB8ue170006IjKjLi0EEEPT_S3_PT0_NS_15__element_countE, symObjAddr: 0x67990, symBinAddr: 0x1000682D0, symSize: 0x50 }
  - { offsetInCU: 0x6C28E, offset: 0x6C28E, size: 0x8, addend: 0x0, symName: __ZNSt3__19make_pairB8ue170006IRPKjPjEENS_4pairINS_18__unwrap_ref_decayIT_E4typeENS6_IT0_E4typeEEEOS7_OSA_, symObjAddr: 0x679E0, symBinAddr: 0x100068320, symSize: 0x30 }
  - { offsetInCU: 0x6C2DD, offset: 0x6C2DD, size: 0x8, addend: 0x0, symName: __ZNSt3__113__rewrap_iterB8ue170006IPKjS2_NS_18__unwrap_iter_implIS2_Lb1EEEEET_S5_T0_, symObjAddr: 0x67B00, symBinAddr: 0x100068440, symSize: 0x40 }
  - { offsetInCU: 0x6C332, offset: 0x6C332, size: 0x8, addend: 0x0, symName: __ZNSt3__110__distanceB8ue170006IPKjEENS_15iterator_traitsIT_E15difference_typeES4_S4_NS_26random_access_iterator_tagE, symObjAddr: 0x67B90, symBinAddr: 0x1000684D0, symSize: 0x20 }
  - { offsetInCU: 0x6C380, offset: 0x6C380, size: 0x8, addend: 0x0, symName: __ZNSt3__122__make_exception_guardB8ue170006INS_6vectorI6VertexNS_9allocatorIS2_EEE16__destroy_vectorEEENS_28__exception_guard_exceptionsIT_EES8_, symObjAddr: 0x67E20, symBinAddr: 0x100068760, symSize: 0x40 }
  - { offsetInCU: 0x6C3B5, offset: 0x6C3B5, size: 0x8, addend: 0x0, symName: __ZNSt3__112__to_addressB8ue170006IP10VkBuffer_TEEPT_S4_, symObjAddr: 0x68500, symBinAddr: 0x100068E40, symSize: 0x10 }
  - { offsetInCU: 0x6C411, offset: 0x6C411, size: 0x8, addend: 0x0, symName: __ZNSt3__112construct_atB8ue170006IP10VkBuffer_TJEPS2_EEPT_S5_DpOT0_, symObjAddr: 0x68570, symBinAddr: 0x100068EB0, symSize: 0x20 }
  - { offsetInCU: 0x6C46F, offset: 0x6C46F, size: 0x8, addend: 0x0, symName: __ZNSt3__119__allocate_at_leastB8ue170006INS_9allocatorIP10VkBuffer_TEEEENS_19__allocation_resultINS_16allocator_traitsIT_E7pointerEEERS7_m, symObjAddr: 0x68850, symBinAddr: 0x100069190, symSize: 0x40 }
  - { offsetInCU: 0x6C4B2, offset: 0x6C4B2, size: 0x8, addend: 0x0, symName: __ZNSt3__142__uninitialized_allocator_move_if_noexceptB8ue170006INS_9allocatorIP10VkBuffer_TEENS_16reverse_iteratorIPS3_EES7_S3_vEET1_RT_T0_SB_S8_, symObjAddr: 0x68B60, symBinAddr: 0x1000694A0, symSize: 0x70 }
  - { offsetInCU: 0x6C52F, offset: 0x6C52F, size: 0x8, addend: 0x0, symName: __ZNSt3__14swapB8ue170006IPP10VkBuffer_TEENS_9enable_ifIXaasr21is_move_constructibleIT_EE5valuesr18is_move_assignableIS5_EE5valueEvE4typeERS5_S8_, symObjAddr: 0x68C20, symBinAddr: 0x100069560, symSize: 0x40 }
  - { offsetInCU: 0x6C580, offset: 0x6C580, size: 0x8, addend: 0x0, symName: __ZNSt3__14moveB8ue170006INS_16reverse_iteratorIPP10VkBuffer_TEES5_EET0_T_S7_S6_, symObjAddr: 0x68D50, symBinAddr: 0x100069690, symSize: 0x80 }
  - { offsetInCU: 0x6C5DA, offset: 0x6C5DA, size: 0x8, addend: 0x0, symName: __ZNSt3__16__moveB8ue170006INS_17_ClassicAlgPolicyENS_16reverse_iteratorIPP10VkBuffer_TEES6_S6_EENS_4pairIT0_T2_EES8_T1_S9_, symObjAddr: 0x68DD0, symBinAddr: 0x100069710, symSize: 0x90 }
  - { offsetInCU: 0x6C646, offset: 0x6C646, size: 0x8, addend: 0x0, symName: __ZNSt3__123__dispatch_copy_or_moveB8ue170006INS_17_ClassicAlgPolicyENS_11__move_loopIS1_EENS_14__move_trivialENS_16reverse_iteratorIPP10VkBuffer_TEES9_S9_EENS_4pairIT2_T4_EESB_T3_SC_, symObjAddr: 0x68E60, symBinAddr: 0x1000697A0, symSize: 0x90 }
  - { offsetInCU: 0x6C6C4, offset: 0x6C6C4, size: 0x8, addend: 0x0, symName: __ZNSt3__121__unwrap_and_dispatchB8ue170006INS_10__overloadINS_11__move_loopINS_17_ClassicAlgPolicyEEENS_14__move_trivialEEENS_16reverse_iteratorIPP10VkBuffer_TEESB_SB_Li0EEENS_4pairIT0_T2_EESD_T1_SE_, symObjAddr: 0x68EF0, symBinAddr: 0x100069830, symSize: 0x210 }
  - { offsetInCU: 0x6C753, offset: 0x6C753, size: 0x8, addend: 0x0, symName: __ZNSt3__114__unwrap_rangeB8ue170006INS_16reverse_iteratorIPP10VkBuffer_TEES5_EEDaT_T0_, symObjAddr: 0x69100, symBinAddr: 0x100069A40, symSize: 0x60 }
  - { offsetInCU: 0x6C873, offset: 0x6C873, size: 0x8, addend: 0x0, symName: __ZNSt3__113__unwrap_iterB8ue170006INS_16reverse_iteratorIPP10VkBuffer_TEENS_18__unwrap_iter_implIS5_Lb0EEELi0EEEDTclsrT0_8__unwrapclsr3stdE7declvalIT_EEEES9_, symObjAddr: 0x69200, symBinAddr: 0x100069B40, symSize: 0x40 }
  - { offsetInCU: 0x6C8B7, offset: 0x6C8B7, size: 0x8, addend: 0x0, symName: __ZNSt3__19make_pairB8ue170006INS_16reverse_iteratorIPP10VkBuffer_TEES5_EENS_4pairINS_18__unwrap_ref_decayIT_E4typeENS7_IT0_E4typeEEEOS8_OSB_, symObjAddr: 0x69240, symBinAddr: 0x100069B80, symSize: 0x30 }
  - { offsetInCU: 0x6C906, offset: 0x6C906, size: 0x8, addend: 0x0, symName: __ZNSt3__114__rewrap_rangeB8ue170006INS_16reverse_iteratorIPP10VkBuffer_TEES5_S5_EET0_S6_T1_, symObjAddr: 0x69270, symBinAddr: 0x100069BB0, symSize: 0x60 }
  - { offsetInCU: 0x6C95B, offset: 0x6C95B, size: 0x8, addend: 0x0, symName: __ZNSt3__113__rewrap_iterB8ue170006INS_16reverse_iteratorIPP10VkBuffer_TEES5_NS_18__unwrap_iter_implIS5_Lb0EEEEET_S8_T0_, symObjAddr: 0x692D0, symBinAddr: 0x100069C10, symSize: 0x70 }
  - { offsetInCU: 0x6CA00, offset: 0x6CA00, size: 0x8, addend: 0x0, symName: __ZNSt3__1neB8ue170006IPP10VkBuffer_TS3_EEbRKNS_16reverse_iteratorIT_EERKNS4_IT0_EE, symObjAddr: 0x69440, symBinAddr: 0x100069D80, symSize: 0x40 }
  - { offsetInCU: 0x6CAB8, offset: 0x6CAB8, size: 0x8, addend: 0x0, symName: __ZNSt3__110destroy_atB8ue170006IP10VkBuffer_TLi0EEEvPT_, symObjAddr: 0x697A0, symBinAddr: 0x10006A0E0, symSize: 0x20 }
  - { offsetInCU: 0x6CAEF, offset: 0x6CAEF, size: 0x8, addend: 0x0, symName: __ZNSt3__112__destroy_atB8ue170006IP10VkBuffer_TLi0EEEvPT_, symObjAddr: 0x697C0, symBinAddr: 0x10006A100, symSize: 0x10 }
  - { offsetInCU: 0x6CB26, offset: 0x6CB26, size: 0x8, addend: 0x0, symName: __ZNSt3__112__to_addressB8ue170006IP16VkDeviceMemory_TEEPT_S4_, symObjAddr: 0x69F30, symBinAddr: 0x10006A870, symSize: 0x10 }
  - { offsetInCU: 0x6CB82, offset: 0x6CB82, size: 0x8, addend: 0x0, symName: __ZNSt3__112construct_atB8ue170006IP16VkDeviceMemory_TJEPS2_EEPT_S5_DpOT0_, symObjAddr: 0x69FA0, symBinAddr: 0x10006A8E0, symSize: 0x20 }
  - { offsetInCU: 0x6CBE0, offset: 0x6CBE0, size: 0x8, addend: 0x0, symName: __ZNSt3__119__allocate_at_leastB8ue170006INS_9allocatorIP16VkDeviceMemory_TEEEENS_19__allocation_resultINS_16allocator_traitsIT_E7pointerEEERS7_m, symObjAddr: 0x6A280, symBinAddr: 0x10006ABC0, symSize: 0x40 }
  - { offsetInCU: 0x6CC23, offset: 0x6CC23, size: 0x8, addend: 0x0, symName: __ZNSt3__142__uninitialized_allocator_move_if_noexceptB8ue170006INS_9allocatorIP16VkDeviceMemory_TEENS_16reverse_iteratorIPS3_EES7_S3_vEET1_RT_T0_SB_S8_, symObjAddr: 0x6A590, symBinAddr: 0x10006AED0, symSize: 0x70 }
  - { offsetInCU: 0x6CCA0, offset: 0x6CCA0, size: 0x8, addend: 0x0, symName: __ZNSt3__14swapB8ue170006IPP16VkDeviceMemory_TEENS_9enable_ifIXaasr21is_move_constructibleIT_EE5valuesr18is_move_assignableIS5_EE5valueEvE4typeERS5_S8_, symObjAddr: 0x6A650, symBinAddr: 0x10006AF90, symSize: 0x40 }
  - { offsetInCU: 0x6CCF1, offset: 0x6CCF1, size: 0x8, addend: 0x0, symName: __ZNSt3__14moveB8ue170006INS_16reverse_iteratorIPP16VkDeviceMemory_TEES5_EET0_T_S7_S6_, symObjAddr: 0x6A780, symBinAddr: 0x10006B0C0, symSize: 0x80 }
  - { offsetInCU: 0x6CD4B, offset: 0x6CD4B, size: 0x8, addend: 0x0, symName: __ZNSt3__16__moveB8ue170006INS_17_ClassicAlgPolicyENS_16reverse_iteratorIPP16VkDeviceMemory_TEES6_S6_EENS_4pairIT0_T2_EES8_T1_S9_, symObjAddr: 0x6A800, symBinAddr: 0x10006B140, symSize: 0x90 }
  - { offsetInCU: 0x6CDB7, offset: 0x6CDB7, size: 0x8, addend: 0x0, symName: __ZNSt3__123__dispatch_copy_or_moveB8ue170006INS_17_ClassicAlgPolicyENS_11__move_loopIS1_EENS_14__move_trivialENS_16reverse_iteratorIPP16VkDeviceMemory_TEES9_S9_EENS_4pairIT2_T4_EESB_T3_SC_, symObjAddr: 0x6A890, symBinAddr: 0x10006B1D0, symSize: 0x90 }
  - { offsetInCU: 0x6CE35, offset: 0x6CE35, size: 0x8, addend: 0x0, symName: __ZNSt3__121__unwrap_and_dispatchB8ue170006INS_10__overloadINS_11__move_loopINS_17_ClassicAlgPolicyEEENS_14__move_trivialEEENS_16reverse_iteratorIPP16VkDeviceMemory_TEESB_SB_Li0EEENS_4pairIT0_T2_EESD_T1_SE_, symObjAddr: 0x6A920, symBinAddr: 0x10006B260, symSize: 0x210 }
  - { offsetInCU: 0x6CEC4, offset: 0x6CEC4, size: 0x8, addend: 0x0, symName: __ZNSt3__114__unwrap_rangeB8ue170006INS_16reverse_iteratorIPP16VkDeviceMemory_TEES5_EEDaT_T0_, symObjAddr: 0x6AB30, symBinAddr: 0x10006B470, symSize: 0x60 }
  - { offsetInCU: 0x6CFE4, offset: 0x6CFE4, size: 0x8, addend: 0x0, symName: __ZNSt3__113__unwrap_iterB8ue170006INS_16reverse_iteratorIPP16VkDeviceMemory_TEENS_18__unwrap_iter_implIS5_Lb0EEELi0EEEDTclsrT0_8__unwrapclsr3stdE7declvalIT_EEEES9_, symObjAddr: 0x6AC30, symBinAddr: 0x10006B570, symSize: 0x40 }
  - { offsetInCU: 0x6D028, offset: 0x6D028, size: 0x8, addend: 0x0, symName: __ZNSt3__19make_pairB8ue170006INS_16reverse_iteratorIPP16VkDeviceMemory_TEES5_EENS_4pairINS_18__unwrap_ref_decayIT_E4typeENS7_IT0_E4typeEEEOS8_OSB_, symObjAddr: 0x6AC70, symBinAddr: 0x10006B5B0, symSize: 0x30 }
  - { offsetInCU: 0x6D077, offset: 0x6D077, size: 0x8, addend: 0x0, symName: __ZNSt3__114__rewrap_rangeB8ue170006INS_16reverse_iteratorIPP16VkDeviceMemory_TEES5_S5_EET0_S6_T1_, symObjAddr: 0x6ACA0, symBinAddr: 0x10006B5E0, symSize: 0x60 }
  - { offsetInCU: 0x6D0CC, offset: 0x6D0CC, size: 0x8, addend: 0x0, symName: __ZNSt3__113__rewrap_iterB8ue170006INS_16reverse_iteratorIPP16VkDeviceMemory_TEES5_NS_18__unwrap_iter_implIS5_Lb0EEEEET_S8_T0_, symObjAddr: 0x6AD00, symBinAddr: 0x10006B640, symSize: 0x70 }
  - { offsetInCU: 0x6D171, offset: 0x6D171, size: 0x8, addend: 0x0, symName: __ZNSt3__1neB8ue170006IPP16VkDeviceMemory_TS3_EEbRKNS_16reverse_iteratorIT_EERKNS4_IT0_EE, symObjAddr: 0x6AE70, symBinAddr: 0x10006B7B0, symSize: 0x40 }
  - { offsetInCU: 0x6D229, offset: 0x6D229, size: 0x8, addend: 0x0, symName: __ZNSt3__110destroy_atB8ue170006IP16VkDeviceMemory_TLi0EEEvPT_, symObjAddr: 0x6B1D0, symBinAddr: 0x10006BB10, symSize: 0x20 }
  - { offsetInCU: 0x6D260, offset: 0x6D260, size: 0x8, addend: 0x0, symName: __ZNSt3__112__destroy_atB8ue170006IP16VkDeviceMemory_TLi0EEEvPT_, symObjAddr: 0x6B1F0, symBinAddr: 0x10006BB30, symSize: 0x10 }
  - { offsetInCU: 0x6D297, offset: 0x6D297, size: 0x8, addend: 0x0, symName: __ZNSt3__112__to_addressB8ue170006IPvEEPT_S3_, symObjAddr: 0x6B960, symBinAddr: 0x10006C2A0, symSize: 0x10 }
  - { offsetInCU: 0x6D2F3, offset: 0x6D2F3, size: 0x8, addend: 0x0, symName: __ZNSt3__112construct_atB8ue170006IPvJEPS1_EEPT_S4_DpOT0_, symObjAddr: 0x6B9D0, symBinAddr: 0x10006C310, symSize: 0x20 }
  - { offsetInCU: 0x6D351, offset: 0x6D351, size: 0x8, addend: 0x0, symName: __ZNSt3__119__allocate_at_leastB8ue170006INS_9allocatorIPvEEEENS_19__allocation_resultINS_16allocator_traitsIT_E7pointerEEERS6_m, symObjAddr: 0x6BCB0, symBinAddr: 0x10006C5F0, symSize: 0x40 }
  - { offsetInCU: 0x6D394, offset: 0x6D394, size: 0x8, addend: 0x0, symName: __ZNSt3__142__uninitialized_allocator_move_if_noexceptB8ue170006INS_9allocatorIPvEENS_16reverse_iteratorIPS2_EES6_S2_vEET1_RT_T0_SA_S7_, symObjAddr: 0x6BFC0, symBinAddr: 0x10006C900, symSize: 0x70 }
  - { offsetInCU: 0x6D411, offset: 0x6D411, size: 0x8, addend: 0x0, symName: __ZNSt3__14swapB8ue170006IPPvEENS_9enable_ifIXaasr21is_move_constructibleIT_EE5valuesr18is_move_assignableIS4_EE5valueEvE4typeERS4_S7_, symObjAddr: 0x6C080, symBinAddr: 0x10006C9C0, symSize: 0x40 }
  - { offsetInCU: 0x6D462, offset: 0x6D462, size: 0x8, addend: 0x0, symName: __ZNSt3__14moveB8ue170006INS_16reverse_iteratorIPPvEES4_EET0_T_S6_S5_, symObjAddr: 0x6C1B0, symBinAddr: 0x10006CAF0, symSize: 0x80 }
  - { offsetInCU: 0x6D4BC, offset: 0x6D4BC, size: 0x8, addend: 0x0, symName: __ZNSt3__16__moveB8ue170006INS_17_ClassicAlgPolicyENS_16reverse_iteratorIPPvEES5_S5_EENS_4pairIT0_T2_EES7_T1_S8_, symObjAddr: 0x6C230, symBinAddr: 0x10006CB70, symSize: 0x90 }
  - { offsetInCU: 0x6D528, offset: 0x6D528, size: 0x8, addend: 0x0, symName: __ZNSt3__123__dispatch_copy_or_moveB8ue170006INS_17_ClassicAlgPolicyENS_11__move_loopIS1_EENS_14__move_trivialENS_16reverse_iteratorIPPvEES8_S8_EENS_4pairIT2_T4_EESA_T3_SB_, symObjAddr: 0x6C2C0, symBinAddr: 0x10006CC00, symSize: 0x90 }
  - { offsetInCU: 0x6D5A6, offset: 0x6D5A6, size: 0x8, addend: 0x0, symName: __ZNSt3__121__unwrap_and_dispatchB8ue170006INS_10__overloadINS_11__move_loopINS_17_ClassicAlgPolicyEEENS_14__move_trivialEEENS_16reverse_iteratorIPPvEESA_SA_Li0EEENS_4pairIT0_T2_EESC_T1_SD_, symObjAddr: 0x6C350, symBinAddr: 0x10006CC90, symSize: 0x210 }
  - { offsetInCU: 0x6D635, offset: 0x6D635, size: 0x8, addend: 0x0, symName: __ZNSt3__114__unwrap_rangeB8ue170006INS_16reverse_iteratorIPPvEES4_EEDaT_T0_, symObjAddr: 0x6C560, symBinAddr: 0x10006CEA0, symSize: 0x60 }
  - { offsetInCU: 0x6D755, offset: 0x6D755, size: 0x8, addend: 0x0, symName: __ZNSt3__113__unwrap_iterB8ue170006INS_16reverse_iteratorIPPvEENS_18__unwrap_iter_implIS4_Lb0EEELi0EEEDTclsrT0_8__unwrapclsr3stdE7declvalIT_EEEES8_, symObjAddr: 0x6C660, symBinAddr: 0x10006CFA0, symSize: 0x40 }
  - { offsetInCU: 0x6D799, offset: 0x6D799, size: 0x8, addend: 0x0, symName: __ZNSt3__19make_pairB8ue170006INS_16reverse_iteratorIPPvEES4_EENS_4pairINS_18__unwrap_ref_decayIT_E4typeENS6_IT0_E4typeEEEOS7_OSA_, symObjAddr: 0x6C6A0, symBinAddr: 0x10006CFE0, symSize: 0x30 }
  - { offsetInCU: 0x6D7E8, offset: 0x6D7E8, size: 0x8, addend: 0x0, symName: __ZNSt3__114__rewrap_rangeB8ue170006INS_16reverse_iteratorIPPvEES4_S4_EET0_S5_T1_, symObjAddr: 0x6C6D0, symBinAddr: 0x10006D010, symSize: 0x60 }
  - { offsetInCU: 0x6D83D, offset: 0x6D83D, size: 0x8, addend: 0x0, symName: __ZNSt3__113__rewrap_iterB8ue170006INS_16reverse_iteratorIPPvEES4_NS_18__unwrap_iter_implIS4_Lb0EEEEET_S7_T0_, symObjAddr: 0x6C730, symBinAddr: 0x10006D070, symSize: 0x70 }
  - { offsetInCU: 0x6D8E2, offset: 0x6D8E2, size: 0x8, addend: 0x0, symName: __ZNSt3__1neB8ue170006IPPvS2_EEbRKNS_16reverse_iteratorIT_EERKNS3_IT0_EE, symObjAddr: 0x6C8A0, symBinAddr: 0x10006D1E0, symSize: 0x40 }
  - { offsetInCU: 0x6D99A, offset: 0x6D99A, size: 0x8, addend: 0x0, symName: __ZNSt3__110destroy_atB8ue170006IPvLi0EEEvPT_, symObjAddr: 0x6CC00, symBinAddr: 0x10006D540, symSize: 0x20 }
  - { offsetInCU: 0x6D9D1, offset: 0x6D9D1, size: 0x8, addend: 0x0, symName: __ZNSt3__112__destroy_atB8ue170006IPvLi0EEEvPT_, symObjAddr: 0x6CC20, symBinAddr: 0x10006D560, symSize: 0x10 }
  - { offsetInCU: 0x6DA08, offset: 0x6DA08, size: 0x8, addend: 0x0, symName: __ZNSt3__122__make_exception_guardB8ue170006INS_6vectorI31VkVertexInputBindingDescriptionNS_9allocatorIS2_EEE16__destroy_vectorEEENS_28__exception_guard_exceptionsIT_EES8_, symObjAddr: 0x6CED0, symBinAddr: 0x10006D810, symSize: 0x40 }
  - { offsetInCU: 0x6DA3D, offset: 0x6DA3D, size: 0x8, addend: 0x0, symName: __ZNSt3__119__allocate_at_leastB8ue170006INS_9allocatorI31VkVertexInputBindingDescriptionEEEENS_19__allocation_resultINS_16allocator_traitsIT_E7pointerEEERS6_m, symObjAddr: 0x6D280, symBinAddr: 0x10006DBC0, symSize: 0x40 }
  - { offsetInCU: 0x6DA80, offset: 0x6DA80, size: 0x8, addend: 0x0, symName: __ZNSt3__112__to_addressB8ue170006I31VkVertexInputBindingDescriptionEEPT_S3_, symObjAddr: 0x6D550, symBinAddr: 0x10006DE90, symSize: 0x10 }
  - { offsetInCU: 0x6DADC, offset: 0x6DADC, size: 0x8, addend: 0x0, symName: __ZNSt3__112construct_atB8ue170006I31VkVertexInputBindingDescriptionJEPS1_EEPT_S4_DpOT0_, symObjAddr: 0x6D660, symBinAddr: 0x10006DFA0, symSize: 0x40 }
  - { offsetInCU: 0x6DB3A, offset: 0x6DB3A, size: 0x8, addend: 0x0, symName: __ZNSt3__110destroy_atB8ue170006I31VkVertexInputBindingDescriptionLi0EEEvPT_, symObjAddr: 0x6D920, symBinAddr: 0x10006E260, symSize: 0x20 }
  - { offsetInCU: 0x6DB71, offset: 0x6DB71, size: 0x8, addend: 0x0, symName: __ZNSt3__112__destroy_atB8ue170006I31VkVertexInputBindingDescriptionLi0EEEvPT_, symObjAddr: 0x6D940, symBinAddr: 0x10006E280, symSize: 0x10 }
  - { offsetInCU: 0x6DBA8, offset: 0x6DBA8, size: 0x8, addend: 0x0, symName: __ZNSt3__122__make_exception_guardB8ue170006INS_6vectorI33VkVertexInputAttributeDescriptionNS_9allocatorIS2_EEE16__destroy_vectorEEENS_28__exception_guard_exceptionsIT_EES8_, symObjAddr: 0x6DB10, symBinAddr: 0x10006E450, symSize: 0x40 }
  - { offsetInCU: 0x6DBDD, offset: 0x6DBDD, size: 0x8, addend: 0x0, symName: __ZNSt3__119__allocate_at_leastB8ue170006INS_9allocatorI33VkVertexInputAttributeDescriptionEEEENS_19__allocation_resultINS_16allocator_traitsIT_E7pointerEEERS6_m, symObjAddr: 0x6DEC0, symBinAddr: 0x10006E800, symSize: 0x40 }
  - { offsetInCU: 0x6DC20, offset: 0x6DC20, size: 0x8, addend: 0x0, symName: __ZNSt3__112__to_addressB8ue170006I33VkVertexInputAttributeDescriptionEEPT_S3_, symObjAddr: 0x6E180, symBinAddr: 0x10006EAC0, symSize: 0x10 }
  - { offsetInCU: 0x6DC7C, offset: 0x6DC7C, size: 0x8, addend: 0x0, symName: __ZNSt3__112construct_atB8ue170006I33VkVertexInputAttributeDescriptionJEPS1_EEPT_S4_DpOT0_, symObjAddr: 0x6E290, symBinAddr: 0x10006EBD0, symSize: 0x40 }
  - { offsetInCU: 0x6DCDA, offset: 0x6DCDA, size: 0x8, addend: 0x0, symName: __ZNSt3__110destroy_atB8ue170006I33VkVertexInputAttributeDescriptionLi0EEEvPT_, symObjAddr: 0x6E550, symBinAddr: 0x10006EE90, symSize: 0x20 }
  - { offsetInCU: 0x6DD11, offset: 0x6DD11, size: 0x8, addend: 0x0, symName: __ZNSt3__112__destroy_atB8ue170006I33VkVertexInputAttributeDescriptionLi0EEEvPT_, symObjAddr: 0x6E570, symBinAddr: 0x10006EEB0, symSize: 0x10 }
  - { offsetInCU: 0x6DD48, offset: 0x6DD48, size: 0x8, addend: 0x0, symName: __ZNSt3__122__make_exception_guardB8ue170006INS_6vectorIP23VkDescriptorSetLayout_TNS_9allocatorIS3_EEE16__destroy_vectorEEENS_28__exception_guard_exceptionsIT_EES9_, symObjAddr: 0x6E730, symBinAddr: 0x10006F070, symSize: 0x40 }
  - { offsetInCU: 0x6DD7D, offset: 0x6DD7D, size: 0x8, addend: 0x0, symName: __ZNSt3__119__allocate_at_leastB8ue170006INS_9allocatorIP23VkDescriptorSetLayout_TEEEENS_19__allocation_resultINS_16allocator_traitsIT_E7pointerEEERS7_m, symObjAddr: 0x6EAE0, symBinAddr: 0x10006F420, symSize: 0x40 }
  - { offsetInCU: 0x6DDC0, offset: 0x6DDC0, size: 0x8, addend: 0x0, symName: __ZNSt3__112__to_addressB8ue170006IP23VkDescriptorSetLayout_TEEPT_S4_, symObjAddr: 0x6EDA0, symBinAddr: 0x10006F6E0, symSize: 0x10 }
  - { offsetInCU: 0x6DE1C, offset: 0x6DE1C, size: 0x8, addend: 0x0, symName: __ZNSt3__112construct_atB8ue170006IP23VkDescriptorSetLayout_TJRKS2_EPS2_EEPT_S7_DpOT0_, symObjAddr: 0x6EEC0, symBinAddr: 0x10006F800, symSize: 0x30 }
  - { offsetInCU: 0x6DE8E, offset: 0x6DE8E, size: 0x8, addend: 0x0, symName: __ZNSt3__110destroy_atB8ue170006IP23VkDescriptorSetLayout_TLi0EEEvPT_, symObjAddr: 0x6F170, symBinAddr: 0x10006FAB0, symSize: 0x20 }
  - { offsetInCU: 0x6DEC5, offset: 0x6DEC5, size: 0x8, addend: 0x0, symName: __ZNSt3__112__destroy_atB8ue170006IP23VkDescriptorSetLayout_TLi0EEEvPT_, symObjAddr: 0x6F190, symBinAddr: 0x10006FAD0, symSize: 0x10 }
  - { offsetInCU: 0x6DEFC, offset: 0x6DEFC, size: 0x8, addend: 0x0, symName: __ZNSt3__112__to_addressB8ue170006IP17VkDescriptorSet_TEEPT_S4_, symObjAddr: 0x6F7C0, symBinAddr: 0x100070100, symSize: 0x10 }
  - { offsetInCU: 0x6DF58, offset: 0x6DF58, size: 0x8, addend: 0x0, symName: __ZNSt3__112construct_atB8ue170006IP17VkDescriptorSet_TJEPS2_EEPT_S5_DpOT0_, symObjAddr: 0x6F830, symBinAddr: 0x100070170, symSize: 0x20 }
  - { offsetInCU: 0x6DFB6, offset: 0x6DFB6, size: 0x8, addend: 0x0, symName: __ZNSt3__119__allocate_at_leastB8ue170006INS_9allocatorIP17VkDescriptorSet_TEEEENS_19__allocation_resultINS_16allocator_traitsIT_E7pointerEEERS7_m, symObjAddr: 0x6FB10, symBinAddr: 0x100070450, symSize: 0x40 }
  - { offsetInCU: 0x6DFF9, offset: 0x6DFF9, size: 0x8, addend: 0x0, symName: __ZNSt3__142__uninitialized_allocator_move_if_noexceptB8ue170006INS_9allocatorIP17VkDescriptorSet_TEENS_16reverse_iteratorIPS3_EES7_S3_vEET1_RT_T0_SB_S8_, symObjAddr: 0x6FE20, symBinAddr: 0x100070760, symSize: 0x70 }
  - { offsetInCU: 0x6E076, offset: 0x6E076, size: 0x8, addend: 0x0, symName: __ZNSt3__14swapB8ue170006IPP17VkDescriptorSet_TEENS_9enable_ifIXaasr21is_move_constructibleIT_EE5valuesr18is_move_assignableIS5_EE5valueEvE4typeERS5_S8_, symObjAddr: 0x6FEE0, symBinAddr: 0x100070820, symSize: 0x40 }
  - { offsetInCU: 0x6E0C7, offset: 0x6E0C7, size: 0x8, addend: 0x0, symName: __ZNSt3__14moveB8ue170006INS_16reverse_iteratorIPP17VkDescriptorSet_TEES5_EET0_T_S7_S6_, symObjAddr: 0x70010, symBinAddr: 0x100070950, symSize: 0x80 }
  - { offsetInCU: 0x6E121, offset: 0x6E121, size: 0x8, addend: 0x0, symName: __ZNSt3__16__moveB8ue170006INS_17_ClassicAlgPolicyENS_16reverse_iteratorIPP17VkDescriptorSet_TEES6_S6_EENS_4pairIT0_T2_EES8_T1_S9_, symObjAddr: 0x70090, symBinAddr: 0x1000709D0, symSize: 0x90 }
  - { offsetInCU: 0x6E18D, offset: 0x6E18D, size: 0x8, addend: 0x0, symName: __ZNSt3__123__dispatch_copy_or_moveB8ue170006INS_17_ClassicAlgPolicyENS_11__move_loopIS1_EENS_14__move_trivialENS_16reverse_iteratorIPP17VkDescriptorSet_TEES9_S9_EENS_4pairIT2_T4_EESB_T3_SC_, symObjAddr: 0x70120, symBinAddr: 0x100070A60, symSize: 0x90 }
  - { offsetInCU: 0x6E20B, offset: 0x6E20B, size: 0x8, addend: 0x0, symName: __ZNSt3__121__unwrap_and_dispatchB8ue170006INS_10__overloadINS_11__move_loopINS_17_ClassicAlgPolicyEEENS_14__move_trivialEEENS_16reverse_iteratorIPP17VkDescriptorSet_TEESB_SB_Li0EEENS_4pairIT0_T2_EESD_T1_SE_, symObjAddr: 0x701B0, symBinAddr: 0x100070AF0, symSize: 0x210 }
  - { offsetInCU: 0x6E29A, offset: 0x6E29A, size: 0x8, addend: 0x0, symName: __ZNSt3__114__unwrap_rangeB8ue170006INS_16reverse_iteratorIPP17VkDescriptorSet_TEES5_EEDaT_T0_, symObjAddr: 0x703C0, symBinAddr: 0x100070D00, symSize: 0x60 }
  - { offsetInCU: 0x6E3BA, offset: 0x6E3BA, size: 0x8, addend: 0x0, symName: __ZNSt3__113__unwrap_iterB8ue170006INS_16reverse_iteratorIPP17VkDescriptorSet_TEENS_18__unwrap_iter_implIS5_Lb0EEELi0EEEDTclsrT0_8__unwrapclsr3stdE7declvalIT_EEEES9_, symObjAddr: 0x704C0, symBinAddr: 0x100070E00, symSize: 0x40 }
  - { offsetInCU: 0x6E3FE, offset: 0x6E3FE, size: 0x8, addend: 0x0, symName: __ZNSt3__19make_pairB8ue170006INS_16reverse_iteratorIPP17VkDescriptorSet_TEES5_EENS_4pairINS_18__unwrap_ref_decayIT_E4typeENS7_IT0_E4typeEEEOS8_OSB_, symObjAddr: 0x70500, symBinAddr: 0x100070E40, symSize: 0x30 }
  - { offsetInCU: 0x6E44D, offset: 0x6E44D, size: 0x8, addend: 0x0, symName: __ZNSt3__114__rewrap_rangeB8ue170006INS_16reverse_iteratorIPP17VkDescriptorSet_TEES5_S5_EET0_S6_T1_, symObjAddr: 0x70530, symBinAddr: 0x100070E70, symSize: 0x60 }
  - { offsetInCU: 0x6E4A2, offset: 0x6E4A2, size: 0x8, addend: 0x0, symName: __ZNSt3__113__rewrap_iterB8ue170006INS_16reverse_iteratorIPP17VkDescriptorSet_TEES5_NS_18__unwrap_iter_implIS5_Lb0EEEEET_S8_T0_, symObjAddr: 0x70590, symBinAddr: 0x100070ED0, symSize: 0x70 }
  - { offsetInCU: 0x6E547, offset: 0x6E547, size: 0x8, addend: 0x0, symName: __ZNSt3__1neB8ue170006IPP17VkDescriptorSet_TS3_EEbRKNS_16reverse_iteratorIT_EERKNS4_IT0_EE, symObjAddr: 0x70700, symBinAddr: 0x100071040, symSize: 0x40 }
  - { offsetInCU: 0x6E5FF, offset: 0x6E5FF, size: 0x8, addend: 0x0, symName: __ZNSt3__110destroy_atB8ue170006IP17VkDescriptorSet_TLi0EEEvPT_, symObjAddr: 0x70A60, symBinAddr: 0x1000713A0, symSize: 0x20 }
  - { offsetInCU: 0x6E636, offset: 0x6E636, size: 0x8, addend: 0x0, symName: __ZNSt3__112__destroy_atB8ue170006IP17VkDescriptorSet_TLi0EEEvPT_, symObjAddr: 0x70A80, symBinAddr: 0x1000713C0, symSize: 0x10 }
  - { offsetInCU: 0x6E66D, offset: 0x6E66D, size: 0x8, addend: 0x0, symName: __ZNSt3__122__make_exception_guardB8ue170006INS_6vectorIPKcNS_9allocatorIS3_EEE16__destroy_vectorEEENS_28__exception_guard_exceptionsIT_EES9_, symObjAddr: 0x70D80, symBinAddr: 0x1000716C0, symSize: 0x40 }
  - { offsetInCU: 0x6E6A2, offset: 0x6E6A2, size: 0x8, addend: 0x0, symName: __ZNSt3__130__uninitialized_allocator_copyB8ue170006INS_9allocatorIPKcEEPKS3_S6_PS3_EET2_RT_T0_T1_S8_, symObjAddr: 0x70FE0, symBinAddr: 0x100071920, symSize: 0x80 }
  - { offsetInCU: 0x6E741, offset: 0x6E741, size: 0x8, addend: 0x0, symName: __ZNSt3__114__unwrap_rangeB8ue170006IPKPKcS4_EEDaT_T0_, symObjAddr: 0x71060, symBinAddr: 0x1000719A0, symSize: 0x40 }
  - { offsetInCU: 0x6E78D, offset: 0x6E78D, size: 0x8, addend: 0x0, symName: __ZNSt3__135__uninitialized_allocator_copy_implB8ue170006INS_9allocatorIPKcEEKS3_S3_S3_LPv0EEEPT2_RT_PT0_SC_S8_, symObjAddr: 0x710A0, symBinAddr: 0x1000719E0, symSize: 0x30 }
  - { offsetInCU: 0x6E80F, offset: 0x6E80F, size: 0x8, addend: 0x0, symName: __ZNSt3__113__unwrap_iterB8ue170006IPPKcNS_18__unwrap_iter_implIS3_Lb1EEELi0EEEDTclsrT0_8__unwrapclsr3stdE7declvalIT_EEEES7_, symObjAddr: 0x710D0, symBinAddr: 0x100071A10, symSize: 0x20 }
  - { offsetInCU: 0x6E853, offset: 0x6E853, size: 0x8, addend: 0x0, symName: __ZNSt3__113__rewrap_iterB8ue170006IPPKcS3_NS_18__unwrap_iter_implIS3_Lb1EEEEET_S6_T0_, symObjAddr: 0x710F0, symBinAddr: 0x100071A30, symSize: 0x40 }
  - { offsetInCU: 0x6E9C4, offset: 0x6E9C4, size: 0x8, addend: 0x0, symName: __ZNSt3__113__unwrap_iterB8ue170006IPKPKcNS_18__unwrap_iter_implIS4_Lb1EEELi0EEEDTclsrT0_8__unwrapclsr3stdE7declvalIT_EEEES8_, symObjAddr: 0x71180, symBinAddr: 0x100071AC0, symSize: 0x20 }
  - { offsetInCU: 0x6EA5B, offset: 0x6EA5B, size: 0x8, addend: 0x0, symName: __ZNSt3__112__to_addressB8ue170006IKPKcEEPT_S5_, symObjAddr: 0x711F0, symBinAddr: 0x100071B30, symSize: 0x10 }
  - { offsetInCU: 0x6EA90, offset: 0x6EA90, size: 0x8, addend: 0x0, symName: __ZNSt3__14copyB8ue170006IPKPKcPS2_EET0_T_S7_S6_, symObjAddr: 0x71230, symBinAddr: 0x100071B70, symSize: 0x40 }
  - { offsetInCU: 0x6EAEA, offset: 0x6EAEA, size: 0x8, addend: 0x0, symName: __ZNSt3__16__copyB8ue170006INS_17_ClassicAlgPolicyEPKPKcS5_PS3_EENS_4pairIT0_T2_EES8_T1_S9_, symObjAddr: 0x71270, symBinAddr: 0x100071BB0, symSize: 0x40 }
  - { offsetInCU: 0x6EB56, offset: 0x6EB56, size: 0x8, addend: 0x0, symName: __ZNSt3__123__dispatch_copy_or_moveB8ue170006INS_17_ClassicAlgPolicyENS_11__copy_loopIS1_EENS_14__copy_trivialEPKPKcS8_PS6_EENS_4pairIT2_T4_EESB_T3_SC_, symObjAddr: 0x712B0, symBinAddr: 0x100071BF0, symSize: 0x40 }
  - { offsetInCU: 0x6EBD4, offset: 0x6EBD4, size: 0x8, addend: 0x0, symName: __ZNSt3__121__unwrap_and_dispatchB8ue170006INS_10__overloadINS_11__copy_loopINS_17_ClassicAlgPolicyEEENS_14__copy_trivialEEEPKPKcSA_PS8_Li0EEENS_4pairIT0_T2_EESD_T1_SE_, symObjAddr: 0x712F0, symBinAddr: 0x100071C30, symSize: 0xB0 }
  - { offsetInCU: 0x6ED66, offset: 0x6ED66, size: 0x8, addend: 0x0, symName: __ZNSt3__19make_pairB8ue170006IPKPKcPS2_EENS_4pairINS_18__unwrap_ref_decayIT_E4typeENS7_IT0_E4typeEEEOS8_OSB_, symObjAddr: 0x713E0, symBinAddr: 0x100071D20, symSize: 0x30 }
  - { offsetInCU: 0x6EDB5, offset: 0x6EDB5, size: 0x8, addend: 0x0, symName: __ZNSt3__114__rewrap_rangeB8ue170006IPKPKcS4_S4_EET0_S5_T1_, symObjAddr: 0x71410, symBinAddr: 0x100071D50, symSize: 0x30 }
  - { offsetInCU: 0x6EE0A, offset: 0x6EE0A, size: 0x8, addend: 0x0, symName: __ZNSt3__119__copy_trivial_implB8ue170006IKPKcS2_EENS_4pairIPT_PT0_EES6_S6_S8_, symObjAddr: 0x71440, symBinAddr: 0x100071D80, symSize: 0x70 }
  - { offsetInCU: 0x6EE72, offset: 0x6EE72, size: 0x8, addend: 0x0, symName: __ZNSt3__119__constexpr_memmoveB8ue170006IPKcKS2_Li0EEEPT_S5_PT0_NS_15__element_countE, symObjAddr: 0x714B0, symBinAddr: 0x100071DF0, symSize: 0x50 }
  - { offsetInCU: 0x6EEE0, offset: 0x6EEE0, size: 0x8, addend: 0x0, symName: __ZNSt3__19make_pairB8ue170006IRPKPKcPS2_EENS_4pairINS_18__unwrap_ref_decayIT_E4typeENS8_IT0_E4typeEEEOS9_OSC_, symObjAddr: 0x71500, symBinAddr: 0x100071E40, symSize: 0x30 }
  - { offsetInCU: 0x6EF2F, offset: 0x6EF2F, size: 0x8, addend: 0x0, symName: __ZNSt3__113__rewrap_iterB8ue170006IPKPKcS4_NS_18__unwrap_iter_implIS4_Lb1EEEEET_S7_T0_, symObjAddr: 0x71620, symBinAddr: 0x100071F60, symSize: 0x40 }
  - { offsetInCU: 0x6EFD7, offset: 0x6EFD7, size: 0x8, addend: 0x0, symName: __ZNSt3__1eqB8ue170006IPKPKcEEbRKNS_11__wrap_iterIT_EES9_, symObjAddr: 0x717D0, symBinAddr: 0x100072110, symSize: 0x40 }
  - { offsetInCU: 0x6F01A, offset: 0x6F01A, size: 0x8, addend: 0x0, symName: __ZNSt3__18distanceB8ue170006IPPKcEENS_15iterator_traitsIT_E15difference_typeES5_S5_, symObjAddr: 0x718A0, symBinAddr: 0x1000721E0, symSize: 0x30 }
  - { offsetInCU: 0x6F05D, offset: 0x6F05D, size: 0x8, addend: 0x0, symName: __ZNSt3__110__distanceB8ue170006IPPKcEENS_15iterator_traitsIT_E15difference_typeES5_S5_NS_26random_access_iterator_tagE, symObjAddr: 0x71980, symBinAddr: 0x1000722C0, symSize: 0x20 }
  - { offsetInCU: 0x6F0AB, offset: 0x6F0AB, size: 0x8, addend: 0x0, symName: __ZNSt3__130__uninitialized_allocator_copyB8ue170006INS_9allocatorIPKcEEPS3_S5_S5_EET2_RT_T0_T1_S6_, symObjAddr: 0x71A30, symBinAddr: 0x100072370, symSize: 0x80 }
  - { offsetInCU: 0x6F14A, offset: 0x6F14A, size: 0x8, addend: 0x0, symName: __ZNSt3__114__unwrap_rangeB8ue170006IPPKcS3_EEDaT_T0_, symObjAddr: 0x71AB0, symBinAddr: 0x1000723F0, symSize: 0x40 }
  - { offsetInCU: 0x6F196, offset: 0x6F196, size: 0x8, addend: 0x0, symName: __ZNSt3__135__uninitialized_allocator_copy_implB8ue170006INS_9allocatorIPKcEES3_S3_S3_LPv0EEEPT2_RT_PT0_SB_S7_, symObjAddr: 0x71AF0, symBinAddr: 0x100072430, symSize: 0x30 }
  - { offsetInCU: 0x6F363, offset: 0x6F363, size: 0x8, addend: 0x0, symName: __ZNSt3__14copyB8ue170006IPPKcS3_EET0_T_S5_S4_, symObjAddr: 0x71BD0, symBinAddr: 0x100072510, symSize: 0x40 }
  - { offsetInCU: 0x6F3BD, offset: 0x6F3BD, size: 0x8, addend: 0x0, symName: __ZNSt3__16__copyB8ue170006INS_17_ClassicAlgPolicyEPPKcS4_S4_EENS_4pairIT0_T2_EES6_T1_S7_, symObjAddr: 0x71C10, symBinAddr: 0x100072550, symSize: 0x40 }
  - { offsetInCU: 0x6F429, offset: 0x6F429, size: 0x8, addend: 0x0, symName: __ZNSt3__123__dispatch_copy_or_moveB8ue170006INS_17_ClassicAlgPolicyENS_11__copy_loopIS1_EENS_14__copy_trivialEPPKcS7_S7_EENS_4pairIT2_T4_EES9_T3_SA_, symObjAddr: 0x71C50, symBinAddr: 0x100072590, symSize: 0x40 }
  - { offsetInCU: 0x6F4A7, offset: 0x6F4A7, size: 0x8, addend: 0x0, symName: __ZNSt3__121__unwrap_and_dispatchB8ue170006INS_10__overloadINS_11__copy_loopINS_17_ClassicAlgPolicyEEENS_14__copy_trivialEEEPPKcS9_S9_Li0EEENS_4pairIT0_T2_EESB_T1_SC_, symObjAddr: 0x71C90, symBinAddr: 0x1000725D0, symSize: 0xB0 }
  - { offsetInCU: 0x6F536, offset: 0x6F536, size: 0x8, addend: 0x0, symName: __ZNSt3__19make_pairB8ue170006IPPKcS3_EENS_4pairINS_18__unwrap_ref_decayIT_E4typeENS5_IT0_E4typeEEEOS6_OS9_, symObjAddr: 0x71D80, symBinAddr: 0x1000726C0, symSize: 0x30 }
  - { offsetInCU: 0x6F585, offset: 0x6F585, size: 0x8, addend: 0x0, symName: __ZNSt3__114__rewrap_rangeB8ue170006IPPKcS3_S3_EET0_S4_T1_, symObjAddr: 0x71DB0, symBinAddr: 0x1000726F0, symSize: 0x30 }
  - { offsetInCU: 0x6F5DA, offset: 0x6F5DA, size: 0x8, addend: 0x0, symName: __ZNSt3__119__copy_trivial_implB8ue170006IPKcS2_EENS_4pairIPT_PT0_EES5_S5_S7_, symObjAddr: 0x71DE0, symBinAddr: 0x100072720, symSize: 0x70 }
  - { offsetInCU: 0x6F642, offset: 0x6F642, size: 0x8, addend: 0x0, symName: __ZNSt3__119__constexpr_memmoveB8ue170006IPKcS2_Li0EEEPT_S4_PT0_NS_15__element_countE, symObjAddr: 0x71E50, symBinAddr: 0x100072790, symSize: 0x50 }
  - { offsetInCU: 0x6F6B0, offset: 0x6F6B0, size: 0x8, addend: 0x0, symName: __ZNSt3__19make_pairB8ue170006IRPPKcS3_EENS_4pairINS_18__unwrap_ref_decayIT_E4typeENS6_IT0_E4typeEEEOS7_OSA_, symObjAddr: 0x71EA0, symBinAddr: 0x1000727E0, symSize: 0x30 }
  - { offsetInCU: 0x6F6FF, offset: 0x6F6FF, size: 0x8, addend: 0x0, symName: __ZNSt3__112construct_atB8ue170006IPKcJS2_EPS2_EEPT_S5_DpOT0_, symObjAddr: 0x720F0, symBinAddr: 0x100072A30, symSize: 0x30 }
  - { offsetInCU: 0x6F771, offset: 0x6F771, size: 0x8, addend: 0x0, symName: __ZNSt3__122__make_exception_guardB8ue170006INS_6vectorI21VkExtensionPropertiesNS_9allocatorIS2_EEE16__destroy_vectorEEENS_28__exception_guard_exceptionsIT_EES8_, symObjAddr: 0x72220, symBinAddr: 0x100072B60, symSize: 0x40 }
  - { offsetInCU: 0x6F7A6, offset: 0x6F7A6, size: 0x8, addend: 0x0, symName: __ZNSt3__119__allocate_at_leastB8ue170006INS_9allocatorI21VkExtensionPropertiesEEEENS_19__allocation_resultINS_16allocator_traitsIT_E7pointerEEERS6_m, symObjAddr: 0x725D0, symBinAddr: 0x100072F10, symSize: 0x40 }
  - { offsetInCU: 0x6F7E9, offset: 0x6F7E9, size: 0x8, addend: 0x0, symName: __ZNSt3__112__to_addressB8ue170006I21VkExtensionPropertiesEEPT_S3_, symObjAddr: 0x728B0, symBinAddr: 0x1000731F0, symSize: 0x10 }
  - { offsetInCU: 0x6F845, offset: 0x6F845, size: 0x8, addend: 0x0, symName: __ZNSt3__112construct_atB8ue170006I21VkExtensionPropertiesJEPS1_EEPT_S4_DpOT0_, symObjAddr: 0x729C0, symBinAddr: 0x100073300, symSize: 0x40 }
  - { offsetInCU: 0x6F8A3, offset: 0x6F8A3, size: 0x8, addend: 0x0, symName: __ZNSt3__110destroy_atB8ue170006I21VkExtensionPropertiesLi0EEEvPT_, symObjAddr: 0x72C90, symBinAddr: 0x1000735D0, symSize: 0x20 }
  - { offsetInCU: 0x6F8DA, offset: 0x6F8DA, size: 0x8, addend: 0x0, symName: __ZNSt3__112__destroy_atB8ue170006I21VkExtensionPropertiesLi0EEEvPT_, symObjAddr: 0x72CB0, symBinAddr: 0x1000735F0, symSize: 0x10 }
  - { offsetInCU: 0x6F911, offset: 0x6F911, size: 0x8, addend: 0x0, symName: __ZNSt3__1eqB8ue170006IP21VkExtensionPropertiesEEbRKNS_11__wrap_iterIT_EES7_, symObjAddr: 0x72DC0, symBinAddr: 0x100073700, symSize: 0x40 }
  - { offsetInCU: 0x6F954, offset: 0x6F954, size: 0x8, addend: 0x0, symName: __ZNSt3__1eqB8ue170006IPK8VkFormatEEbRKNS_11__wrap_iterIT_EES8_, symObjAddr: 0x72EE0, symBinAddr: 0x100073820, symSize: 0x40 }
  - { offsetInCU: 0x6F997, offset: 0x6F997, size: 0x8, addend: 0x0, symName: __ZNSt3__122__make_exception_guardB8ue170006INS_6vectorI8VkFormatNS_9allocatorIS2_EEE16__destroy_vectorEEENS_28__exception_guard_exceptionsIT_EES8_, symObjAddr: 0x73080, symBinAddr: 0x1000739C0, symSize: 0x40 }
  - { offsetInCU: 0x6F9CC, offset: 0x6F9CC, size: 0x8, addend: 0x0, symName: __ZNSt3__119__allocate_at_leastB8ue170006INS_9allocatorI8VkFormatEEEENS_19__allocation_resultINS_16allocator_traitsIT_E7pointerEEERS6_m, symObjAddr: 0x73460, symBinAddr: 0x100073DA0, symSize: 0x40 }
  - { offsetInCU: 0x6FA0F, offset: 0x6FA0F, size: 0x8, addend: 0x0, symName: __ZNSt3__112__to_addressB8ue170006I8VkFormatEEPT_S3_, symObjAddr: 0x73720, symBinAddr: 0x100074060, symSize: 0x10 }
  - { offsetInCU: 0x6FA44, offset: 0x6FA44, size: 0x8, addend: 0x0, symName: __ZNSt3__130__uninitialized_allocator_copyB8ue170006INS_9allocatorI8VkFormatEEPKS2_S5_PS2_EET2_RT_T0_T1_S7_, symObjAddr: 0x737B0, symBinAddr: 0x1000740F0, symSize: 0x80 }
  - { offsetInCU: 0x6FAE3, offset: 0x6FAE3, size: 0x8, addend: 0x0, symName: __ZNSt3__114__unwrap_rangeB8ue170006IPK8VkFormatS3_EEDaT_T0_, symObjAddr: 0x73890, symBinAddr: 0x1000741D0, symSize: 0x40 }
  - { offsetInCU: 0x6FB2F, offset: 0x6FB2F, size: 0x8, addend: 0x0, symName: __ZNSt3__135__uninitialized_allocator_copy_implB8ue170006INS_9allocatorI8VkFormatEEKS2_S2_S2_LPv0EEEPT2_RT_PT0_SB_S7_, symObjAddr: 0x738D0, symBinAddr: 0x100074210, symSize: 0x30 }
  - { offsetInCU: 0x6FBB1, offset: 0x6FBB1, size: 0x8, addend: 0x0, symName: __ZNSt3__113__unwrap_iterB8ue170006IP8VkFormatNS_18__unwrap_iter_implIS2_Lb1EEELi0EEEDTclsrT0_8__unwrapclsr3stdE7declvalIT_EEEES6_, symObjAddr: 0x73900, symBinAddr: 0x100074240, symSize: 0x20 }
  - { offsetInCU: 0x6FBF5, offset: 0x6FBF5, size: 0x8, addend: 0x0, symName: __ZNSt3__113__rewrap_iterB8ue170006IP8VkFormatS2_NS_18__unwrap_iter_implIS2_Lb1EEEEET_S5_T0_, symObjAddr: 0x73920, symBinAddr: 0x100074260, symSize: 0x40 }
  - { offsetInCU: 0x6FD66, offset: 0x6FD66, size: 0x8, addend: 0x0, symName: __ZNSt3__113__unwrap_iterB8ue170006IPK8VkFormatNS_18__unwrap_iter_implIS3_Lb1EEELi0EEEDTclsrT0_8__unwrapclsr3stdE7declvalIT_EEEES7_, symObjAddr: 0x739B0, symBinAddr: 0x1000742F0, symSize: 0x20 }
  - { offsetInCU: 0x6FDFD, offset: 0x6FDFD, size: 0x8, addend: 0x0, symName: __ZNSt3__112__to_addressB8ue170006IK8VkFormatEEPT_S4_, symObjAddr: 0x73A20, symBinAddr: 0x100074360, symSize: 0x10 }
  - { offsetInCU: 0x6FE32, offset: 0x6FE32, size: 0x8, addend: 0x0, symName: __ZNSt3__14copyB8ue170006IPK8VkFormatPS1_EET0_T_S6_S5_, symObjAddr: 0x73A60, symBinAddr: 0x1000743A0, symSize: 0x40 }
  - { offsetInCU: 0x6FE8C, offset: 0x6FE8C, size: 0x8, addend: 0x0, symName: __ZNSt3__16__copyB8ue170006INS_17_ClassicAlgPolicyEPK8VkFormatS4_PS2_EENS_4pairIT0_T2_EES7_T1_S8_, symObjAddr: 0x73AA0, symBinAddr: 0x1000743E0, symSize: 0x40 }
  - { offsetInCU: 0x6FEF8, offset: 0x6FEF8, size: 0x8, addend: 0x0, symName: __ZNSt3__123__dispatch_copy_or_moveB8ue170006INS_17_ClassicAlgPolicyENS_11__copy_loopIS1_EENS_14__copy_trivialEPK8VkFormatS7_PS5_EENS_4pairIT2_T4_EESA_T3_SB_, symObjAddr: 0x73AE0, symBinAddr: 0x100074420, symSize: 0x40 }
  - { offsetInCU: 0x6FF76, offset: 0x6FF76, size: 0x8, addend: 0x0, symName: __ZNSt3__121__unwrap_and_dispatchB8ue170006INS_10__overloadINS_11__copy_loopINS_17_ClassicAlgPolicyEEENS_14__copy_trivialEEEPK8VkFormatS9_PS7_Li0EEENS_4pairIT0_T2_EESC_T1_SD_, symObjAddr: 0x73B20, symBinAddr: 0x100074460, symSize: 0xB0 }
  - { offsetInCU: 0x70108, offset: 0x70108, size: 0x8, addend: 0x0, symName: __ZNSt3__19make_pairB8ue170006IPK8VkFormatPS1_EENS_4pairINS_18__unwrap_ref_decayIT_E4typeENS6_IT0_E4typeEEEOS7_OSA_, symObjAddr: 0x73C10, symBinAddr: 0x100074550, symSize: 0x30 }
  - { offsetInCU: 0x70157, offset: 0x70157, size: 0x8, addend: 0x0, symName: __ZNSt3__114__rewrap_rangeB8ue170006IPK8VkFormatS3_S3_EET0_S4_T1_, symObjAddr: 0x73C40, symBinAddr: 0x100074580, symSize: 0x30 }
  - { offsetInCU: 0x701AC, offset: 0x701AC, size: 0x8, addend: 0x0, symName: __ZNSt3__119__copy_trivial_implB8ue170006IK8VkFormatS1_EENS_4pairIPT_PT0_EES5_S5_S7_, symObjAddr: 0x73C70, symBinAddr: 0x1000745B0, symSize: 0x70 }
  - { offsetInCU: 0x70214, offset: 0x70214, size: 0x8, addend: 0x0, symName: __ZNSt3__119__constexpr_memmoveB8ue170006I8VkFormatKS1_Li0EEEPT_S4_PT0_NS_15__element_countE, symObjAddr: 0x73CE0, symBinAddr: 0x100074620, symSize: 0x50 }
  - { offsetInCU: 0x70282, offset: 0x70282, size: 0x8, addend: 0x0, symName: __ZNSt3__19make_pairB8ue170006IRPK8VkFormatPS1_EENS_4pairINS_18__unwrap_ref_decayIT_E4typeENS7_IT0_E4typeEEEOS8_OSB_, symObjAddr: 0x73D30, symBinAddr: 0x100074670, symSize: 0x30 }
  - { offsetInCU: 0x702D1, offset: 0x702D1, size: 0x8, addend: 0x0, symName: __ZNSt3__113__rewrap_iterB8ue170006IPK8VkFormatS3_NS_18__unwrap_iter_implIS3_Lb1EEEEET_S6_T0_, symObjAddr: 0x73E50, symBinAddr: 0x100074790, symSize: 0x40 }
  - { offsetInCU: 0x70379, offset: 0x70379, size: 0x8, addend: 0x0, symName: __ZNSt3__110destroy_atB8ue170006I8VkFormatLi0EEEvPT_, symObjAddr: 0x741D0, symBinAddr: 0x100074B10, symSize: 0x20 }
  - { offsetInCU: 0x703B0, offset: 0x703B0, size: 0x8, addend: 0x0, symName: __ZNSt3__112__destroy_atB8ue170006I8VkFormatLi0EEEvPT_, symObjAddr: 0x741F0, symBinAddr: 0x100074B30, symSize: 0x10 }
  - { offsetInCU: 0x703E7, offset: 0x703E7, size: 0x8, addend: 0x0, symName: __ZNSt3__122__make_exception_guardB8ue170006INS_6vectorI23VkQueueFamilyPropertiesNS_9allocatorIS2_EEE16__destroy_vectorEEENS_28__exception_guard_exceptionsIT_EES8_, symObjAddr: 0x744D0, symBinAddr: 0x100074E10, symSize: 0x40 }
  - { offsetInCU: 0x7041C, offset: 0x7041C, size: 0x8, addend: 0x0, symName: __ZNSt3__119__allocate_at_leastB8ue170006INS_9allocatorI23VkQueueFamilyPropertiesEEEENS_19__allocation_resultINS_16allocator_traitsIT_E7pointerEEERS6_m, symObjAddr: 0x74880, symBinAddr: 0x1000751C0, symSize: 0x40 }
  - { offsetInCU: 0x7045F, offset: 0x7045F, size: 0x8, addend: 0x0, symName: __ZNSt3__112__to_addressB8ue170006I23VkQueueFamilyPropertiesEEPT_S3_, symObjAddr: 0x74B50, symBinAddr: 0x100075490, symSize: 0x10 }
  - { offsetInCU: 0x704BB, offset: 0x704BB, size: 0x8, addend: 0x0, symName: __ZNSt3__112construct_atB8ue170006I23VkQueueFamilyPropertiesJEPS1_EEPT_S4_DpOT0_, symObjAddr: 0x74C60, symBinAddr: 0x1000755A0, symSize: 0x40 }
  - { offsetInCU: 0x70519, offset: 0x70519, size: 0x8, addend: 0x0, symName: __ZNSt3__110destroy_atB8ue170006I23VkQueueFamilyPropertiesLi0EEEvPT_, symObjAddr: 0x74F20, symBinAddr: 0x100075860, symSize: 0x20 }
  - { offsetInCU: 0x70550, offset: 0x70550, size: 0x8, addend: 0x0, symName: __ZNSt3__112__destroy_atB8ue170006I23VkQueueFamilyPropertiesLi0EEEvPT_, symObjAddr: 0x74F40, symBinAddr: 0x100075880, symSize: 0x10 }
  - { offsetInCU: 0x70587, offset: 0x70587, size: 0x8, addend: 0x0, symName: __ZNSt3__1eqB8ue170006IP23VkQueueFamilyPropertiesEEbRKNS_11__wrap_iterIT_EES7_, symObjAddr: 0x75050, symBinAddr: 0x100075990, symSize: 0x40 }
  - { offsetInCU: 0x705CA, offset: 0x705CA, size: 0x8, addend: 0x0, symName: __ZNSt3__112construct_atB8ue170006IjJRiEPjEEPT_S4_DpOT0_, symObjAddr: 0x75110, symBinAddr: 0x100075A50, symSize: 0x30 }
  - { offsetInCU: 0x7063C, offset: 0x7063C, size: 0x8, addend: 0x0, symName: __ZNSt3__112__to_addressB8ue170006I18VkSurfaceFormatKHREEPT_S3_, symObjAddr: 0x75A10, symBinAddr: 0x100076350, symSize: 0x10 }
  - { offsetInCU: 0x70698, offset: 0x70698, size: 0x8, addend: 0x0, symName: __ZNSt3__112construct_atB8ue170006I18VkSurfaceFormatKHRJEPS1_EEPT_S4_DpOT0_, symObjAddr: 0x75A80, symBinAddr: 0x1000763C0, symSize: 0x40 }
  - { offsetInCU: 0x706F6, offset: 0x706F6, size: 0x8, addend: 0x0, symName: __ZNSt3__119__allocate_at_leastB8ue170006INS_9allocatorI18VkSurfaceFormatKHREEEENS_19__allocation_resultINS_16allocator_traitsIT_E7pointerEEERS6_m, symObjAddr: 0x75D80, symBinAddr: 0x1000766C0, symSize: 0x40 }
  - { offsetInCU: 0x70739, offset: 0x70739, size: 0x8, addend: 0x0, symName: __ZNSt3__142__uninitialized_allocator_move_if_noexceptB8ue170006INS_9allocatorI18VkSurfaceFormatKHREENS_16reverse_iteratorIPS2_EES6_S2_vEET1_RT_T0_SA_S7_, symObjAddr: 0x76070, symBinAddr: 0x1000769B0, symSize: 0x70 }
  - { offsetInCU: 0x707B6, offset: 0x707B6, size: 0x8, addend: 0x0, symName: __ZNSt3__14swapB8ue170006IP18VkSurfaceFormatKHREENS_9enable_ifIXaasr21is_move_constructibleIT_EE5valuesr18is_move_assignableIS4_EE5valueEvE4typeERS4_S7_, symObjAddr: 0x76130, symBinAddr: 0x100076A70, symSize: 0x40 }
  - { offsetInCU: 0x70807, offset: 0x70807, size: 0x8, addend: 0x0, symName: __ZNSt3__14moveB8ue170006INS_16reverse_iteratorIP18VkSurfaceFormatKHREES4_EET0_T_S6_S5_, symObjAddr: 0x76260, symBinAddr: 0x100076BA0, symSize: 0x80 }
  - { offsetInCU: 0x70861, offset: 0x70861, size: 0x8, addend: 0x0, symName: __ZNSt3__16__moveB8ue170006INS_17_ClassicAlgPolicyENS_16reverse_iteratorIP18VkSurfaceFormatKHREES5_S5_EENS_4pairIT0_T2_EES7_T1_S8_, symObjAddr: 0x762E0, symBinAddr: 0x100076C20, symSize: 0x90 }
  - { offsetInCU: 0x708CD, offset: 0x708CD, size: 0x8, addend: 0x0, symName: __ZNSt3__123__dispatch_copy_or_moveB8ue170006INS_17_ClassicAlgPolicyENS_11__move_loopIS1_EENS_14__move_trivialENS_16reverse_iteratorIP18VkSurfaceFormatKHREES8_S8_EENS_4pairIT2_T4_EESA_T3_SB_, symObjAddr: 0x76370, symBinAddr: 0x100076CB0, symSize: 0x90 }
  - { offsetInCU: 0x7094B, offset: 0x7094B, size: 0x8, addend: 0x0, symName: __ZNSt3__121__unwrap_and_dispatchB8ue170006INS_10__overloadINS_11__move_loopINS_17_ClassicAlgPolicyEEENS_14__move_trivialEEENS_16reverse_iteratorIP18VkSurfaceFormatKHREESA_SA_Li0EEENS_4pairIT0_T2_EESC_T1_SD_, symObjAddr: 0x76400, symBinAddr: 0x100076D40, symSize: 0x210 }
  - { offsetInCU: 0x709DA, offset: 0x709DA, size: 0x8, addend: 0x0, symName: __ZNSt3__114__unwrap_rangeB8ue170006INS_16reverse_iteratorIP18VkSurfaceFormatKHREES4_EEDaT_T0_, symObjAddr: 0x76610, symBinAddr: 0x100076F50, symSize: 0x60 }
  - { offsetInCU: 0x70AFA, offset: 0x70AFA, size: 0x8, addend: 0x0, symName: __ZNSt3__113__unwrap_iterB8ue170006INS_16reverse_iteratorIP18VkSurfaceFormatKHREENS_18__unwrap_iter_implIS4_Lb0EEELi0EEEDTclsrT0_8__unwrapclsr3stdE7declvalIT_EEEES8_, symObjAddr: 0x76710, symBinAddr: 0x100077050, symSize: 0x40 }
  - { offsetInCU: 0x70B3E, offset: 0x70B3E, size: 0x8, addend: 0x0, symName: __ZNSt3__19make_pairB8ue170006INS_16reverse_iteratorIP18VkSurfaceFormatKHREES4_EENS_4pairINS_18__unwrap_ref_decayIT_E4typeENS6_IT0_E4typeEEEOS7_OSA_, symObjAddr: 0x76750, symBinAddr: 0x100077090, symSize: 0x30 }
  - { offsetInCU: 0x70B8D, offset: 0x70B8D, size: 0x8, addend: 0x0, symName: __ZNSt3__114__rewrap_rangeB8ue170006INS_16reverse_iteratorIP18VkSurfaceFormatKHREES4_S4_EET0_S5_T1_, symObjAddr: 0x76780, symBinAddr: 0x1000770C0, symSize: 0x60 }
  - { offsetInCU: 0x70BE2, offset: 0x70BE2, size: 0x8, addend: 0x0, symName: __ZNSt3__113__rewrap_iterB8ue170006INS_16reverse_iteratorIP18VkSurfaceFormatKHREES4_NS_18__unwrap_iter_implIS4_Lb0EEEEET_S7_T0_, symObjAddr: 0x767E0, symBinAddr: 0x100077120, symSize: 0x70 }
  - { offsetInCU: 0x70C87, offset: 0x70C87, size: 0x8, addend: 0x0, symName: __ZNSt3__1neB8ue170006IP18VkSurfaceFormatKHRS2_EEbRKNS_16reverse_iteratorIT_EERKNS3_IT0_EE, symObjAddr: 0x76950, symBinAddr: 0x100077290, symSize: 0x40 }
  - { offsetInCU: 0x70D3F, offset: 0x70D3F, size: 0x8, addend: 0x0, symName: __ZNSt3__110destroy_atB8ue170006I18VkSurfaceFormatKHRLi0EEEvPT_, symObjAddr: 0x76CB0, symBinAddr: 0x1000775F0, symSize: 0x20 }
  - { offsetInCU: 0x70D76, offset: 0x70D76, size: 0x8, addend: 0x0, symName: __ZNSt3__112__destroy_atB8ue170006I18VkSurfaceFormatKHRLi0EEEvPT_, symObjAddr: 0x76CD0, symBinAddr: 0x100077610, symSize: 0x10 }
  - { offsetInCU: 0x70DAD, offset: 0x70DAD, size: 0x8, addend: 0x0, symName: __ZNSt3__112__to_addressB8ue170006I16VkPresentModeKHREEPT_S3_, symObjAddr: 0x77440, symBinAddr: 0x100077D80, symSize: 0x10 }
  - { offsetInCU: 0x70E09, offset: 0x70E09, size: 0x8, addend: 0x0, symName: __ZNSt3__112construct_atB8ue170006I16VkPresentModeKHRJEPS1_EEPT_S4_DpOT0_, symObjAddr: 0x774B0, symBinAddr: 0x100077DF0, symSize: 0x20 }
  - { offsetInCU: 0x70E67, offset: 0x70E67, size: 0x8, addend: 0x0, symName: __ZNSt3__119__allocate_at_leastB8ue170006INS_9allocatorI16VkPresentModeKHREEEENS_19__allocation_resultINS_16allocator_traitsIT_E7pointerEEERS6_m, symObjAddr: 0x77790, symBinAddr: 0x1000780D0, symSize: 0x40 }
  - { offsetInCU: 0x70EAA, offset: 0x70EAA, size: 0x8, addend: 0x0, symName: __ZNSt3__142__uninitialized_allocator_move_if_noexceptB8ue170006INS_9allocatorI16VkPresentModeKHREENS_16reverse_iteratorIPS2_EES6_S2_vEET1_RT_T0_SA_S7_, symObjAddr: 0x77A80, symBinAddr: 0x1000783C0, symSize: 0x70 }
  - { offsetInCU: 0x70F27, offset: 0x70F27, size: 0x8, addend: 0x0, symName: __ZNSt3__14swapB8ue170006IP16VkPresentModeKHREENS_9enable_ifIXaasr21is_move_constructibleIT_EE5valuesr18is_move_assignableIS4_EE5valueEvE4typeERS4_S7_, symObjAddr: 0x77B40, symBinAddr: 0x100078480, symSize: 0x40 }
  - { offsetInCU: 0x70F78, offset: 0x70F78, size: 0x8, addend: 0x0, symName: __ZNSt3__14moveB8ue170006INS_16reverse_iteratorIP16VkPresentModeKHREES4_EET0_T_S6_S5_, symObjAddr: 0x77C70, symBinAddr: 0x1000785B0, symSize: 0x80 }
  - { offsetInCU: 0x70FD2, offset: 0x70FD2, size: 0x8, addend: 0x0, symName: __ZNSt3__16__moveB8ue170006INS_17_ClassicAlgPolicyENS_16reverse_iteratorIP16VkPresentModeKHREES5_S5_EENS_4pairIT0_T2_EES7_T1_S8_, symObjAddr: 0x77CF0, symBinAddr: 0x100078630, symSize: 0x90 }
  - { offsetInCU: 0x7103E, offset: 0x7103E, size: 0x8, addend: 0x0, symName: __ZNSt3__123__dispatch_copy_or_moveB8ue170006INS_17_ClassicAlgPolicyENS_11__move_loopIS1_EENS_14__move_trivialENS_16reverse_iteratorIP16VkPresentModeKHREES8_S8_EENS_4pairIT2_T4_EESA_T3_SB_, symObjAddr: 0x77D80, symBinAddr: 0x1000786C0, symSize: 0x90 }
  - { offsetInCU: 0x710BC, offset: 0x710BC, size: 0x8, addend: 0x0, symName: __ZNSt3__121__unwrap_and_dispatchB8ue170006INS_10__overloadINS_11__move_loopINS_17_ClassicAlgPolicyEEENS_14__move_trivialEEENS_16reverse_iteratorIP16VkPresentModeKHREESA_SA_Li0EEENS_4pairIT0_T2_EESC_T1_SD_, symObjAddr: 0x77E10, symBinAddr: 0x100078750, symSize: 0x210 }
  - { offsetInCU: 0x7114B, offset: 0x7114B, size: 0x8, addend: 0x0, symName: __ZNSt3__114__unwrap_rangeB8ue170006INS_16reverse_iteratorIP16VkPresentModeKHREES4_EEDaT_T0_, symObjAddr: 0x78020, symBinAddr: 0x100078960, symSize: 0x60 }
  - { offsetInCU: 0x7126B, offset: 0x7126B, size: 0x8, addend: 0x0, symName: __ZNSt3__113__unwrap_iterB8ue170006INS_16reverse_iteratorIP16VkPresentModeKHREENS_18__unwrap_iter_implIS4_Lb0EEELi0EEEDTclsrT0_8__unwrapclsr3stdE7declvalIT_EEEES8_, symObjAddr: 0x78120, symBinAddr: 0x100078A60, symSize: 0x40 }
  - { offsetInCU: 0x712AF, offset: 0x712AF, size: 0x8, addend: 0x0, symName: __ZNSt3__19make_pairB8ue170006INS_16reverse_iteratorIP16VkPresentModeKHREES4_EENS_4pairINS_18__unwrap_ref_decayIT_E4typeENS6_IT0_E4typeEEEOS7_OSA_, symObjAddr: 0x78160, symBinAddr: 0x100078AA0, symSize: 0x30 }
  - { offsetInCU: 0x712FE, offset: 0x712FE, size: 0x8, addend: 0x0, symName: __ZNSt3__114__rewrap_rangeB8ue170006INS_16reverse_iteratorIP16VkPresentModeKHREES4_S4_EET0_S5_T1_, symObjAddr: 0x78190, symBinAddr: 0x100078AD0, symSize: 0x60 }
  - { offsetInCU: 0x71353, offset: 0x71353, size: 0x8, addend: 0x0, symName: __ZNSt3__113__rewrap_iterB8ue170006INS_16reverse_iteratorIP16VkPresentModeKHREES4_NS_18__unwrap_iter_implIS4_Lb0EEEEET_S7_T0_, symObjAddr: 0x781F0, symBinAddr: 0x100078B30, symSize: 0x70 }
  - { offsetInCU: 0x713F8, offset: 0x713F8, size: 0x8, addend: 0x0, symName: __ZNSt3__1neB8ue170006IP16VkPresentModeKHRS2_EEbRKNS_16reverse_iteratorIT_EERKNS3_IT0_EE, symObjAddr: 0x78360, symBinAddr: 0x100078CA0, symSize: 0x40 }
  - { offsetInCU: 0x714B0, offset: 0x714B0, size: 0x8, addend: 0x0, symName: __ZNSt3__110destroy_atB8ue170006I16VkPresentModeKHRLi0EEEvPT_, symObjAddr: 0x786C0, symBinAddr: 0x100079000, symSize: 0x20 }
  - { offsetInCU: 0x714E7, offset: 0x714E7, size: 0x8, addend: 0x0, symName: __ZNSt3__112__destroy_atB8ue170006I16VkPresentModeKHRLi0EEEvPT_, symObjAddr: 0x786E0, symBinAddr: 0x100079020, symSize: 0x10 }
  - { offsetInCU: 0x7151E, offset: 0x7151E, size: 0x8, addend: 0x0, symName: __ZNSt3__122__make_exception_guardB8ue170006INS_6vectorIP18VkPhysicalDevice_TNS_9allocatorIS3_EEE16__destroy_vectorEEENS_28__exception_guard_exceptionsIT_EES9_, symObjAddr: 0x78C60, symBinAddr: 0x1000795A0, symSize: 0x40 }
  - { offsetInCU: 0x71553, offset: 0x71553, size: 0x8, addend: 0x0, symName: __ZNSt3__119__allocate_at_leastB8ue170006INS_9allocatorIP18VkPhysicalDevice_TEEEENS_19__allocation_resultINS_16allocator_traitsIT_E7pointerEEERS7_m, symObjAddr: 0x79010, symBinAddr: 0x100079950, symSize: 0x40 }
  - { offsetInCU: 0x71596, offset: 0x71596, size: 0x8, addend: 0x0, symName: __ZNSt3__112__to_addressB8ue170006IP18VkPhysicalDevice_TEEPT_S4_, symObjAddr: 0x792D0, symBinAddr: 0x100079C10, symSize: 0x10 }
  - { offsetInCU: 0x715F2, offset: 0x715F2, size: 0x8, addend: 0x0, symName: __ZNSt3__112construct_atB8ue170006IP18VkPhysicalDevice_TJEPS2_EEPT_S5_DpOT0_, symObjAddr: 0x793E0, symBinAddr: 0x100079D20, symSize: 0x20 }
  - { offsetInCU: 0x71650, offset: 0x71650, size: 0x8, addend: 0x0, symName: __ZNSt3__110destroy_atB8ue170006IP18VkPhysicalDevice_TLi0EEEvPT_, symObjAddr: 0x79680, symBinAddr: 0x100079FC0, symSize: 0x20 }
  - { offsetInCU: 0x71687, offset: 0x71687, size: 0x8, addend: 0x0, symName: __ZNSt3__112__destroy_atB8ue170006IP18VkPhysicalDevice_TLi0EEEvPT_, symObjAddr: 0x796A0, symBinAddr: 0x100079FE0, symSize: 0x10 }
  - { offsetInCU: 0x716BE, offset: 0x716BE, size: 0x8, addend: 0x0, symName: __ZNSt3__1eqB8ue170006IPP18VkPhysicalDevice_TEEbRKNS_11__wrap_iterIT_EES8_, symObjAddr: 0x79790, symBinAddr: 0x10007A0D0, symSize: 0x40 }
  - { offsetInCU: 0x71702, offset: 0x71702, size: 0x8, addend: 0x0, symName: __ZNSt3__127__throw_bad_optional_accessB8ue170006Ev, symObjAddr: 0x79960, symBinAddr: 0x10007A2A0, symSize: 0x40 }
  - { offsetInCU: 0x7171C, offset: 0x7171C, size: 0x8, addend: 0x0, symName: __ZNSt3__112__to_addressB8ue170006I23VkDeviceQueueCreateInfoEEPT_S3_, symObjAddr: 0x79C50, symBinAddr: 0x10007A590, symSize: 0x10 }
  - { offsetInCU: 0x71778, offset: 0x71778, size: 0x8, addend: 0x0, symName: __ZNSt3__112construct_atB8ue170006I23VkDeviceQueueCreateInfoJRKS1_EPS1_EEPT_S6_DpOT0_, symObjAddr: 0x79CC0, symBinAddr: 0x10007A600, symSize: 0x40 }
  - { offsetInCU: 0x717EA, offset: 0x717EA, size: 0x8, addend: 0x0, symName: __ZNSt3__119__allocate_at_leastB8ue170006INS_9allocatorI23VkDeviceQueueCreateInfoEEEENS_19__allocation_resultINS_16allocator_traitsIT_E7pointerEEERS6_m, symObjAddr: 0x7A1F0, symBinAddr: 0x10007AB30, symSize: 0x40 }
  - { offsetInCU: 0x7182D, offset: 0x7182D, size: 0x8, addend: 0x0, symName: __ZNSt3__142__uninitialized_allocator_move_if_noexceptB8ue170006INS_9allocatorI23VkDeviceQueueCreateInfoEENS_16reverse_iteratorIPS2_EES6_S2_vEET1_RT_T0_SA_S7_, symObjAddr: 0x7A430, symBinAddr: 0x10007AD70, symSize: 0x70 }
  - { offsetInCU: 0x718AA, offset: 0x718AA, size: 0x8, addend: 0x0, symName: __ZNSt3__14swapB8ue170006IP23VkDeviceQueueCreateInfoEENS_9enable_ifIXaasr21is_move_constructibleIT_EE5valuesr18is_move_assignableIS4_EE5valueEvE4typeERS4_S7_, symObjAddr: 0x7A4F0, symBinAddr: 0x10007AE30, symSize: 0x40 }
  - { offsetInCU: 0x718FB, offset: 0x718FB, size: 0x8, addend: 0x0, symName: __ZNSt3__14moveB8ue170006INS_16reverse_iteratorIP23VkDeviceQueueCreateInfoEES4_EET0_T_S6_S5_, symObjAddr: 0x7A610, symBinAddr: 0x10007AF50, symSize: 0x80 }
  - { offsetInCU: 0x71955, offset: 0x71955, size: 0x8, addend: 0x0, symName: __ZNSt3__16__moveB8ue170006INS_17_ClassicAlgPolicyENS_16reverse_iteratorIP23VkDeviceQueueCreateInfoEES5_S5_EENS_4pairIT0_T2_EES7_T1_S8_, symObjAddr: 0x7A690, symBinAddr: 0x10007AFD0, symSize: 0x90 }
  - { offsetInCU: 0x719C1, offset: 0x719C1, size: 0x8, addend: 0x0, symName: __ZNSt3__123__dispatch_copy_or_moveB8ue170006INS_17_ClassicAlgPolicyENS_11__move_loopIS1_EENS_14__move_trivialENS_16reverse_iteratorIP23VkDeviceQueueCreateInfoEES8_S8_EENS_4pairIT2_T4_EESA_T3_SB_, symObjAddr: 0x7A720, symBinAddr: 0x10007B060, symSize: 0x90 }
  - { offsetInCU: 0x71A3F, offset: 0x71A3F, size: 0x8, addend: 0x0, symName: __ZNSt3__121__unwrap_and_dispatchB8ue170006INS_10__overloadINS_11__move_loopINS_17_ClassicAlgPolicyEEENS_14__move_trivialEEENS_16reverse_iteratorIP23VkDeviceQueueCreateInfoEESA_SA_Li0EEENS_4pairIT0_T2_EESC_T1_SD_, symObjAddr: 0x7A7B0, symBinAddr: 0x10007B0F0, symSize: 0x210 }
  - { offsetInCU: 0x71ACE, offset: 0x71ACE, size: 0x8, addend: 0x0, symName: __ZNSt3__114__unwrap_rangeB8ue170006INS_16reverse_iteratorIP23VkDeviceQueueCreateInfoEES4_EEDaT_T0_, symObjAddr: 0x7A9C0, symBinAddr: 0x10007B300, symSize: 0x60 }
  - { offsetInCU: 0x71BEE, offset: 0x71BEE, size: 0x8, addend: 0x0, symName: __ZNSt3__113__unwrap_iterB8ue170006INS_16reverse_iteratorIP23VkDeviceQueueCreateInfoEENS_18__unwrap_iter_implIS4_Lb0EEELi0EEEDTclsrT0_8__unwrapclsr3stdE7declvalIT_EEEES8_, symObjAddr: 0x7AAC0, symBinAddr: 0x10007B400, symSize: 0x40 }
  - { offsetInCU: 0x71C32, offset: 0x71C32, size: 0x8, addend: 0x0, symName: __ZNSt3__19make_pairB8ue170006INS_16reverse_iteratorIP23VkDeviceQueueCreateInfoEES4_EENS_4pairINS_18__unwrap_ref_decayIT_E4typeENS6_IT0_E4typeEEEOS7_OSA_, symObjAddr: 0x7AB00, symBinAddr: 0x10007B440, symSize: 0x30 }
  - { offsetInCU: 0x71C81, offset: 0x71C81, size: 0x8, addend: 0x0, symName: __ZNSt3__114__rewrap_rangeB8ue170006INS_16reverse_iteratorIP23VkDeviceQueueCreateInfoEES4_S4_EET0_S5_T1_, symObjAddr: 0x7AB30, symBinAddr: 0x10007B470, symSize: 0x60 }
  - { offsetInCU: 0x71CD6, offset: 0x71CD6, size: 0x8, addend: 0x0, symName: __ZNSt3__113__rewrap_iterB8ue170006INS_16reverse_iteratorIP23VkDeviceQueueCreateInfoEES4_NS_18__unwrap_iter_implIS4_Lb0EEEEET_S7_T0_, symObjAddr: 0x7AB90, symBinAddr: 0x10007B4D0, symSize: 0x70 }
  - { offsetInCU: 0x71D7B, offset: 0x71D7B, size: 0x8, addend: 0x0, symName: __ZNSt3__1neB8ue170006IP23VkDeviceQueueCreateInfoS2_EEbRKNS_16reverse_iteratorIT_EERKNS3_IT0_EE, symObjAddr: 0x7AD00, symBinAddr: 0x10007B640, symSize: 0x40 }
  - { offsetInCU: 0x71E33, offset: 0x71E33, size: 0x8, addend: 0x0, symName: __ZNSt3__110destroy_atB8ue170006I23VkDeviceQueueCreateInfoLi0EEEvPT_, symObjAddr: 0x7B070, symBinAddr: 0x10007B9B0, symSize: 0x20 }
  - { offsetInCU: 0x71E6A, offset: 0x71E6A, size: 0x8, addend: 0x0, symName: __ZNSt3__112__destroy_atB8ue170006I23VkDeviceQueueCreateInfoLi0EEEvPT_, symObjAddr: 0x7B090, symBinAddr: 0x10007B9D0, symSize: 0x10 }
  - { offsetInCU: 0x71EA1, offset: 0x71EA1, size: 0x8, addend: 0x0, symName: __ZNSt3__1eqB8ue170006IPK18VkSurfaceFormatKHREEbRKNS_11__wrap_iterIT_EES8_, symObjAddr: 0x7B360, symBinAddr: 0x10007BCA0, symSize: 0x40 }
  - { offsetInCU: 0x71EE4, offset: 0x71EE4, size: 0x8, addend: 0x0, symName: __ZNSt3__1eqB8ue170006IPK16VkPresentModeKHREEbRKNS_11__wrap_iterIT_EES8_, symObjAddr: 0x7B440, symBinAddr: 0x10007BD80, symSize: 0x40 }
  - { offsetInCU: 0x71F27, offset: 0x71F27, size: 0x8, addend: 0x0, symName: __ZNSt3__15clampB8ue170006IjNS_6__lessIvvEEEERKT_S5_S5_S5_T0_, symObjAddr: 0x7B4B0, symBinAddr: 0x10007BDF0, symSize: 0x90 }
  - { offsetInCU: 0x71F8F, offset: 0x71F8F, size: 0x8, addend: 0x0, symName: __ZNSt3__112__to_addressB8ue170006IP9VkImage_TEEPT_S4_, symObjAddr: 0x7BB60, symBinAddr: 0x10007C4A0, symSize: 0x10 }
  - { offsetInCU: 0x71FEB, offset: 0x71FEB, size: 0x8, addend: 0x0, symName: __ZNSt3__112construct_atB8ue170006IP9VkImage_TJEPS2_EEPT_S5_DpOT0_, symObjAddr: 0x7BBD0, symBinAddr: 0x10007C510, symSize: 0x20 }
  - { offsetInCU: 0x72049, offset: 0x72049, size: 0x8, addend: 0x0, symName: __ZNSt3__119__allocate_at_leastB8ue170006INS_9allocatorIP9VkImage_TEEEENS_19__allocation_resultINS_16allocator_traitsIT_E7pointerEEERS7_m, symObjAddr: 0x7BEB0, symBinAddr: 0x10007C7F0, symSize: 0x40 }
  - { offsetInCU: 0x7208C, offset: 0x7208C, size: 0x8, addend: 0x0, symName: __ZNSt3__142__uninitialized_allocator_move_if_noexceptB8ue170006INS_9allocatorIP9VkImage_TEENS_16reverse_iteratorIPS3_EES7_S3_vEET1_RT_T0_SB_S8_, symObjAddr: 0x7C1C0, symBinAddr: 0x10007CB00, symSize: 0x70 }
  - { offsetInCU: 0x72109, offset: 0x72109, size: 0x8, addend: 0x0, symName: __ZNSt3__14swapB8ue170006IPP9VkImage_TEENS_9enable_ifIXaasr21is_move_constructibleIT_EE5valuesr18is_move_assignableIS5_EE5valueEvE4typeERS5_S8_, symObjAddr: 0x7C280, symBinAddr: 0x10007CBC0, symSize: 0x40 }
  - { offsetInCU: 0x7215A, offset: 0x7215A, size: 0x8, addend: 0x0, symName: __ZNSt3__14moveB8ue170006INS_16reverse_iteratorIPP9VkImage_TEES5_EET0_T_S7_S6_, symObjAddr: 0x7C3B0, symBinAddr: 0x10007CCF0, symSize: 0x80 }
  - { offsetInCU: 0x721B4, offset: 0x721B4, size: 0x8, addend: 0x0, symName: __ZNSt3__16__moveB8ue170006INS_17_ClassicAlgPolicyENS_16reverse_iteratorIPP9VkImage_TEES6_S6_EENS_4pairIT0_T2_EES8_T1_S9_, symObjAddr: 0x7C430, symBinAddr: 0x10007CD70, symSize: 0x90 }
  - { offsetInCU: 0x72220, offset: 0x72220, size: 0x8, addend: 0x0, symName: __ZNSt3__123__dispatch_copy_or_moveB8ue170006INS_17_ClassicAlgPolicyENS_11__move_loopIS1_EENS_14__move_trivialENS_16reverse_iteratorIPP9VkImage_TEES9_S9_EENS_4pairIT2_T4_EESB_T3_SC_, symObjAddr: 0x7C4C0, symBinAddr: 0x10007CE00, symSize: 0x90 }
  - { offsetInCU: 0x7229E, offset: 0x7229E, size: 0x8, addend: 0x0, symName: __ZNSt3__121__unwrap_and_dispatchB8ue170006INS_10__overloadINS_11__move_loopINS_17_ClassicAlgPolicyEEENS_14__move_trivialEEENS_16reverse_iteratorIPP9VkImage_TEESB_SB_Li0EEENS_4pairIT0_T2_EESD_T1_SE_, symObjAddr: 0x7C550, symBinAddr: 0x10007CE90, symSize: 0x210 }
  - { offsetInCU: 0x7232D, offset: 0x7232D, size: 0x8, addend: 0x0, symName: __ZNSt3__114__unwrap_rangeB8ue170006INS_16reverse_iteratorIPP9VkImage_TEES5_EEDaT_T0_, symObjAddr: 0x7C760, symBinAddr: 0x10007D0A0, symSize: 0x60 }
  - { offsetInCU: 0x7244D, offset: 0x7244D, size: 0x8, addend: 0x0, symName: __ZNSt3__113__unwrap_iterB8ue170006INS_16reverse_iteratorIPP9VkImage_TEENS_18__unwrap_iter_implIS5_Lb0EEELi0EEEDTclsrT0_8__unwrapclsr3stdE7declvalIT_EEEES9_, symObjAddr: 0x7C860, symBinAddr: 0x10007D1A0, symSize: 0x40 }
  - { offsetInCU: 0x72491, offset: 0x72491, size: 0x8, addend: 0x0, symName: __ZNSt3__19make_pairB8ue170006INS_16reverse_iteratorIPP9VkImage_TEES5_EENS_4pairINS_18__unwrap_ref_decayIT_E4typeENS7_IT0_E4typeEEEOS8_OSB_, symObjAddr: 0x7C8A0, symBinAddr: 0x10007D1E0, symSize: 0x30 }
  - { offsetInCU: 0x724E0, offset: 0x724E0, size: 0x8, addend: 0x0, symName: __ZNSt3__114__rewrap_rangeB8ue170006INS_16reverse_iteratorIPP9VkImage_TEES5_S5_EET0_S6_T1_, symObjAddr: 0x7C8D0, symBinAddr: 0x10007D210, symSize: 0x60 }
  - { offsetInCU: 0x72535, offset: 0x72535, size: 0x8, addend: 0x0, symName: __ZNSt3__113__rewrap_iterB8ue170006INS_16reverse_iteratorIPP9VkImage_TEES5_NS_18__unwrap_iter_implIS5_Lb0EEEEET_S8_T0_, symObjAddr: 0x7C930, symBinAddr: 0x10007D270, symSize: 0x70 }
  - { offsetInCU: 0x725DA, offset: 0x725DA, size: 0x8, addend: 0x0, symName: __ZNSt3__1neB8ue170006IPP9VkImage_TS3_EEbRKNS_16reverse_iteratorIT_EERKNS4_IT0_EE, symObjAddr: 0x7CAA0, symBinAddr: 0x10007D3E0, symSize: 0x40 }
  - { offsetInCU: 0x72692, offset: 0x72692, size: 0x8, addend: 0x0, symName: __ZNSt3__110destroy_atB8ue170006IP9VkImage_TLi0EEEvPT_, symObjAddr: 0x7CE00, symBinAddr: 0x10007D740, symSize: 0x20 }
  - { offsetInCU: 0x726C9, offset: 0x726C9, size: 0x8, addend: 0x0, symName: __ZNSt3__112__destroy_atB8ue170006IP9VkImage_TLi0EEEvPT_, symObjAddr: 0x7CE20, symBinAddr: 0x10007D760, symSize: 0x10 }
  - { offsetInCU: 0x72700, offset: 0x72700, size: 0x8, addend: 0x0, symName: __ZNSt3__112__to_addressB8ue170006IP13VkImageView_TEEPT_S4_, symObjAddr: 0x7D570, symBinAddr: 0x10007DEB0, symSize: 0x10 }
  - { offsetInCU: 0x7275C, offset: 0x7275C, size: 0x8, addend: 0x0, symName: __ZNSt3__112construct_atB8ue170006IP13VkImageView_TJEPS2_EEPT_S5_DpOT0_, symObjAddr: 0x7D5E0, symBinAddr: 0x10007DF20, symSize: 0x20 }
  - { offsetInCU: 0x727BA, offset: 0x727BA, size: 0x8, addend: 0x0, symName: __ZNSt3__119__allocate_at_leastB8ue170006INS_9allocatorIP13VkImageView_TEEEENS_19__allocation_resultINS_16allocator_traitsIT_E7pointerEEERS7_m, symObjAddr: 0x7D8C0, symBinAddr: 0x10007E200, symSize: 0x40 }
  - { offsetInCU: 0x727FD, offset: 0x727FD, size: 0x8, addend: 0x0, symName: __ZNSt3__142__uninitialized_allocator_move_if_noexceptB8ue170006INS_9allocatorIP13VkImageView_TEENS_16reverse_iteratorIPS3_EES7_S3_vEET1_RT_T0_SB_S8_, symObjAddr: 0x7DBD0, symBinAddr: 0x10007E510, symSize: 0x70 }
  - { offsetInCU: 0x7287A, offset: 0x7287A, size: 0x8, addend: 0x0, symName: __ZNSt3__14swapB8ue170006IPP13VkImageView_TEENS_9enable_ifIXaasr21is_move_constructibleIT_EE5valuesr18is_move_assignableIS5_EE5valueEvE4typeERS5_S8_, symObjAddr: 0x7DC90, symBinAddr: 0x10007E5D0, symSize: 0x40 }
  - { offsetInCU: 0x728CB, offset: 0x728CB, size: 0x8, addend: 0x0, symName: __ZNSt3__14moveB8ue170006INS_16reverse_iteratorIPP13VkImageView_TEES5_EET0_T_S7_S6_, symObjAddr: 0x7DDC0, symBinAddr: 0x10007E700, symSize: 0x80 }
  - { offsetInCU: 0x72925, offset: 0x72925, size: 0x8, addend: 0x0, symName: __ZNSt3__16__moveB8ue170006INS_17_ClassicAlgPolicyENS_16reverse_iteratorIPP13VkImageView_TEES6_S6_EENS_4pairIT0_T2_EES8_T1_S9_, symObjAddr: 0x7DE40, symBinAddr: 0x10007E780, symSize: 0x90 }
  - { offsetInCU: 0x72991, offset: 0x72991, size: 0x8, addend: 0x0, symName: __ZNSt3__123__dispatch_copy_or_moveB8ue170006INS_17_ClassicAlgPolicyENS_11__move_loopIS1_EENS_14__move_trivialENS_16reverse_iteratorIPP13VkImageView_TEES9_S9_EENS_4pairIT2_T4_EESB_T3_SC_, symObjAddr: 0x7DED0, symBinAddr: 0x10007E810, symSize: 0x90 }
  - { offsetInCU: 0x72A0F, offset: 0x72A0F, size: 0x8, addend: 0x0, symName: __ZNSt3__121__unwrap_and_dispatchB8ue170006INS_10__overloadINS_11__move_loopINS_17_ClassicAlgPolicyEEENS_14__move_trivialEEENS_16reverse_iteratorIPP13VkImageView_TEESB_SB_Li0EEENS_4pairIT0_T2_EESD_T1_SE_, symObjAddr: 0x7DF60, symBinAddr: 0x10007E8A0, symSize: 0x210 }
  - { offsetInCU: 0x72A9E, offset: 0x72A9E, size: 0x8, addend: 0x0, symName: __ZNSt3__114__unwrap_rangeB8ue170006INS_16reverse_iteratorIPP13VkImageView_TEES5_EEDaT_T0_, symObjAddr: 0x7E170, symBinAddr: 0x10007EAB0, symSize: 0x60 }
  - { offsetInCU: 0x72BBE, offset: 0x72BBE, size: 0x8, addend: 0x0, symName: __ZNSt3__113__unwrap_iterB8ue170006INS_16reverse_iteratorIPP13VkImageView_TEENS_18__unwrap_iter_implIS5_Lb0EEELi0EEEDTclsrT0_8__unwrapclsr3stdE7declvalIT_EEEES9_, symObjAddr: 0x7E270, symBinAddr: 0x10007EBB0, symSize: 0x40 }
  - { offsetInCU: 0x72C02, offset: 0x72C02, size: 0x8, addend: 0x0, symName: __ZNSt3__19make_pairB8ue170006INS_16reverse_iteratorIPP13VkImageView_TEES5_EENS_4pairINS_18__unwrap_ref_decayIT_E4typeENS7_IT0_E4typeEEEOS8_OSB_, symObjAddr: 0x7E2B0, symBinAddr: 0x10007EBF0, symSize: 0x30 }
  - { offsetInCU: 0x72C51, offset: 0x72C51, size: 0x8, addend: 0x0, symName: __ZNSt3__114__rewrap_rangeB8ue170006INS_16reverse_iteratorIPP13VkImageView_TEES5_S5_EET0_S6_T1_, symObjAddr: 0x7E2E0, symBinAddr: 0x10007EC20, symSize: 0x60 }
  - { offsetInCU: 0x72CA6, offset: 0x72CA6, size: 0x8, addend: 0x0, symName: __ZNSt3__113__rewrap_iterB8ue170006INS_16reverse_iteratorIPP13VkImageView_TEES5_NS_18__unwrap_iter_implIS5_Lb0EEEEET_S8_T0_, symObjAddr: 0x7E340, symBinAddr: 0x10007EC80, symSize: 0x70 }
  - { offsetInCU: 0x72D4B, offset: 0x72D4B, size: 0x8, addend: 0x0, symName: __ZNSt3__1neB8ue170006IPP13VkImageView_TS3_EEbRKNS_16reverse_iteratorIT_EERKNS4_IT0_EE, symObjAddr: 0x7E4B0, symBinAddr: 0x10007EDF0, symSize: 0x40 }
  - { offsetInCU: 0x72E03, offset: 0x72E03, size: 0x8, addend: 0x0, symName: __ZNSt3__110destroy_atB8ue170006IP13VkImageView_TLi0EEEvPT_, symObjAddr: 0x7E810, symBinAddr: 0x10007F150, symSize: 0x20 }
  - { offsetInCU: 0x72E3A, offset: 0x72E3A, size: 0x8, addend: 0x0, symName: __ZNSt3__112__destroy_atB8ue170006IP13VkImageView_TLi0EEEvPT_, symObjAddr: 0x7E830, symBinAddr: 0x10007F170, symSize: 0x10 }
  - { offsetInCU: 0x72E71, offset: 0x72E71, size: 0x8, addend: 0x0, symName: __ZNSt3__112__to_addressB8ue170006IcEEPT_S2_, symObjAddr: 0x7E9E0, symBinAddr: 0x10007F320, symSize: 0x10 }
  - { offsetInCU: 0x72EA6, offset: 0x72EA6, size: 0x8, addend: 0x0, symName: __ZNSt3__122__make_exception_guardB8ue170006INS_6vectorIcNS_9allocatorIcEEE16__destroy_vectorEEENS_28__exception_guard_exceptionsIT_EES7_, symObjAddr: 0x7EEE0, symBinAddr: 0x10007F820, symSize: 0x40 }
  - { offsetInCU: 0x72F02, offset: 0x72F02, size: 0x8, addend: 0x0, symName: __ZNSt3__112construct_atB8ue170006IcJEPcEEPT_S3_DpOT0_, symObjAddr: 0x7F500, symBinAddr: 0x10007FE40, symSize: 0x20 }
  - { offsetInCU: 0x72F60, offset: 0x72F60, size: 0x8, addend: 0x0, symName: __ZNSt3__110destroy_atB8ue170006IcLi0EEEvPT_, symObjAddr: 0x7F760, symBinAddr: 0x1000800A0, symSize: 0x20 }
  - { offsetInCU: 0x72F97, offset: 0x72F97, size: 0x8, addend: 0x0, symName: __ZNSt3__112__destroy_atB8ue170006IcLi0EEEvPT_, symObjAddr: 0x7F780, symBinAddr: 0x1000800C0, symSize: 0x10 }
  - { offsetInCU: 0x72FCE, offset: 0x72FCE, size: 0x8, addend: 0x0, symName: __ZNSt3__122__make_exception_guardB8ue170006INS_6vectorI14VkDynamicStateNS_9allocatorIS2_EEE16__destroy_vectorEEENS_28__exception_guard_exceptionsIT_EES8_, symObjAddr: 0x7F930, symBinAddr: 0x100080270, symSize: 0x40 }
  - { offsetInCU: 0x73003, offset: 0x73003, size: 0x8, addend: 0x0, symName: __ZNSt3__119__allocate_at_leastB8ue170006INS_9allocatorI14VkDynamicStateEEEENS_19__allocation_resultINS_16allocator_traitsIT_E7pointerEEERS6_m, symObjAddr: 0x7FD10, symBinAddr: 0x100080650, symSize: 0x40 }
  - { offsetInCU: 0x73046, offset: 0x73046, size: 0x8, addend: 0x0, symName: __ZNSt3__112__to_addressB8ue170006I14VkDynamicStateEEPT_S3_, symObjAddr: 0x7FFD0, symBinAddr: 0x100080910, symSize: 0x10 }
  - { offsetInCU: 0x7307B, offset: 0x7307B, size: 0x8, addend: 0x0, symName: __ZNSt3__130__uninitialized_allocator_copyB8ue170006INS_9allocatorI14VkDynamicStateEEPKS2_S5_PS2_EET2_RT_T0_T1_S7_, symObjAddr: 0x80060, symBinAddr: 0x1000809A0, symSize: 0x80 }
  - { offsetInCU: 0x7311A, offset: 0x7311A, size: 0x8, addend: 0x0, symName: __ZNSt3__114__unwrap_rangeB8ue170006IPK14VkDynamicStateS3_EEDaT_T0_, symObjAddr: 0x80140, symBinAddr: 0x100080A80, symSize: 0x40 }
  - { offsetInCU: 0x73166, offset: 0x73166, size: 0x8, addend: 0x0, symName: __ZNSt3__135__uninitialized_allocator_copy_implB8ue170006INS_9allocatorI14VkDynamicStateEEKS2_S2_S2_LPv0EEEPT2_RT_PT0_SB_S7_, symObjAddr: 0x80180, symBinAddr: 0x100080AC0, symSize: 0x30 }
  - { offsetInCU: 0x731E8, offset: 0x731E8, size: 0x8, addend: 0x0, symName: __ZNSt3__113__unwrap_iterB8ue170006IP14VkDynamicStateNS_18__unwrap_iter_implIS2_Lb1EEELi0EEEDTclsrT0_8__unwrapclsr3stdE7declvalIT_EEEES6_, symObjAddr: 0x801B0, symBinAddr: 0x100080AF0, symSize: 0x20 }
  - { offsetInCU: 0x7322C, offset: 0x7322C, size: 0x8, addend: 0x0, symName: __ZNSt3__113__rewrap_iterB8ue170006IP14VkDynamicStateS2_NS_18__unwrap_iter_implIS2_Lb1EEEEET_S5_T0_, symObjAddr: 0x801D0, symBinAddr: 0x100080B10, symSize: 0x40 }
  - { offsetInCU: 0x7339D, offset: 0x7339D, size: 0x8, addend: 0x0, symName: __ZNSt3__113__unwrap_iterB8ue170006IPK14VkDynamicStateNS_18__unwrap_iter_implIS3_Lb1EEELi0EEEDTclsrT0_8__unwrapclsr3stdE7declvalIT_EEEES7_, symObjAddr: 0x80260, symBinAddr: 0x100080BA0, symSize: 0x20 }
  - { offsetInCU: 0x73434, offset: 0x73434, size: 0x8, addend: 0x0, symName: __ZNSt3__112__to_addressB8ue170006IK14VkDynamicStateEEPT_S4_, symObjAddr: 0x802D0, symBinAddr: 0x100080C10, symSize: 0x10 }
  - { offsetInCU: 0x73469, offset: 0x73469, size: 0x8, addend: 0x0, symName: __ZNSt3__14copyB8ue170006IPK14VkDynamicStatePS1_EET0_T_S6_S5_, symObjAddr: 0x80310, symBinAddr: 0x100080C50, symSize: 0x40 }
  - { offsetInCU: 0x734C3, offset: 0x734C3, size: 0x8, addend: 0x0, symName: __ZNSt3__16__copyB8ue170006INS_17_ClassicAlgPolicyEPK14VkDynamicStateS4_PS2_EENS_4pairIT0_T2_EES7_T1_S8_, symObjAddr: 0x80350, symBinAddr: 0x100080C90, symSize: 0x40 }
  - { offsetInCU: 0x7352F, offset: 0x7352F, size: 0x8, addend: 0x0, symName: __ZNSt3__123__dispatch_copy_or_moveB8ue170006INS_17_ClassicAlgPolicyENS_11__copy_loopIS1_EENS_14__copy_trivialEPK14VkDynamicStateS7_PS5_EENS_4pairIT2_T4_EESA_T3_SB_, symObjAddr: 0x80390, symBinAddr: 0x100080CD0, symSize: 0x40 }
  - { offsetInCU: 0x735AD, offset: 0x735AD, size: 0x8, addend: 0x0, symName: __ZNSt3__121__unwrap_and_dispatchB8ue170006INS_10__overloadINS_11__copy_loopINS_17_ClassicAlgPolicyEEENS_14__copy_trivialEEEPK14VkDynamicStateS9_PS7_Li0EEENS_4pairIT0_T2_EESC_T1_SD_, symObjAddr: 0x803D0, symBinAddr: 0x100080D10, symSize: 0xB0 }
  - { offsetInCU: 0x7373F, offset: 0x7373F, size: 0x8, addend: 0x0, symName: __ZNSt3__19make_pairB8ue170006IPK14VkDynamicStatePS1_EENS_4pairINS_18__unwrap_ref_decayIT_E4typeENS6_IT0_E4typeEEEOS7_OSA_, symObjAddr: 0x804C0, symBinAddr: 0x100080E00, symSize: 0x30 }
  - { offsetInCU: 0x7378E, offset: 0x7378E, size: 0x8, addend: 0x0, symName: __ZNSt3__114__rewrap_rangeB8ue170006IPK14VkDynamicStateS3_S3_EET0_S4_T1_, symObjAddr: 0x804F0, symBinAddr: 0x100080E30, symSize: 0x30 }
  - { offsetInCU: 0x737E3, offset: 0x737E3, size: 0x8, addend: 0x0, symName: __ZNSt3__119__copy_trivial_implB8ue170006IK14VkDynamicStateS1_EENS_4pairIPT_PT0_EES5_S5_S7_, symObjAddr: 0x80520, symBinAddr: 0x100080E60, symSize: 0x70 }
  - { offsetInCU: 0x7384B, offset: 0x7384B, size: 0x8, addend: 0x0, symName: __ZNSt3__119__constexpr_memmoveB8ue170006I14VkDynamicStateKS1_Li0EEEPT_S4_PT0_NS_15__element_countE, symObjAddr: 0x80590, symBinAddr: 0x100080ED0, symSize: 0x50 }
  - { offsetInCU: 0x738B9, offset: 0x738B9, size: 0x8, addend: 0x0, symName: __ZNSt3__19make_pairB8ue170006IRPK14VkDynamicStatePS1_EENS_4pairINS_18__unwrap_ref_decayIT_E4typeENS7_IT0_E4typeEEEOS8_OSB_, symObjAddr: 0x805E0, symBinAddr: 0x100080F20, symSize: 0x30 }
  - { offsetInCU: 0x73908, offset: 0x73908, size: 0x8, addend: 0x0, symName: __ZNSt3__113__rewrap_iterB8ue170006IPK14VkDynamicStateS3_NS_18__unwrap_iter_implIS3_Lb1EEEEET_S6_T0_, symObjAddr: 0x80700, symBinAddr: 0x100081040, symSize: 0x40 }
  - { offsetInCU: 0x739B0, offset: 0x739B0, size: 0x8, addend: 0x0, symName: __ZNSt3__110destroy_atB8ue170006I14VkDynamicStateLi0EEEvPT_, symObjAddr: 0x80A80, symBinAddr: 0x1000813C0, symSize: 0x20 }
  - { offsetInCU: 0x739E7, offset: 0x739E7, size: 0x8, addend: 0x0, symName: __ZNSt3__112__destroy_atB8ue170006I14VkDynamicStateLi0EEEvPT_, symObjAddr: 0x80AA0, symBinAddr: 0x1000813E0, symSize: 0x10 }
  - { offsetInCU: 0x73A1E, offset: 0x73A1E, size: 0x8, addend: 0x0, symName: __ZNSt3__112__to_addressB8ue170006IP15VkFramebuffer_TEEPT_S4_, symObjAddr: 0x81110, symBinAddr: 0x100081A50, symSize: 0x10 }
  - { offsetInCU: 0x73A7A, offset: 0x73A7A, size: 0x8, addend: 0x0, symName: __ZNSt3__112construct_atB8ue170006IP15VkFramebuffer_TJEPS2_EEPT_S5_DpOT0_, symObjAddr: 0x81180, symBinAddr: 0x100081AC0, symSize: 0x20 }
  - { offsetInCU: 0x73AD8, offset: 0x73AD8, size: 0x8, addend: 0x0, symName: __ZNSt3__119__allocate_at_leastB8ue170006INS_9allocatorIP15VkFramebuffer_TEEEENS_19__allocation_resultINS_16allocator_traitsIT_E7pointerEEERS7_m, symObjAddr: 0x81460, symBinAddr: 0x100081DA0, symSize: 0x40 }
  - { offsetInCU: 0x73B1B, offset: 0x73B1B, size: 0x8, addend: 0x0, symName: __ZNSt3__142__uninitialized_allocator_move_if_noexceptB8ue170006INS_9allocatorIP15VkFramebuffer_TEENS_16reverse_iteratorIPS3_EES7_S3_vEET1_RT_T0_SB_S8_, symObjAddr: 0x81770, symBinAddr: 0x1000820B0, symSize: 0x70 }
  - { offsetInCU: 0x73B98, offset: 0x73B98, size: 0x8, addend: 0x0, symName: __ZNSt3__14swapB8ue170006IPP15VkFramebuffer_TEENS_9enable_ifIXaasr21is_move_constructibleIT_EE5valuesr18is_move_assignableIS5_EE5valueEvE4typeERS5_S8_, symObjAddr: 0x81830, symBinAddr: 0x100082170, symSize: 0x40 }
  - { offsetInCU: 0x73BE9, offset: 0x73BE9, size: 0x8, addend: 0x0, symName: __ZNSt3__14moveB8ue170006INS_16reverse_iteratorIPP15VkFramebuffer_TEES5_EET0_T_S7_S6_, symObjAddr: 0x81960, symBinAddr: 0x1000822A0, symSize: 0x80 }
  - { offsetInCU: 0x73C43, offset: 0x73C43, size: 0x8, addend: 0x0, symName: __ZNSt3__16__moveB8ue170006INS_17_ClassicAlgPolicyENS_16reverse_iteratorIPP15VkFramebuffer_TEES6_S6_EENS_4pairIT0_T2_EES8_T1_S9_, symObjAddr: 0x819E0, symBinAddr: 0x100082320, symSize: 0x90 }
  - { offsetInCU: 0x73CAF, offset: 0x73CAF, size: 0x8, addend: 0x0, symName: __ZNSt3__123__dispatch_copy_or_moveB8ue170006INS_17_ClassicAlgPolicyENS_11__move_loopIS1_EENS_14__move_trivialENS_16reverse_iteratorIPP15VkFramebuffer_TEES9_S9_EENS_4pairIT2_T4_EESB_T3_SC_, symObjAddr: 0x81A70, symBinAddr: 0x1000823B0, symSize: 0x90 }
  - { offsetInCU: 0x73D2D, offset: 0x73D2D, size: 0x8, addend: 0x0, symName: __ZNSt3__121__unwrap_and_dispatchB8ue170006INS_10__overloadINS_11__move_loopINS_17_ClassicAlgPolicyEEENS_14__move_trivialEEENS_16reverse_iteratorIPP15VkFramebuffer_TEESB_SB_Li0EEENS_4pairIT0_T2_EESD_T1_SE_, symObjAddr: 0x81B00, symBinAddr: 0x100082440, symSize: 0x210 }
  - { offsetInCU: 0x73DBC, offset: 0x73DBC, size: 0x8, addend: 0x0, symName: __ZNSt3__114__unwrap_rangeB8ue170006INS_16reverse_iteratorIPP15VkFramebuffer_TEES5_EEDaT_T0_, symObjAddr: 0x81D10, symBinAddr: 0x100082650, symSize: 0x60 }
  - { offsetInCU: 0x73EDC, offset: 0x73EDC, size: 0x8, addend: 0x0, symName: __ZNSt3__113__unwrap_iterB8ue170006INS_16reverse_iteratorIPP15VkFramebuffer_TEENS_18__unwrap_iter_implIS5_Lb0EEELi0EEEDTclsrT0_8__unwrapclsr3stdE7declvalIT_EEEES9_, symObjAddr: 0x81E10, symBinAddr: 0x100082750, symSize: 0x40 }
  - { offsetInCU: 0x73F20, offset: 0x73F20, size: 0x8, addend: 0x0, symName: __ZNSt3__19make_pairB8ue170006INS_16reverse_iteratorIPP15VkFramebuffer_TEES5_EENS_4pairINS_18__unwrap_ref_decayIT_E4typeENS7_IT0_E4typeEEEOS8_OSB_, symObjAddr: 0x81E50, symBinAddr: 0x100082790, symSize: 0x30 }
  - { offsetInCU: 0x73F6F, offset: 0x73F6F, size: 0x8, addend: 0x0, symName: __ZNSt3__114__rewrap_rangeB8ue170006INS_16reverse_iteratorIPP15VkFramebuffer_TEES5_S5_EET0_S6_T1_, symObjAddr: 0x81E80, symBinAddr: 0x1000827C0, symSize: 0x60 }
  - { offsetInCU: 0x73FC4, offset: 0x73FC4, size: 0x8, addend: 0x0, symName: __ZNSt3__113__rewrap_iterB8ue170006INS_16reverse_iteratorIPP15VkFramebuffer_TEES5_NS_18__unwrap_iter_implIS5_Lb0EEEEET_S8_T0_, symObjAddr: 0x81EE0, symBinAddr: 0x100082820, symSize: 0x70 }
  - { offsetInCU: 0x74069, offset: 0x74069, size: 0x8, addend: 0x0, symName: __ZNSt3__1neB8ue170006IPP15VkFramebuffer_TS3_EEbRKNS_16reverse_iteratorIT_EERKNS4_IT0_EE, symObjAddr: 0x82050, symBinAddr: 0x100082990, symSize: 0x40 }
  - { offsetInCU: 0x74121, offset: 0x74121, size: 0x8, addend: 0x0, symName: __ZNSt3__110destroy_atB8ue170006IP15VkFramebuffer_TLi0EEEvPT_, symObjAddr: 0x823B0, symBinAddr: 0x100082CF0, symSize: 0x20 }
  - { offsetInCU: 0x74158, offset: 0x74158, size: 0x8, addend: 0x0, symName: __ZNSt3__112__destroy_atB8ue170006IP15VkFramebuffer_TLi0EEEvPT_, symObjAddr: 0x823D0, symBinAddr: 0x100082D10, symSize: 0x10 }
  - { offsetInCU: 0x7418F, offset: 0x7418F, size: 0x8, addend: 0x0, symName: __ZNSt3__112__to_addressB8ue170006IP17VkCommandBuffer_TEEPT_S4_, symObjAddr: 0x82B40, symBinAddr: 0x100083480, symSize: 0x10 }
  - { offsetInCU: 0x741EB, offset: 0x741EB, size: 0x8, addend: 0x0, symName: __ZNSt3__112construct_atB8ue170006IP17VkCommandBuffer_TJEPS2_EEPT_S5_DpOT0_, symObjAddr: 0x82BB0, symBinAddr: 0x1000834F0, symSize: 0x20 }
  - { offsetInCU: 0x74249, offset: 0x74249, size: 0x8, addend: 0x0, symName: __ZNSt3__119__allocate_at_leastB8ue170006INS_9allocatorIP17VkCommandBuffer_TEEEENS_19__allocation_resultINS_16allocator_traitsIT_E7pointerEEERS7_m, symObjAddr: 0x82E90, symBinAddr: 0x1000837D0, symSize: 0x40 }
  - { offsetInCU: 0x7428C, offset: 0x7428C, size: 0x8, addend: 0x0, symName: __ZNSt3__142__uninitialized_allocator_move_if_noexceptB8ue170006INS_9allocatorIP17VkCommandBuffer_TEENS_16reverse_iteratorIPS3_EES7_S3_vEET1_RT_T0_SB_S8_, symObjAddr: 0x831A0, symBinAddr: 0x100083AE0, symSize: 0x70 }
  - { offsetInCU: 0x74309, offset: 0x74309, size: 0x8, addend: 0x0, symName: __ZNSt3__14swapB8ue170006IPP17VkCommandBuffer_TEENS_9enable_ifIXaasr21is_move_constructibleIT_EE5valuesr18is_move_assignableIS5_EE5valueEvE4typeERS5_S8_, symObjAddr: 0x83260, symBinAddr: 0x100083BA0, symSize: 0x40 }
  - { offsetInCU: 0x7435A, offset: 0x7435A, size: 0x8, addend: 0x0, symName: __ZNSt3__14moveB8ue170006INS_16reverse_iteratorIPP17VkCommandBuffer_TEES5_EET0_T_S7_S6_, symObjAddr: 0x83390, symBinAddr: 0x100083CD0, symSize: 0x80 }
  - { offsetInCU: 0x743B4, offset: 0x743B4, size: 0x8, addend: 0x0, symName: __ZNSt3__16__moveB8ue170006INS_17_ClassicAlgPolicyENS_16reverse_iteratorIPP17VkCommandBuffer_TEES6_S6_EENS_4pairIT0_T2_EES8_T1_S9_, symObjAddr: 0x83410, symBinAddr: 0x100083D50, symSize: 0x90 }
  - { offsetInCU: 0x74420, offset: 0x74420, size: 0x8, addend: 0x0, symName: __ZNSt3__123__dispatch_copy_or_moveB8ue170006INS_17_ClassicAlgPolicyENS_11__move_loopIS1_EENS_14__move_trivialENS_16reverse_iteratorIPP17VkCommandBuffer_TEES9_S9_EENS_4pairIT2_T4_EESB_T3_SC_, symObjAddr: 0x834A0, symBinAddr: 0x100083DE0, symSize: 0x90 }
  - { offsetInCU: 0x7449E, offset: 0x7449E, size: 0x8, addend: 0x0, symName: __ZNSt3__121__unwrap_and_dispatchB8ue170006INS_10__overloadINS_11__move_loopINS_17_ClassicAlgPolicyEEENS_14__move_trivialEEENS_16reverse_iteratorIPP17VkCommandBuffer_TEESB_SB_Li0EEENS_4pairIT0_T2_EESD_T1_SE_, symObjAddr: 0x83530, symBinAddr: 0x100083E70, symSize: 0x210 }
  - { offsetInCU: 0x7452D, offset: 0x7452D, size: 0x8, addend: 0x0, symName: __ZNSt3__114__unwrap_rangeB8ue170006INS_16reverse_iteratorIPP17VkCommandBuffer_TEES5_EEDaT_T0_, symObjAddr: 0x83740, symBinAddr: 0x100084080, symSize: 0x60 }
  - { offsetInCU: 0x7464D, offset: 0x7464D, size: 0x8, addend: 0x0, symName: __ZNSt3__113__unwrap_iterB8ue170006INS_16reverse_iteratorIPP17VkCommandBuffer_TEENS_18__unwrap_iter_implIS5_Lb0EEELi0EEEDTclsrT0_8__unwrapclsr3stdE7declvalIT_EEEES9_, symObjAddr: 0x83840, symBinAddr: 0x100084180, symSize: 0x40 }
  - { offsetInCU: 0x74691, offset: 0x74691, size: 0x8, addend: 0x0, symName: __ZNSt3__19make_pairB8ue170006INS_16reverse_iteratorIPP17VkCommandBuffer_TEES5_EENS_4pairINS_18__unwrap_ref_decayIT_E4typeENS7_IT0_E4typeEEEOS8_OSB_, symObjAddr: 0x83880, symBinAddr: 0x1000841C0, symSize: 0x30 }
  - { offsetInCU: 0x746E0, offset: 0x746E0, size: 0x8, addend: 0x0, symName: __ZNSt3__114__rewrap_rangeB8ue170006INS_16reverse_iteratorIPP17VkCommandBuffer_TEES5_S5_EET0_S6_T1_, symObjAddr: 0x838B0, symBinAddr: 0x1000841F0, symSize: 0x60 }
  - { offsetInCU: 0x74735, offset: 0x74735, size: 0x8, addend: 0x0, symName: __ZNSt3__113__rewrap_iterB8ue170006INS_16reverse_iteratorIPP17VkCommandBuffer_TEES5_NS_18__unwrap_iter_implIS5_Lb0EEEEET_S8_T0_, symObjAddr: 0x83910, symBinAddr: 0x100084250, symSize: 0x70 }
  - { offsetInCU: 0x747DA, offset: 0x747DA, size: 0x8, addend: 0x0, symName: __ZNSt3__1neB8ue170006IPP17VkCommandBuffer_TS3_EEbRKNS_16reverse_iteratorIT_EERKNS4_IT0_EE, symObjAddr: 0x83A80, symBinAddr: 0x1000843C0, symSize: 0x40 }
  - { offsetInCU: 0x74892, offset: 0x74892, size: 0x8, addend: 0x0, symName: __ZNSt3__110destroy_atB8ue170006IP17VkCommandBuffer_TLi0EEEvPT_, symObjAddr: 0x83DE0, symBinAddr: 0x100084720, symSize: 0x20 }
  - { offsetInCU: 0x748C9, offset: 0x748C9, size: 0x8, addend: 0x0, symName: __ZNSt3__112__destroy_atB8ue170006IP17VkCommandBuffer_TLi0EEEvPT_, symObjAddr: 0x83E00, symBinAddr: 0x100084740, symSize: 0x10 }
  - { offsetInCU: 0x74900, offset: 0x74900, size: 0x8, addend: 0x0, symName: __ZNSt3__112__to_addressB8ue170006IP13VkSemaphore_TEEPT_S4_, symObjAddr: 0x84570, symBinAddr: 0x100084EB0, symSize: 0x10 }
  - { offsetInCU: 0x7495C, offset: 0x7495C, size: 0x8, addend: 0x0, symName: __ZNSt3__112construct_atB8ue170006IP13VkSemaphore_TJEPS2_EEPT_S5_DpOT0_, symObjAddr: 0x845E0, symBinAddr: 0x100084F20, symSize: 0x20 }
  - { offsetInCU: 0x749BA, offset: 0x749BA, size: 0x8, addend: 0x0, symName: __ZNSt3__119__allocate_at_leastB8ue170006INS_9allocatorIP13VkSemaphore_TEEEENS_19__allocation_resultINS_16allocator_traitsIT_E7pointerEEERS7_m, symObjAddr: 0x848C0, symBinAddr: 0x100085200, symSize: 0x40 }
  - { offsetInCU: 0x749FD, offset: 0x749FD, size: 0x8, addend: 0x0, symName: __ZNSt3__142__uninitialized_allocator_move_if_noexceptB8ue170006INS_9allocatorIP13VkSemaphore_TEENS_16reverse_iteratorIPS3_EES7_S3_vEET1_RT_T0_SB_S8_, symObjAddr: 0x84BD0, symBinAddr: 0x100085510, symSize: 0x70 }
  - { offsetInCU: 0x74A7A, offset: 0x74A7A, size: 0x8, addend: 0x0, symName: __ZNSt3__14swapB8ue170006IPP13VkSemaphore_TEENS_9enable_ifIXaasr21is_move_constructibleIT_EE5valuesr18is_move_assignableIS5_EE5valueEvE4typeERS5_S8_, symObjAddr: 0x84C90, symBinAddr: 0x1000855D0, symSize: 0x40 }
  - { offsetInCU: 0x74ACB, offset: 0x74ACB, size: 0x8, addend: 0x0, symName: __ZNSt3__14moveB8ue170006INS_16reverse_iteratorIPP13VkSemaphore_TEES5_EET0_T_S7_S6_, symObjAddr: 0x84DC0, symBinAddr: 0x100085700, symSize: 0x80 }
  - { offsetInCU: 0x74B25, offset: 0x74B25, size: 0x8, addend: 0x0, symName: __ZNSt3__16__moveB8ue170006INS_17_ClassicAlgPolicyENS_16reverse_iteratorIPP13VkSemaphore_TEES6_S6_EENS_4pairIT0_T2_EES8_T1_S9_, symObjAddr: 0x84E40, symBinAddr: 0x100085780, symSize: 0x90 }
  - { offsetInCU: 0x74B91, offset: 0x74B91, size: 0x8, addend: 0x0, symName: __ZNSt3__123__dispatch_copy_or_moveB8ue170006INS_17_ClassicAlgPolicyENS_11__move_loopIS1_EENS_14__move_trivialENS_16reverse_iteratorIPP13VkSemaphore_TEES9_S9_EENS_4pairIT2_T4_EESB_T3_SC_, symObjAddr: 0x84ED0, symBinAddr: 0x100085810, symSize: 0x90 }
  - { offsetInCU: 0x74C0F, offset: 0x74C0F, size: 0x8, addend: 0x0, symName: __ZNSt3__121__unwrap_and_dispatchB8ue170006INS_10__overloadINS_11__move_loopINS_17_ClassicAlgPolicyEEENS_14__move_trivialEEENS_16reverse_iteratorIPP13VkSemaphore_TEESB_SB_Li0EEENS_4pairIT0_T2_EESD_T1_SE_, symObjAddr: 0x84F60, symBinAddr: 0x1000858A0, symSize: 0x210 }
  - { offsetInCU: 0x74C9E, offset: 0x74C9E, size: 0x8, addend: 0x0, symName: __ZNSt3__114__unwrap_rangeB8ue170006INS_16reverse_iteratorIPP13VkSemaphore_TEES5_EEDaT_T0_, symObjAddr: 0x85170, symBinAddr: 0x100085AB0, symSize: 0x60 }
  - { offsetInCU: 0x74DBE, offset: 0x74DBE, size: 0x8, addend: 0x0, symName: __ZNSt3__113__unwrap_iterB8ue170006INS_16reverse_iteratorIPP13VkSemaphore_TEENS_18__unwrap_iter_implIS5_Lb0EEELi0EEEDTclsrT0_8__unwrapclsr3stdE7declvalIT_EEEES9_, symObjAddr: 0x85270, symBinAddr: 0x100085BB0, symSize: 0x40 }
  - { offsetInCU: 0x74E02, offset: 0x74E02, size: 0x8, addend: 0x0, symName: __ZNSt3__19make_pairB8ue170006INS_16reverse_iteratorIPP13VkSemaphore_TEES5_EENS_4pairINS_18__unwrap_ref_decayIT_E4typeENS7_IT0_E4typeEEEOS8_OSB_, symObjAddr: 0x852B0, symBinAddr: 0x100085BF0, symSize: 0x30 }
  - { offsetInCU: 0x74E51, offset: 0x74E51, size: 0x8, addend: 0x0, symName: __ZNSt3__114__rewrap_rangeB8ue170006INS_16reverse_iteratorIPP13VkSemaphore_TEES5_S5_EET0_S6_T1_, symObjAddr: 0x852E0, symBinAddr: 0x100085C20, symSize: 0x60 }
  - { offsetInCU: 0x74EA6, offset: 0x74EA6, size: 0x8, addend: 0x0, symName: __ZNSt3__113__rewrap_iterB8ue170006INS_16reverse_iteratorIPP13VkSemaphore_TEES5_NS_18__unwrap_iter_implIS5_Lb0EEEEET_S8_T0_, symObjAddr: 0x85340, symBinAddr: 0x100085C80, symSize: 0x70 }
  - { offsetInCU: 0x74F4B, offset: 0x74F4B, size: 0x8, addend: 0x0, symName: __ZNSt3__1neB8ue170006IPP13VkSemaphore_TS3_EEbRKNS_16reverse_iteratorIT_EERKNS4_IT0_EE, symObjAddr: 0x854B0, symBinAddr: 0x100085DF0, symSize: 0x40 }
  - { offsetInCU: 0x75003, offset: 0x75003, size: 0x8, addend: 0x0, symName: __ZNSt3__110destroy_atB8ue170006IP13VkSemaphore_TLi0EEEvPT_, symObjAddr: 0x85810, symBinAddr: 0x100086150, symSize: 0x20 }
  - { offsetInCU: 0x7503A, offset: 0x7503A, size: 0x8, addend: 0x0, symName: __ZNSt3__112__destroy_atB8ue170006IP13VkSemaphore_TLi0EEEvPT_, symObjAddr: 0x85830, symBinAddr: 0x100086170, symSize: 0x10 }
  - { offsetInCU: 0x75071, offset: 0x75071, size: 0x8, addend: 0x0, symName: __ZNSt3__112__to_addressB8ue170006IP9VkFence_TEEPT_S4_, symObjAddr: 0x85FA0, symBinAddr: 0x1000868E0, symSize: 0x10 }
  - { offsetInCU: 0x750CD, offset: 0x750CD, size: 0x8, addend: 0x0, symName: __ZNSt3__112construct_atB8ue170006IP9VkFence_TJEPS2_EEPT_S5_DpOT0_, symObjAddr: 0x86010, symBinAddr: 0x100086950, symSize: 0x20 }
  - { offsetInCU: 0x7512B, offset: 0x7512B, size: 0x8, addend: 0x0, symName: __ZNSt3__119__allocate_at_leastB8ue170006INS_9allocatorIP9VkFence_TEEEENS_19__allocation_resultINS_16allocator_traitsIT_E7pointerEEERS7_m, symObjAddr: 0x862F0, symBinAddr: 0x100086C30, symSize: 0x40 }
  - { offsetInCU: 0x7516E, offset: 0x7516E, size: 0x8, addend: 0x0, symName: __ZNSt3__142__uninitialized_allocator_move_if_noexceptB8ue170006INS_9allocatorIP9VkFence_TEENS_16reverse_iteratorIPS3_EES7_S3_vEET1_RT_T0_SB_S8_, symObjAddr: 0x86600, symBinAddr: 0x100086F40, symSize: 0x70 }
  - { offsetInCU: 0x751EB, offset: 0x751EB, size: 0x8, addend: 0x0, symName: __ZNSt3__14swapB8ue170006IPP9VkFence_TEENS_9enable_ifIXaasr21is_move_constructibleIT_EE5valuesr18is_move_assignableIS5_EE5valueEvE4typeERS5_S8_, symObjAddr: 0x866C0, symBinAddr: 0x100087000, symSize: 0x40 }
  - { offsetInCU: 0x7523C, offset: 0x7523C, size: 0x8, addend: 0x0, symName: __ZNSt3__14moveB8ue170006INS_16reverse_iteratorIPP9VkFence_TEES5_EET0_T_S7_S6_, symObjAddr: 0x867F0, symBinAddr: 0x100087130, symSize: 0x80 }
  - { offsetInCU: 0x75296, offset: 0x75296, size: 0x8, addend: 0x0, symName: __ZNSt3__16__moveB8ue170006INS_17_ClassicAlgPolicyENS_16reverse_iteratorIPP9VkFence_TEES6_S6_EENS_4pairIT0_T2_EES8_T1_S9_, symObjAddr: 0x86870, symBinAddr: 0x1000871B0, symSize: 0x90 }
  - { offsetInCU: 0x75302, offset: 0x75302, size: 0x8, addend: 0x0, symName: __ZNSt3__123__dispatch_copy_or_moveB8ue170006INS_17_ClassicAlgPolicyENS_11__move_loopIS1_EENS_14__move_trivialENS_16reverse_iteratorIPP9VkFence_TEES9_S9_EENS_4pairIT2_T4_EESB_T3_SC_, symObjAddr: 0x86900, symBinAddr: 0x100087240, symSize: 0x90 }
  - { offsetInCU: 0x75380, offset: 0x75380, size: 0x8, addend: 0x0, symName: __ZNSt3__121__unwrap_and_dispatchB8ue170006INS_10__overloadINS_11__move_loopINS_17_ClassicAlgPolicyEEENS_14__move_trivialEEENS_16reverse_iteratorIPP9VkFence_TEESB_SB_Li0EEENS_4pairIT0_T2_EESD_T1_SE_, symObjAddr: 0x86990, symBinAddr: 0x1000872D0, symSize: 0x210 }
  - { offsetInCU: 0x7540F, offset: 0x7540F, size: 0x8, addend: 0x0, symName: __ZNSt3__114__unwrap_rangeB8ue170006INS_16reverse_iteratorIPP9VkFence_TEES5_EEDaT_T0_, symObjAddr: 0x86BA0, symBinAddr: 0x1000874E0, symSize: 0x60 }
  - { offsetInCU: 0x7552F, offset: 0x7552F, size: 0x8, addend: 0x0, symName: __ZNSt3__113__unwrap_iterB8ue170006INS_16reverse_iteratorIPP9VkFence_TEENS_18__unwrap_iter_implIS5_Lb0EEELi0EEEDTclsrT0_8__unwrapclsr3stdE7declvalIT_EEEES9_, symObjAddr: 0x86CA0, symBinAddr: 0x1000875E0, symSize: 0x40 }
  - { offsetInCU: 0x75573, offset: 0x75573, size: 0x8, addend: 0x0, symName: __ZNSt3__19make_pairB8ue170006INS_16reverse_iteratorIPP9VkFence_TEES5_EENS_4pairINS_18__unwrap_ref_decayIT_E4typeENS7_IT0_E4typeEEEOS8_OSB_, symObjAddr: 0x86CE0, symBinAddr: 0x100087620, symSize: 0x30 }
  - { offsetInCU: 0x755C2, offset: 0x755C2, size: 0x8, addend: 0x0, symName: __ZNSt3__114__rewrap_rangeB8ue170006INS_16reverse_iteratorIPP9VkFence_TEES5_S5_EET0_S6_T1_, symObjAddr: 0x86D10, symBinAddr: 0x100087650, symSize: 0x60 }
  - { offsetInCU: 0x75617, offset: 0x75617, size: 0x8, addend: 0x0, symName: __ZNSt3__113__rewrap_iterB8ue170006INS_16reverse_iteratorIPP9VkFence_TEES5_NS_18__unwrap_iter_implIS5_Lb0EEEEET_S8_T0_, symObjAddr: 0x86D70, symBinAddr: 0x1000876B0, symSize: 0x70 }
  - { offsetInCU: 0x756BC, offset: 0x756BC, size: 0x8, addend: 0x0, symName: __ZNSt3__1neB8ue170006IPP9VkFence_TS3_EEbRKNS_16reverse_iteratorIT_EERKNS4_IT0_EE, symObjAddr: 0x86EE0, symBinAddr: 0x100087820, symSize: 0x40 }
  - { offsetInCU: 0x75774, offset: 0x75774, size: 0x8, addend: 0x0, symName: __ZNSt3__110destroy_atB8ue170006IP9VkFence_TLi0EEEvPT_, symObjAddr: 0x87240, symBinAddr: 0x100087B80, symSize: 0x20 }
  - { offsetInCU: 0x757AB, offset: 0x757AB, size: 0x8, addend: 0x0, symName: __ZNSt3__112__destroy_atB8ue170006IP9VkFence_TLi0EEEvPT_, symObjAddr: 0x87260, symBinAddr: 0x100087BA0, symSize: 0x10 }
  - { offsetInCU: 0x757E2, offset: 0x757E2, size: 0x8, addend: 0x0, symName: __ZNSt3__13maxB8ue170006IiNS_6__lessIvvEEEERKT_S5_S5_T0_, symObjAddr: 0x87450, symBinAddr: 0x100087D90, symSize: 0x50 }
  - { offsetInCU: 0x7583C, offset: 0x7583C, size: 0x8, addend: 0x0, symName: __ZNSt3__14copyB8ue170006IPKcPcEET0_T_S5_S4_, symObjAddr: 0x87930, symBinAddr: 0x100088270, symSize: 0x40 }
  - { offsetInCU: 0x75896, offset: 0x75896, size: 0x8, addend: 0x0, symName: __ZNSt3__16__copyB8ue170006INS_17_ClassicAlgPolicyEPKcS3_PcEENS_4pairIT0_T2_EES6_T1_S7_, symObjAddr: 0x87970, symBinAddr: 0x1000882B0, symSize: 0x40 }
  - { offsetInCU: 0x75902, offset: 0x75902, size: 0x8, addend: 0x0, symName: __ZNSt3__123__dispatch_copy_or_moveB8ue170006INS_17_ClassicAlgPolicyENS_11__copy_loopIS1_EENS_14__copy_trivialEPKcS6_PcEENS_4pairIT2_T4_EES9_T3_SA_, symObjAddr: 0x879B0, symBinAddr: 0x1000882F0, symSize: 0x40 }
  - { offsetInCU: 0x75980, offset: 0x75980, size: 0x8, addend: 0x0, symName: __ZNSt3__121__unwrap_and_dispatchB8ue170006INS_10__overloadINS_11__copy_loopINS_17_ClassicAlgPolicyEEENS_14__copy_trivialEEEPKcS8_PcLi0EEENS_4pairIT0_T2_EESB_T1_SC_, symObjAddr: 0x879F0, symBinAddr: 0x100088330, symSize: 0xB0 }
  - { offsetInCU: 0x75A0F, offset: 0x75A0F, size: 0x8, addend: 0x0, symName: __ZNSt3__114__unwrap_rangeB8ue170006IPKcS2_EEDaT_T0_, symObjAddr: 0x87AA0, symBinAddr: 0x1000883E0, symSize: 0x40 }
  - { offsetInCU: 0x75B5E, offset: 0x75B5E, size: 0x8, addend: 0x0, symName: __ZNSt3__113__unwrap_iterB8ue170006IPcNS_18__unwrap_iter_implIS1_Lb1EEELi0EEEDTclsrT0_8__unwrapclsr3stdE7declvalIT_EEEES5_, symObjAddr: 0x87B20, symBinAddr: 0x100088460, symSize: 0x20 }
  - { offsetInCU: 0x75BA2, offset: 0x75BA2, size: 0x8, addend: 0x0, symName: __ZNSt3__19make_pairB8ue170006IPKcPcEENS_4pairINS_18__unwrap_ref_decayIT_E4typeENS5_IT0_E4typeEEEOS6_OS9_, symObjAddr: 0x87B40, symBinAddr: 0x100088480, symSize: 0x30 }
  - { offsetInCU: 0x75BF1, offset: 0x75BF1, size: 0x8, addend: 0x0, symName: __ZNSt3__114__rewrap_rangeB8ue170006IPKcS2_S2_EET0_S3_T1_, symObjAddr: 0x87B70, symBinAddr: 0x1000884B0, symSize: 0x30 }
  - { offsetInCU: 0x75C46, offset: 0x75C46, size: 0x8, addend: 0x0, symName: __ZNSt3__113__rewrap_iterB8ue170006IPcS1_NS_18__unwrap_iter_implIS1_Lb1EEEEET_S4_T0_, symObjAddr: 0x87BA0, symBinAddr: 0x1000884E0, symSize: 0x40 }
  - { offsetInCU: 0x75DB7, offset: 0x75DB7, size: 0x8, addend: 0x0, symName: __ZNSt3__113__unwrap_iterB8ue170006IPKcNS_18__unwrap_iter_implIS2_Lb1EEELi0EEEDTclsrT0_8__unwrapclsr3stdE7declvalIT_EEEES6_, symObjAddr: 0x87C30, symBinAddr: 0x100088570, symSize: 0x20 }
  - { offsetInCU: 0x75E4E, offset: 0x75E4E, size: 0x8, addend: 0x0, symName: __ZNSt3__119__copy_trivial_implB8ue170006IKccEENS_4pairIPT_PT0_EES4_S4_S6_, symObjAddr: 0x87CD0, symBinAddr: 0x100088610, symSize: 0x70 }
  - { offsetInCU: 0x75EB6, offset: 0x75EB6, size: 0x8, addend: 0x0, symName: __ZNSt3__119__constexpr_memmoveB8ue170006IcKcLi0EEEPT_S3_PT0_NS_15__element_countE, symObjAddr: 0x87D40, symBinAddr: 0x100088680, symSize: 0x50 }
  - { offsetInCU: 0x75F24, offset: 0x75F24, size: 0x8, addend: 0x0, symName: __ZNSt3__19make_pairB8ue170006IRPKcPcEENS_4pairINS_18__unwrap_ref_decayIT_E4typeENS6_IT0_E4typeEEEOS7_OSA_, symObjAddr: 0x87D90, symBinAddr: 0x1000886D0, symSize: 0x30 }
  - { offsetInCU: 0x75FC6, offset: 0x75FC6, size: 0x8, addend: 0x0, symName: __ZNSt3__113__rewrap_iterB8ue170006IPKcS2_NS_18__unwrap_iter_implIS2_Lb1EEEEET_S5_T0_, symObjAddr: 0x87ED0, symBinAddr: 0x100088810, symSize: 0x40 }
  - { offsetInCU: 0x7601B, offset: 0x7601B, size: 0x8, addend: 0x0, symName: __ZNSt3__16fill_nB8ue170006IPcmcEET_S2_T0_RKT1_, symObjAddr: 0x87F90, symBinAddr: 0x1000888D0, symSize: 0x40 }
  - { offsetInCU: 0x7607E, offset: 0x7607E, size: 0x8, addend: 0x0, symName: __ZNSt3__18__fill_nB8ue170006IPcmcEET_S2_T0_RKT1_, symObjAddr: 0x87FD0, symBinAddr: 0x100088910, symSize: 0x50 }
  - { offsetInCU: 0x760E1, offset: 0x760E1, size: 0x8, addend: 0x0, symName: __ZNSt3__121__convert_to_integralB8ue170006Em, symObjAddr: 0x88020, symBinAddr: 0x100088960, symSize: 0x10 }
  - { offsetInCU: 0x7610D, offset: 0x7610D, size: 0x8, addend: 0x0, symName: __ZNSt3__1eqB8ue170006IPN7tinyobj7shape_tEEEbRKNS_11__wrap_iterIT_EES8_, symObjAddr: 0x880B0, symBinAddr: 0x1000889F0, symSize: 0x40 }
  - { offsetInCU: 0x76150, offset: 0x76150, size: 0x8, addend: 0x0, symName: __ZNSt3__1eqB8ue170006IPKN7tinyobj7index_tEEEbRKNS_11__wrap_iterIT_EES9_, symObjAddr: 0x88190, symBinAddr: 0x100088AD0, symSize: 0x40 }
  - { offsetInCU: 0x76193, offset: 0x76193, size: 0x8, addend: 0x0, symName: __ZNSt3__112__to_addressB8ue170006I7Vertex_EEPT_S3_, symObjAddr: 0x88490, symBinAddr: 0x100088DD0, symSize: 0x10 }
  - { offsetInCU: 0x761EF, offset: 0x761EF, size: 0x8, addend: 0x0, symName: __ZNSt3__112construct_atB8ue170006I7Vertex_JRKS1_EPS1_EEPT_S6_DpOT0_, symObjAddr: 0x88500, symBinAddr: 0x100088E40, symSize: 0x40 }
  - { offsetInCU: 0x76261, offset: 0x76261, size: 0x8, addend: 0x0, symName: __ZNSt3__119__allocate_at_leastB8ue170006INS_9allocatorI7Vertex_EEEENS_19__allocation_resultINS_16allocator_traitsIT_E7pointerEEERS6_m, symObjAddr: 0x88A20, symBinAddr: 0x100089360, symSize: 0x40 }
  - { offsetInCU: 0x762A4, offset: 0x762A4, size: 0x8, addend: 0x0, symName: __ZNSt3__142__uninitialized_allocator_move_if_noexceptB8ue170006INS_9allocatorI7Vertex_EENS_16reverse_iteratorIPS2_EES6_S2_vEET1_RT_T0_SA_S7_, symObjAddr: 0x88C80, symBinAddr: 0x1000895C0, symSize: 0x70 }
  - { offsetInCU: 0x76321, offset: 0x76321, size: 0x8, addend: 0x0, symName: __ZNSt3__14swapB8ue170006IP7Vertex_EENS_9enable_ifIXaasr21is_move_constructibleIT_EE5valuesr18is_move_assignableIS4_EE5valueEvE4typeERS4_S7_, symObjAddr: 0x88D40, symBinAddr: 0x100089680, symSize: 0x40 }
  - { offsetInCU: 0x76372, offset: 0x76372, size: 0x8, addend: 0x0, symName: __ZNSt3__14moveB8ue170006INS_16reverse_iteratorIP7Vertex_EES4_EET0_T_S6_S5_, symObjAddr: 0x88E70, symBinAddr: 0x1000897B0, symSize: 0x80 }
  - { offsetInCU: 0x763CC, offset: 0x763CC, size: 0x8, addend: 0x0, symName: __ZNSt3__16__moveB8ue170006INS_17_ClassicAlgPolicyENS_16reverse_iteratorIP7Vertex_EES5_S5_EENS_4pairIT0_T2_EES7_T1_S8_, symObjAddr: 0x88EF0, symBinAddr: 0x100089830, symSize: 0x90 }
  - { offsetInCU: 0x76438, offset: 0x76438, size: 0x8, addend: 0x0, symName: __ZNSt3__123__dispatch_copy_or_moveB8ue170006INS_17_ClassicAlgPolicyENS_11__move_loopIS1_EENS_14__move_trivialENS_16reverse_iteratorIP7Vertex_EES8_S8_EENS_4pairIT2_T4_EESA_T3_SB_, symObjAddr: 0x88F80, symBinAddr: 0x1000898C0, symSize: 0x90 }
  - { offsetInCU: 0x764B6, offset: 0x764B6, size: 0x8, addend: 0x0, symName: __ZNSt3__121__unwrap_and_dispatchB8ue170006INS_10__overloadINS_11__move_loopINS_17_ClassicAlgPolicyEEENS_14__move_trivialEEENS_16reverse_iteratorIP7Vertex_EESA_SA_Li0EEENS_4pairIT0_T2_EESC_T1_SD_, symObjAddr: 0x89010, symBinAddr: 0x100089950, symSize: 0x210 }
  - { offsetInCU: 0x76545, offset: 0x76545, size: 0x8, addend: 0x0, symName: __ZNSt3__114__unwrap_rangeB8ue170006INS_16reverse_iteratorIP7Vertex_EES4_EEDaT_T0_, symObjAddr: 0x89220, symBinAddr: 0x100089B60, symSize: 0x60 }
  - { offsetInCU: 0x76665, offset: 0x76665, size: 0x8, addend: 0x0, symName: __ZNSt3__113__unwrap_iterB8ue170006INS_16reverse_iteratorIP7Vertex_EENS_18__unwrap_iter_implIS4_Lb0EEELi0EEEDTclsrT0_8__unwrapclsr3stdE7declvalIT_EEEES8_, symObjAddr: 0x89330, symBinAddr: 0x100089C70, symSize: 0x40 }
  - { offsetInCU: 0x766A9, offset: 0x766A9, size: 0x8, addend: 0x0, symName: __ZNSt3__19make_pairB8ue170006INS_16reverse_iteratorIP7Vertex_EES4_EENS_4pairINS_18__unwrap_ref_decayIT_E4typeENS6_IT0_E4typeEEEOS7_OSA_, symObjAddr: 0x89370, symBinAddr: 0x100089CB0, symSize: 0x30 }
  - { offsetInCU: 0x766F8, offset: 0x766F8, size: 0x8, addend: 0x0, symName: __ZNSt3__114__rewrap_rangeB8ue170006INS_16reverse_iteratorIP7Vertex_EES4_S4_EET0_S5_T1_, symObjAddr: 0x893A0, symBinAddr: 0x100089CE0, symSize: 0x60 }
  - { offsetInCU: 0x7674D, offset: 0x7674D, size: 0x8, addend: 0x0, symName: __ZNSt3__113__rewrap_iterB8ue170006INS_16reverse_iteratorIP7Vertex_EES4_NS_18__unwrap_iter_implIS4_Lb0EEEEET_S7_T0_, symObjAddr: 0x89400, symBinAddr: 0x100089D40, symSize: 0x70 }
  - { offsetInCU: 0x767F2, offset: 0x767F2, size: 0x8, addend: 0x0, symName: __ZNSt3__1neB8ue170006IP7Vertex_S2_EEbRKNS_16reverse_iteratorIT_EERKNS3_IT0_EE, symObjAddr: 0x89570, symBinAddr: 0x100089EB0, symSize: 0x40 }
  - { offsetInCU: 0x768AA, offset: 0x768AA, size: 0x8, addend: 0x0, symName: __ZNSt3__110destroy_atB8ue170006I7Vertex_Li0EEEvPT_, symObjAddr: 0x898D0, symBinAddr: 0x10008A210, symSize: 0x20 }
  - { offsetInCU: 0x768E1, offset: 0x768E1, size: 0x8, addend: 0x0, symName: __ZNSt3__112__destroy_atB8ue170006I7Vertex_Li0EEEvPT_, symObjAddr: 0x898F0, symBinAddr: 0x10008A230, symSize: 0x10 }
  - { offsetInCU: 0x76918, offset: 0x76918, size: 0x8, addend: 0x0, symName: __ZNSt3__112construct_atB8ue170006IjJRKjEPjEEPT_S5_DpOT0_, symObjAddr: 0x89B10, symBinAddr: 0x10008A450, symSize: 0x30 }
  - { offsetInCU: 0x7698A, offset: 0x7698A, size: 0x8, addend: 0x0, symName: __ZNSt3__1eqB8ue170006IPP15VkFramebuffer_TEEbRKNS_11__wrap_iterIT_EES8_, symObjAddr: 0x8A290, symBinAddr: 0x10008ABD0, symSize: 0x40 }
  - { offsetInCU: 0x769CD, offset: 0x769CD, size: 0x8, addend: 0x0, symName: __ZNSt3__1eqB8ue170006IPP13VkImageView_TEEbRKNS_11__wrap_iterIT_EES8_, symObjAddr: 0x8A370, symBinAddr: 0x10008ACB0, symSize: 0x40 }
  - { offsetInCU: 0x76A19, offset: 0x76A19, size: 0x8, addend: 0x0, symName: __ZNSt3__17launderB8ue170006IKNS_4pairIKNS_12basic_stringIcNS_11char_traitsIcEENS_9allocatorIcEEEEiEEEEPT_SC_, symObjAddr: 0x8C900, symBinAddr: 0x10008D240, symSize: 0x20 }
  - { offsetInCU: 0x76A50, offset: 0x76A50, size: 0x8, addend: 0x0, symName: __ZNSt3__19__launderB8ue170006IKNS_4pairIKNS_12basic_stringIcNS_11char_traitsIcEENS_9allocatorIcEEEEiEEEEPT_SC_, symObjAddr: 0x8C920, symBinAddr: 0x10008D260, symSize: 0x10 }
  - { offsetInCU: 0x76ACC, offset: 0x76ACC, size: 0x8, addend: 0x0, symName: __ZNSt3__112construct_atB8ue170006INS_4pairIKNS_12basic_stringIcNS_11char_traitsIcEENS_9allocatorIcEEEEiEEJNS1_IS7_iEEEPS9_EEPT_SD_DpOT0_, symObjAddr: 0x8CC70, symBinAddr: 0x10008D5B0, symSize: 0x40 }
  - { offsetInCU: 0x76B3E, offset: 0x76B3E, size: 0x8, addend: 0x0, symName: __ZNSt3__17launderB8ue170006INS_4pairIKNS_12basic_stringIcNS_11char_traitsIcEENS_9allocatorIcEEEEiEEEEPT_SB_, symObjAddr: 0x8CD40, symBinAddr: 0x10008D680, symSize: 0x20 }
  - { offsetInCU: 0x76B75, offset: 0x76B75, size: 0x8, addend: 0x0, symName: __ZNSt3__19__launderB8ue170006INS_4pairIKNS_12basic_stringIcNS_11char_traitsIcEENS_9allocatorIcEEEEiEEEEPT_SB_, symObjAddr: 0x8CD60, symBinAddr: 0x10008D6A0, symSize: 0x10 }
  - { offsetInCU: 0x76BAC, offset: 0x76BAC, size: 0x8, addend: 0x0, symName: __ZNSt3__110destroy_atB8ue170006INS_4pairIKNS_12basic_stringIcNS_11char_traitsIcEENS_9allocatorIcEEEEiEELi0EEEvPT_, symObjAddr: 0x8CFC0, symBinAddr: 0x10008D900, symSize: 0x20 }
  - { offsetInCU: 0x76BE3, offset: 0x76BE3, size: 0x8, addend: 0x0, symName: __ZNSt3__112__destroy_atB8ue170006INS_4pairIKNS_12basic_stringIcNS_11char_traitsIcEENS_9allocatorIcEEEEiEELi0EEEvPT_, symObjAddr: 0x8CFE0, symBinAddr: 0x10008D920, symSize: 0x20 }
  - { offsetInCU: 0x76C1A, offset: 0x76C1A, size: 0x8, addend: 0x0, symName: __ZNSt3__116__pad_and_outputB8ue170006IcNS_11char_traitsIcEEEENS_19ostreambuf_iteratorIT_T0_EES6_PKS4_S8_S8_RNS_8ios_baseES4_, symObjAddr: 0x8D380, symBinAddr: 0x10008DCC0, symSize: 0x220 }
  - { offsetInCU: 0x76CEF, offset: 0x76CEF, size: 0x8, addend: 0x0, symName: __ZNSt3__19use_facetB8ue170006INS_5ctypeIcEEEERKT_RKNS_6localeE, symObjAddr: 0x8D8A0, symBinAddr: 0x10008E1E0, symSize: 0x30 }
  - { offsetInCU: 0x771BC, offset: 0x771BC, size: 0x8, addend: 0x0, symName: __ZNSt3__112construct_atB8ue170006INS_4pairIKNS_12basic_stringIcNS_11char_traitsIcEENS_9allocatorIcEEEES7_EEJNS1_IS7_S7_EEEPS9_EEPT_SD_DpOT0_, symObjAddr: 0x8DC00, symBinAddr: 0x10008E540, symSize: 0x40 }
  - { offsetInCU: 0x7722E, offset: 0x7722E, size: 0x8, addend: 0x0, symName: __ZNSt3__110to_addressB8ue170006IcEEDaPT_, symObjAddr: 0x8E010, symBinAddr: 0x10008E950, symSize: 0x20 }
  - { offsetInCU: 0x77263, offset: 0x77263, size: 0x8, addend: 0x0, symName: __ZNSt3__1neB8ue170006ERKNS_15__tree_iteratorINS_12__value_typeINS_12basic_stringIcNS_11char_traitsIcEENS_9allocatorIcEEEEiEEPNS_11__tree_nodeIS8_PvEElEESF_, symObjAddr: 0x8EB60, symBinAddr: 0x10008F4A0, symSize: 0x30 }
  - { offsetInCU: 0x772A0, offset: 0x772A0, size: 0x8, addend: 0x0, symName: __ZNSt3__1eqB8ue170006ERKNS_15__tree_iteratorINS_12__value_typeINS_12basic_stringIcNS_11char_traitsIcEENS_9allocatorIcEEEEiEEPNS_11__tree_nodeIS8_PvEElEESF_, symObjAddr: 0x8EC30, symBinAddr: 0x10008F570, symSize: 0x30 }
  - { offsetInCU: 0x772DD, offset: 0x772DD, size: 0x8, addend: 0x0, symName: __ZNSt3__1neB8ue170006ERKNS_21__tree_const_iteratorINS_12__value_typeINS_12basic_stringIcNS_11char_traitsIcEENS_9allocatorIcEEEEiEEPNS_11__tree_nodeIS8_PvEElEESF_, symObjAddr: 0x8ED00, symBinAddr: 0x10008F640, symSize: 0x30 }
  - { offsetInCU: 0x7731A, offset: 0x7731A, size: 0x8, addend: 0x0, symName: __ZNSt3__1eqB8ue170006ERKNS_21__tree_const_iteratorINS_12__value_typeINS_12basic_stringIcNS_11char_traitsIcEENS_9allocatorIcEEEEiEEPNS_11__tree_nodeIS8_PvEElEESF_, symObjAddr: 0x8ED30, symBinAddr: 0x10008F670, symSize: 0x30 }
  - { offsetInCU: 0x773E4, offset: 0x773E4, size: 0x8, addend: 0x0, symName: __ZNSt3__112construct_atB8ue170006INS_12basic_stringIcNS_11char_traitsIcEENS_9allocatorIcEEEEJRKPKcEPS6_EEPT_SD_DpOT0_, symObjAddr: 0x90900, symBinAddr: 0x100091240, symSize: 0x40 }
  - { offsetInCU: 0x77456, offset: 0x77456, size: 0x8, addend: 0x0, symName: __ZNSt3__1eqB8ue170006ERKNS_21__tree_const_iteratorINS_12basic_stringIcNS_11char_traitsIcEENS_9allocatorIcEEEEPNS_11__tree_nodeIS6_PvEElEESD_, symObjAddr: 0x90940, symBinAddr: 0x100091280, symSize: 0x30 }
  - { offsetInCU: 0x77493, offset: 0x77493, size: 0x8, addend: 0x0, symName: __ZNSt3__14nextB8ue170006INS_21__tree_const_iteratorINS_12basic_stringIcNS_11char_traitsIcEENS_9allocatorIcEEEEPNS_11__tree_nodeIS7_PvEElEEEENS_9enable_ifIXsr29__has_input_iterator_categoryIT_EE5valueESE_E4typeESE_NS_15iterator_traitsISE_E15difference_typeE, symObjAddr: 0x90A20, symBinAddr: 0x100091360, symSize: 0x30 }
  - { offsetInCU: 0x774D6, offset: 0x774D6, size: 0x8, addend: 0x0, symName: __ZNSt3__19__advanceB8ue170006INS_21__tree_const_iteratorINS_12basic_stringIcNS_11char_traitsIcEENS_9allocatorIcEEEEPNS_11__tree_nodeIS7_PvEElEEEEvRT_NS_15iterator_traitsISD_E15difference_typeENS_26bidirectional_iterator_tagE, symObjAddr: 0x90AF0, symBinAddr: 0x100091430, symSize: 0x80 }
  - { offsetInCU: 0x77520, offset: 0x77520, size: 0x8, addend: 0x0, symName: __ZNSt3__1eqB8ue170006ERKNS_15__tree_iteratorINS_12basic_stringIcNS_11char_traitsIcEENS_9allocatorIcEEEEPNS_11__tree_nodeIS6_PvEElEESD_, symObjAddr: 0x90D20, symBinAddr: 0x100091660, symSize: 0x30 }
  - { offsetInCU: 0x7755D, offset: 0x7755D, size: 0x8, addend: 0x0, symName: __ZNSt3__1neB8ue170006ERKNS_15__tree_iteratorINS_12basic_stringIcNS_11char_traitsIcEENS_9allocatorIcEEEEPNS_11__tree_nodeIS6_PvEElEESD_, symObjAddr: 0x90E70, symBinAddr: 0x1000917B0, symSize: 0x30 }
  - { offsetInCU: 0x7759B, offset: 0x7759B, size: 0x8, addend: 0x0, symName: __ZNSt3__113__tree_removeB8ue170006IPNS_16__tree_node_baseIPvEEEEvT_S5_, symObjAddr: 0x90FB0, symBinAddr: 0x1000918F0, symSize: 0x5E0 }
  - { offsetInCU: 0x7761D, offset: 0x7761D, size: 0x8, addend: 0x0, symName: __ZNSt3__111__tree_nextB8ue170006IPNS_16__tree_node_baseIPvEEEET_S5_, symObjAddr: 0x91590, symBinAddr: 0x100091ED0, symSize: 0x80 }
  - { offsetInCU: 0x77652, offset: 0x77652, size: 0x8, addend: 0x0, symName: __ZNSt3__1eqB8ue170006ERKNS_21__tree_const_iteratorIjPNS_11__tree_nodeIjPvEElEES7_, symObjAddr: 0x92220, symBinAddr: 0x100092B60, symSize: 0x30 }
  - { offsetInCU: 0x7768F, offset: 0x7768F, size: 0x8, addend: 0x0, symName: __ZNSt3__14nextB8ue170006INS_21__tree_const_iteratorIjPNS_11__tree_nodeIjPvEElEEEENS_9enable_ifIXsr29__has_input_iterator_categoryIT_EE5valueES8_E4typeES8_NS_15iterator_traitsIS8_E15difference_typeE, symObjAddr: 0x924E0, symBinAddr: 0x100092E20, symSize: 0x30 }
  - { offsetInCU: 0x776D2, offset: 0x776D2, size: 0x8, addend: 0x0, symName: __ZNSt3__19__advanceB8ue170006INS_21__tree_const_iteratorIjPNS_11__tree_nodeIjPvEElEEEEvRT_NS_15iterator_traitsIS7_E15difference_typeENS_26bidirectional_iterator_tagE, symObjAddr: 0x92640, symBinAddr: 0x100092F80, symSize: 0x80 }
  - { offsetInCU: 0x7776D, offset: 0x7776D, size: 0x8, addend: 0x0, symName: __ZNSt3__110destroy_atB8ue170006INS_4pairIK7Vertex_jEELi0EEEvPT_, symObjAddr: 0x93510, symBinAddr: 0x100093E50, symSize: 0x20 }
  - { offsetInCU: 0x777A4, offset: 0x777A4, size: 0x8, addend: 0x0, symName: __ZNSt3__112__destroy_atB8ue170006INS_4pairIK7Vertex_jEELi0EEEvPT_, symObjAddr: 0x93530, symBinAddr: 0x100093E70, symSize: 0x10 }
  - { offsetInCU: 0x777DB, offset: 0x777DB, size: 0x8, addend: 0x0, symName: __ZNSt3__17launderB8ue170006INS_4pairIK7Vertex_jEEEEPT_S6_, symObjAddr: 0x93560, symBinAddr: 0x100093EA0, symSize: 0x20 }
  - { offsetInCU: 0x77812, offset: 0x77812, size: 0x8, addend: 0x0, symName: __ZNSt3__19__launderB8ue170006INS_4pairIK7Vertex_jEEEEPT_S6_, symObjAddr: 0x93580, symBinAddr: 0x100093EC0, symSize: 0x10 }
  - { offsetInCU: 0x77849, offset: 0x77849, size: 0x8, addend: 0x0, symName: __ZNSt3__1neB8ue170006ERKNS_21__hash_const_iteratorIPNS_11__hash_nodeINS_17__hash_value_typeI7Vertex_jEEPvEEEESA_, symObjAddr: 0x93860, symBinAddr: 0x1000941A0, symSize: 0x30 }
  - { offsetInCU: 0x77886, offset: 0x77886, size: 0x8, addend: 0x0, symName: __ZNSt3__1eqB8ue170006ERKNS_21__hash_const_iteratorIPNS_11__hash_nodeINS_17__hash_value_typeI7Vertex_jEEPvEEEESA_, symObjAddr: 0x93A40, symBinAddr: 0x100094380, symSize: 0x30 }
  - { offsetInCU: 0x778C3, offset: 0x778C3, size: 0x8, addend: 0x0, symName: __ZNSt3__116__constrain_hashB8ue170006Emm, symObjAddr: 0x93AF0, symBinAddr: 0x100094430, symSize: 0x80 }
  - { offsetInCU: 0x779EA, offset: 0x779EA, size: 0x8, addend: 0x0, symName: __ZNSt3__17launderB8ue170006IKNS_4pairIK7Vertex_jEEEEPT_S7_, symObjAddr: 0x941D0, symBinAddr: 0x100094B10, symSize: 0x20 }
  - { offsetInCU: 0x77A21, offset: 0x77A21, size: 0x8, addend: 0x0, symName: __ZNSt3__19__launderB8ue170006IKNS_4pairIK7Vertex_jEEEEPT_S7_, symObjAddr: 0x941F0, symBinAddr: 0x100094B30, symSize: 0x10 }
  - { offsetInCU: 0x77A8F, offset: 0x77A8F, size: 0x8, addend: 0x0, symName: __ZNSt3__116forward_as_tupleB8ue170006IJRK7Vertex_EEENS_5tupleIJDpOT_EEES7_, symObjAddr: 0x947F0, symBinAddr: 0x100095130, symSize: 0x30 }
  - { offsetInCU: 0x77AC8, offset: 0x77AC8, size: 0x8, addend: 0x0, symName: __ZNSt3__116forward_as_tupleB8ue170006IJEEENS_5tupleIJDpOT_EEES4_, symObjAddr: 0x94820, symBinAddr: 0x100095160, symSize: 0x10 }
  - { offsetInCU: 0x77AEC, offset: 0x77AEC, size: 0x8, addend: 0x0, symName: __ZNSt3__116__is_hash_power2B8ue170006Em, symObjAddr: 0x94A60, symBinAddr: 0x1000953A0, symSize: 0x40 }
  - { offsetInCU: 0x77B5D, offset: 0x77B5D, size: 0x8, addend: 0x0, symName: __ZNSt3__112construct_atB8ue170006INS_4pairIK7Vertex_jEEJRKNS_21piecewise_construct_tENS_5tupleIJRS3_EEENS8_IJEEEEPS4_EEPT_SE_DpOT0_, symObjAddr: 0x94EF0, symBinAddr: 0x100095830, symSize: 0x50 }
  - { offsetInCU: 0x77C01, offset: 0x77C01, size: 0x8, addend: 0x0, symName: __ZNSt3__13getB8ue170006ILm0EJRK7Vertex_EEERNS_13tuple_elementIXT_ENS_5tupleIJDpT0_EEEE4typeERS8_, symObjAddr: 0x95010, symBinAddr: 0x100095950, symSize: 0x20 }
  - { offsetInCU: 0x77C44, offset: 0x77C44, size: 0x8, addend: 0x0, symName: __ZNSt3__116__next_hash_pow2B8ue170006Em, symObjAddr: 0x95550, symBinAddr: 0x100095E90, symSize: 0x60 }
  - { offsetInCU: 0x77C70, offset: 0x77C70, size: 0x8, addend: 0x0, symName: __ZNSt3__112__libcpp_clzB8ue170006Em, symObjAddr: 0x956E0, symBinAddr: 0x100096020, symSize: 0x20 }
  - { offsetInCU: 0x79B32, offset: 0x79B32, size: 0x8, addend: 0x0, symName: __ZSt28__throw_bad_array_new_lengthB8ue170006v, symObjAddr: 0x24170, symBinAddr: 0x100024AB0, symSize: 0x40 }
  - { offsetInCU: 0x7C1F5, offset: 0x7C1F5, size: 0x8, addend: 0x0, symName: __ZN3glm6lookAtIfLNS_9qualifierE0EEENS_3matILi4ELi4ET_XT0_EEERKNS_3vecILi3ES3_XT0_EEES8_S8_, symObjAddr: 0x1DD90, symBinAddr: 0x10001E6D0, symSize: 0x40 }
  - { offsetInCU: 0x7C250, offset: 0x7C250, size: 0x8, addend: 0x0, symName: __ZN3glmplIfLNS_9qualifierE0EEENS_3vecILi3ET_XT0_EEERKS4_S6_, symObjAddr: 0x1DDD0, symBinAddr: 0x10001E710, symSize: 0x70 }
  - { offsetInCU: 0x7C2A0, offset: 0x7C2A0, size: 0x8, addend: 0x0, symName: __ZN3glm11perspectiveIfEENS_3matILi4ELi4ET_LNS_9qualifierE0EEES2_S2_S2_S2_, symObjAddr: 0x1DE40, symBinAddr: 0x10001E780, symSize: 0x50 }
  - { offsetInCU: 0x7C304, offset: 0x7C304, size: 0x8, addend: 0x0, symName: __ZN3glm7radiansIfEET_S1_, symObjAddr: 0x1DE90, symBinAddr: 0x10001E7D0, symSize: 0x20 }
  - { offsetInCU: 0x7D6A4, offset: 0x7D6A4, size: 0x8, addend: 0x0, symName: __ZN3glmmlIfLNS_9qualifierE0EEENS_3vecILi3ET_XT0_EEERKS4_S3_, symObjAddr: 0x21B10, symBinAddr: 0x100022450, symSize: 0x60 }
  - { offsetInCU: 0x7D6F9, offset: 0x7D6F9, size: 0x8, addend: 0x0, symName: __ZN3glm6detail12hash_combineERmm, symObjAddr: 0x93DF0, symBinAddr: 0x100094730, symSize: 0x50 }
  - { offsetInCU: 0x7D85C, offset: 0x7D85C, size: 0x8, addend: 0x0, symName: __ZN3glmeqIfLNS_9qualifierE0EEEbRKNS_3vecILi3ET_XT0_EEES6_, symObjAddr: 0x940A0, symBinAddr: 0x1000949E0, symSize: 0x90 }
  - { offsetInCU: 0x7D8AC, offset: 0x7D8AC, size: 0x8, addend: 0x0, symName: __ZN3glmeqIfLNS_9qualifierE0EEEbRKNS_3vecILi2ET_XT0_EEES6_, symObjAddr: 0x94130, symBinAddr: 0x100094A70, symSize: 0x70 }
  - { offsetInCU: 0x7D8FC, offset: 0x7D8FC, size: 0x8, addend: 0x0, symName: __ZN3glm8lookAtRHIfLNS_9qualifierE0EEENS_3matILi4ELi4ET_XT0_EEERKNS_3vecILi3ES3_XT0_EEES8_S8_, symObjAddr: 0x959C0, symBinAddr: 0x100096300, symSize: 0x450 }
  - { offsetInCU: 0x7D993, offset: 0x7D993, size: 0x8, addend: 0x0, symName: __ZN3glm9normalizeILi3EfLNS_9qualifierE0EEENS_3vecIXT_ET0_XT1_EEERKS4_, symObjAddr: 0x95E10, symBinAddr: 0x100096750, symSize: 0x50 }
  - { offsetInCU: 0x7D9DC, offset: 0x7D9DC, size: 0x8, addend: 0x0, symName: __ZN3glmmiIfLNS_9qualifierE0EEENS_3vecILi3ET_XT0_EEERKS4_S6_, symObjAddr: 0x95E60, symBinAddr: 0x1000967A0, symSize: 0x70 }
  - { offsetInCU: 0x7DA2C, offset: 0x7DA2C, size: 0x8, addend: 0x0, symName: __ZN3glm5crossIfLNS_9qualifierE0EEENS_3vecILi3ET_XT0_EEERKS4_S6_, symObjAddr: 0x95ED0, symBinAddr: 0x100096810, symSize: 0x60 }
  - { offsetInCU: 0x7DA79, offset: 0x7DA79, size: 0x8, addend: 0x0, symName: __ZN3glm3dotILi3EfLNS_9qualifierE0EEET0_RKNS_3vecIXT_ES2_XT1_EEES6_, symObjAddr: 0x95F30, symBinAddr: 0x100096870, symSize: 0x30 }
  - { offsetInCU: 0x7DAD0, offset: 0x7DAD0, size: 0x8, addend: 0x0, symName: __ZN3glm11inversesqrtIfEET_S1_, symObjAddr: 0x95FC0, symBinAddr: 0x100096900, symSize: 0x30 }
  - { offsetInCU: 0x7DB05, offset: 0x7DB05, size: 0x8, addend: 0x0, symName: __ZN3glmmlIfLNS_9qualifierE0EEENS_3vecILi3ET_XT0_EEERKS4_S6_, symObjAddr: 0x960D0, symBinAddr: 0x100096A10, symSize: 0x70 }
  - { offsetInCU: 0x7DB55, offset: 0x7DB55, size: 0x8, addend: 0x0, symName: __ZN3glm16perspectiveRH_ZOIfEENS_3matILi4ELi4ET_LNS_9qualifierE0EEES2_S2_S2_S2_, symObjAddr: 0x96140, symBinAddr: 0x100096A80, symSize: 0x1E0 }
  - { offsetInCU: 0x7DBD2, offset: 0x7DBD2, size: 0x8, addend: 0x0, symName: __ZN3glm3absIfEET_S1_, symObjAddr: 0x96320, symBinAddr: 0x100096C60, symSize: 0x20 }
  - { offsetInCU: 0x7E2AE, offset: 0x7E2AE, size: 0x8, addend: 0x0, symName: _Input, symObjAddr: 0x40C3C8, symBinAddr: 0x1000AC1D8, symSize: 0x0 }
  - { offsetInCU: 0x7E2C8, offset: 0x7E2C8, size: 0x8, addend: 0x0, symName: _Keyboard, symObjAddr: 0x40C3D0, symBinAddr: 0x1000AC1E0, symSize: 0x0 }
  - { offsetInCU: 0x7E2DE, offset: 0x7E2DE, size: 0x8, addend: 0x0, symName: __ZL16deviceExtensions, symObjAddr: 0x40C988, symBinAddr: 0x1000AE890, symSize: 0x0 }
  - { offsetInCU: 0x7E48C, offset: 0x7E48C, size: 0x8, addend: 0x0, symName: __ZL10MODEL_PATH, symObjAddr: 0x40C9A0, symBinAddr: 0x1000AE8A8, symSize: 0x0 }
  - { offsetInCU: 0x7E640, offset: 0x7E640, size: 0x8, addend: 0x0, symName: __ZL12TEXTURE_PATH, symObjAddr: 0x40C9B8, symBinAddr: 0x1000AE8C0, symSize: 0x0 }
  - { offsetInCU: 0x7E65A, offset: 0x7E65A, size: 0x8, addend: 0x0, symName: __ZL16validationLayers, symObjAddr: 0x40C9D0, symBinAddr: 0x1000AE8D8, symSize: 0x0 }
  - { offsetInCU: 0x7E675, offset: 0x7E675, size: 0x8, addend: 0x0, symName: __Z19UpdateUniformBufferjP10ZaynMemory, symObjAddr: 0x1D5D0, symBinAddr: 0x10001DF10, symSize: 0x490 }
  - { offsetInCU: 0x7E69D, offset: 0x7E69D, size: 0x8, addend: 0x0, symName: __ZZ19UpdateUniformBufferjP10ZaynMemoryE9startTime, symObjAddr: 0x40C9E8, symBinAddr: 0x1000AE8F0, symSize: 0x0 }
  - { offsetInCU: 0x7E76A, offset: 0x7E76A, size: 0x8, addend: 0x0, symName: _glfwKeyToInputKeyboardDiscrete, symObjAddr: 0x40C3E0, symBinAddr: 0x1000AC1F0, symSize: 0x0 }
  - { offsetInCU: 0x7E9E0, offset: 0x7E9E0, size: 0x8, addend: 0x0, symName: __ZN7tinyobjL14tryParseDoubleEPKcS1_Pd, symObjAddr: 0x234D0, symBinAddr: 0x100023E10, symSize: 0x520 }
  - { offsetInCU: 0x7EA0C, offset: 0x7EA0C, size: 0x8, addend: 0x0, symName: __ZZN7tinyobjL14tryParseDoubleEPKcS1_PdE7pow_lut, symObjAddr: 0x9C0F0, symBinAddr: 0x10009E1E0, symSize: 0x0 }
  - { offsetInCU: 0x7F401, offset: 0x7F401, size: 0x8, addend: 0x0, symName: __ZN7tinyobj25ParseTextureNameAndOptionEPNSt3__112basic_stringIcNS0_11char_traitsIcEENS0_9allocatorIcEEEEPNS_16texture_option_tEPKc, symObjAddr: 0x30, symBinAddr: 0x100000970, symSize: 0x950 }
  - { offsetInCU: 0x7F49F, offset: 0x7F49F, size: 0x8, addend: 0x0, symName: __ZN7tinyobjL10parseOnOffEPPKcb, symObjAddr: 0x9A0, symBinAddr: 0x1000012E0, symSize: 0xE0 }
  - { offsetInCU: 0x7F4FD, offset: 0x7F4FD, size: 0x8, addend: 0x0, symName: __ZN7tinyobjL9parseRealEPPKcd, symObjAddr: 0xA80, symBinAddr: 0x1000013C0, symSize: 0xA0 }
  - { offsetInCU: 0x7F56B, offset: 0x7F56B, size: 0x8, addend: 0x0, symName: __ZN7tinyobjL10parseReal3EPfS0_S0_PPKcddd, symObjAddr: 0xB20, symBinAddr: 0x100001460, symSize: 0x70 }
  - { offsetInCU: 0x7F5F0, offset: 0x7F5F0, size: 0x8, addend: 0x0, symName: __ZN7tinyobjL16parseTextureTypeEPPKcNS_14texture_type_tE, symObjAddr: 0xB90, symBinAddr: 0x1000014D0, symSize: 0x1E0 }
  - { offsetInCU: 0x7F64E, offset: 0x7F64E, size: 0x8, addend: 0x0, symName: __ZN7tinyobjL8parseIntEPPKc, symObjAddr: 0xD70, symBinAddr: 0x1000016B0, symSize: 0x70 }
  - { offsetInCU: 0x7F68D, offset: 0x7F68D, size: 0x8, addend: 0x0, symName: __ZN7tinyobjL10parseReal2EPfS0_PPKcdd, symObjAddr: 0xDE0, symBinAddr: 0x100001720, symSize: 0x50 }
  - { offsetInCU: 0x7F6F4, offset: 0x7F6F4, size: 0x8, addend: 0x0, symName: __ZN7tinyobjL11parseStringEPPKc, symObjAddr: 0xE30, symBinAddr: 0x100001770, symSize: 0x110 }
  - { offsetInCU: 0x7F744, offset: 0x7F744, size: 0x8, addend: 0x0, symName: __ZN7tinyobj7LoadMtlEPNSt3__13mapINS0_12basic_stringIcNS0_11char_traitsIcEENS0_9allocatorIcEEEEiNS0_4lessIS7_EENS5_INS0_4pairIKS7_iEEEEEEPNS0_6vectorINS_10material_tENS5_ISH_EEEEPNS0_13basic_istreamIcS4_EEPS7_SO_, symObjAddr: 0xFC0, symBinAddr: 0x100001900, symSize: 0x1E30 }
  - { offsetInCU: 0x7F9E7, offset: 0x7F9E7, size: 0x8, addend: 0x0, symName: __ZN7tinyobjL12InitMaterialEPNS_10material_tE, symObjAddr: 0x2E10, symBinAddr: 0x100003750, symSize: 0x370 }
  - { offsetInCU: 0x7FA31, offset: 0x7FA31, size: 0x8, addend: 0x0, symName: __ZN7tinyobjL11safeGetlineERNSt3__113basic_istreamIcNS0_11char_traitsIcEEEERNS0_12basic_stringIcS3_NS0_9allocatorIcEEEE, symObjAddr: 0x3280, symBinAddr: 0x100003BC0, symSize: 0x130 }
  - { offsetInCU: 0x7FB34, offset: 0x7FB34, size: 0x8, addend: 0x0, symName: __ZN7tinyobjL8JoinPathERKNSt3__112basic_stringIcNS0_11char_traitsIcEENS0_9allocatorIcEEEES8_, symObjAddr: 0x4440, symBinAddr: 0x100004D80, symSize: 0x140 }
  - { offsetInCU: 0x7FC0E, offset: 0x7FC0E, size: 0x8, addend: 0x0, symName: __ZN7tinyobj7LoadObjEPNS_8attrib_tEPNSt3__16vectorINS_7shape_tENS2_9allocatorIS4_EEEEPNS3_INS_10material_tENS5_IS9_EEEEPNS2_12basic_stringIcNS2_11char_traitsIcEENS5_IcEEEESI_PKcSK_bb, symObjAddr: 0x4950, symBinAddr: 0x100005290, symSize: 0x440 }
  - { offsetInCU: 0x7FD20, offset: 0x7FD20, size: 0x8, addend: 0x0, symName: __ZN7tinyobj7LoadObjEPNS_8attrib_tEPNSt3__16vectorINS_7shape_tENS2_9allocatorIS4_EEEEPNS3_INS_10material_tENS5_IS9_EEEEPNS2_12basic_stringIcNS2_11char_traitsIcEENS5_IcEEEESI_PNS2_13basic_istreamIcSF_EEPNS_14MaterialReaderEbb, symObjAddr: 0x4E70, symBinAddr: 0x1000057B0, symSize: 0x30E0 }
  - { offsetInCU: 0x804FE, offset: 0x804FE, size: 0x8, addend: 0x0, symName: __ZN7tinyobjL20parseVertexWithColorEPfS0_S0_S0_S0_S0_PPKcddd, symObjAddr: 0x8050, symBinAddr: 0x100008990, symSize: 0x180 }
  - { offsetInCU: 0x805E9, offset: 0x805E9, size: 0x8, addend: 0x0, symName: __ZN7tinyobjL11parseTripleEPPKciiiPNS_14vertex_index_tERKNS_15warning_contextE, symObjAddr: 0x8370, symBinAddr: 0x100008CB0, symSize: 0x270 }
  - { offsetInCU: 0x80673, offset: 0x80673, size: 0x8, addend: 0x0, symName: __ZN7tinyobjL8toStringImEENSt3__112basic_stringIcNS1_11char_traitsIcEENS1_9allocatorIcEEEERKT_, symObjAddr: 0x86A0, symBinAddr: 0x100008FE0, symSize: 0xB0 }
  - { offsetInCU: 0x806BC, offset: 0x806BC, size: 0x8, addend: 0x0, symName: __ZN7tinyobjL19exportGroupsToShapeEPNS_7shape_tERKNS_9PrimGroupERKNSt3__16vectorINS_5tag_tENS5_9allocatorIS7_EEEEiRKNS5_12basic_stringIcNS5_11char_traitsIcEENS8_IcEEEEbRKNS6_IfNS8_IfEEEEPSH_, symObjAddr: 0x8B60, symBinAddr: 0x1000094A0, symSize: 0x1AB0 }
  - { offsetInCU: 0x80F18, offset: 0x80F18, size: 0x8, addend: 0x0, symName: __ZN7tinyobjL11SplitStringERKNSt3__112basic_stringIcNS0_11char_traitsIcEENS0_9allocatorIcEEEEccRNS0_6vectorIS6_NS4_IS6_EEEE, symObjAddr: 0xA650, symBinAddr: 0x10000AF90, symSize: 0x150 }
  - { offsetInCU: 0x80FBF, offset: 0x80FBF, size: 0x8, addend: 0x0, symName: __ZN7tinyobjL14parseTagTripleEPPKc, symObjAddr: 0xA9C0, symBinAddr: 0x10000B300, symSize: 0x130 }
  - { offsetInCU: 0x80FFD, offset: 0x80FFD, size: 0x8, addend: 0x0, symName: __ZN7tinyobj19LoadObjWithCallbackERNSt3__113basic_istreamIcNS0_11char_traitsIcEEEERKNS_10callback_tEPvPNS_14MaterialReaderEPNS0_12basic_stringIcS3_NS0_9allocatorIcEEEESG_, symObjAddr: 0xAEF0, symBinAddr: 0x10000B830, symSize: 0x1610 }
  - { offsetInCU: 0x813E2, offset: 0x813E2, size: 0x8, addend: 0x0, symName: __ZN7tinyobjL14parseRawTripleEPPKc, symObjAddr: 0xC690, symBinAddr: 0x10000CFD0, symSize: 0x160 }
  - { offsetInCU: 0x81654, offset: 0x81654, size: 0x8, addend: 0x0, symName: __ZN7tinyobjL10InitTexOptEPNS_16texture_option_tEb, symObjAddr: 0x24C20, symBinAddr: 0x100025560, symSize: 0x120 }
  - { offsetInCU: 0x8168E, offset: 0x8168E, size: 0x8, addend: 0x0, symName: __ZN7tinyobjL9parseRealEPPKcPf, symObjAddr: 0x2D4A0, symBinAddr: 0x10002DDE0, symSize: 0xC0 }
  - { offsetInCU: 0x8171B, offset: 0x8171B, size: 0x8, addend: 0x0, symName: __ZN7tinyobjL8fixIndexEiiPibRKNS_15warning_contextE, symObjAddr: 0x32AF0, symBinAddr: 0x100033430, symSize: 0x1B0 }
  - { offsetInCU: 0x81786, offset: 0x81786, size: 0x8, addend: 0x0, symName: __ZN7tinyobjL6pnpolyIfEEiiPT_S2_S1_S1_, symObjAddr: 0x39DD0, symBinAddr: 0x10003A710, symSize: 0x110 }
  - { offsetInCU: 0x81943, offset: 0x81943, size: 0x8, addend: 0x0, symName: __ZL36stbi__vertically_flip_on_load_global, symObjAddr: 0x40C978, symBinAddr: 0x1000AE880, symSize: 0x0 }
  - { offsetInCU: 0x8195E, offset: 0x8195E, size: 0x8, addend: 0x0, symName: __ZL21stbi__stdio_callbacks, symObjAddr: 0x9B2C0, symBinAddr: 0x1000AC030, symSize: 0x0 }
  - { offsetInCU: 0x819E2, offset: 0x819E2, size: 0x8, addend: 0x0, symName: __ZL22stbi__check_png_headerP13stbi__context, symObjAddr: 0x507D0, symBinAddr: 0x100051110, symSize: 0x80 }
  - { offsetInCU: 0x81A0E, offset: 0x81A0E, size: 0x8, addend: 0x0, symName: __ZZL22stbi__check_png_headerP13stbi__contextE7png_sig, symObjAddr: 0x9C130, symBinAddr: 0x10009E220, symSize: 0x0 }
  - { offsetInCU: 0x81A55, offset: 0x81A55, size: 0x8, addend: 0x0, symName: __ZL20stbi__parse_png_fileP9stbi__pngii, symObjAddr: 0x50C50, symBinAddr: 0x100051590, symSize: 0x1110 }
  - { offsetInCU: 0x81A81, offset: 0x81A81, size: 0x8, addend: 0x0, symName: __ZZL20stbi__parse_png_fileP9stbi__pngiiE13invalid_chunk, symObjAddr: 0x9B2E0, symBinAddr: 0x1000AC050, symSize: 0x0 }
  - { offsetInCU: 0x81C87, offset: 0x81C87, size: 0x8, addend: 0x0, symName: __ZL23stbi__depth_scale_table, symObjAddr: 0x9C138, symBinAddr: 0x10009E228, symSize: 0x0 }
  - { offsetInCU: 0x81CAE, offset: 0x81CAE, size: 0x8, addend: 0x0, symName: __ZL16first_row_filter, symObjAddr: 0x9B2F9, symBinAddr: 0x1000AC069, symSize: 0x0 }
  - { offsetInCU: 0x81CC8, offset: 0x81CC8, size: 0x8, addend: 0x0, symName: __ZL17stbi__shiftsignedjii, symObjAddr: 0x55180, symBinAddr: 0x100055AC0, symSize: 0x100 }
  - { offsetInCU: 0x81CF4, offset: 0x81CF4, size: 0x8, addend: 0x0, symName: __ZZL17stbi__shiftsignedjiiE9mul_table, symObjAddr: 0x9B300, symBinAddr: 0x1000AC070, symSize: 0x0 }
  - { offsetInCU: 0x81D0B, offset: 0x81D0B, size: 0x8, addend: 0x0, symName: __ZZL17stbi__shiftsignedjiiE11shift_table, symObjAddr: 0x9B330, symBinAddr: 0x1000AC0A0, symSize: 0x0 }
  - { offsetInCU: 0x81D4F, offset: 0x81D4F, size: 0x8, addend: 0x0, symName: __ZL20stbi__process_markerP10stbi__jpegi, symObjAddr: 0x5D2C0, symBinAddr: 0x10005DC00, symSize: 0x740 }
  - { offsetInCU: 0x81D7B, offset: 0x81D7B, size: 0x8, addend: 0x0, symName: __ZZL20stbi__process_markerP10stbi__jpegiE3tag, symObjAddr: 0x9C21F, symBinAddr: 0x10009E30F, symSize: 0x0 }
  - { offsetInCU: 0x81D92, offset: 0x81D92, size: 0x8, addend: 0x0, symName: __ZZL20stbi__process_markerP10stbi__jpegiE3tag_0, symObjAddr: 0x9C224, symBinAddr: 0x10009E314, symSize: 0x0 }
  - { offsetInCU: 0x81F44, offset: 0x81F44, size: 0x8, addend: 0x0, symName: __ZL19stbi__jpeg_dezigzag, symObjAddr: 0x9C1D0, symBinAddr: 0x10009E2C0, symSize: 0x0 }
  - { offsetInCU: 0x81F5E, offset: 0x81F5E, size: 0x8, addend: 0x0, symName: __ZL26stbi__process_frame_headerP10stbi__jpegi, symObjAddr: 0x5DA00, symBinAddr: 0x10005E340, symSize: 0xA00 }
  - { offsetInCU: 0x81F8A, offset: 0x81F8A, size: 0x8, addend: 0x0, symName: __ZZL26stbi__process_frame_headerP10stbi__jpegiE3rgb, symObjAddr: 0x9C22A, symBinAddr: 0x10009E31A, symSize: 0x0 }
  - { offsetInCU: 0x8204C, offset: 0x8204C, size: 0x8, addend: 0x0, symName: __ZL11stbi__bmask, symObjAddr: 0x9C230, symBinAddr: 0x10009E320, symSize: 0x0 }
  - { offsetInCU: 0x82084, offset: 0x82084, size: 0x8, addend: 0x0, symName: __ZL11stbi__jbias, symObjAddr: 0x9C280, symBinAddr: 0x10009E370, symSize: 0x0 }
  - { offsetInCU: 0x820AB, offset: 0x820AB, size: 0x8, addend: 0x0, symName: __ZL15stbi__l2h_gamma, symObjAddr: 0x9B2AC, symBinAddr: 0x1000AC01C, symSize: 0x0 }
  - { offsetInCU: 0x820C6, offset: 0x820C6, size: 0x8, addend: 0x0, symName: __ZL15stbi__l2h_scale, symObjAddr: 0x9B2B0, symBinAddr: 0x1000AC020, symSize: 0x0 }
  - { offsetInCU: 0x820E1, offset: 0x820E1, size: 0x8, addend: 0x0, symName: __ZL17stbi__h2l_gamma_i, symObjAddr: 0x9B2B4, symBinAddr: 0x1000AC024, symSize: 0x0 }
  - { offsetInCU: 0x820FC, offset: 0x820FC, size: 0x8, addend: 0x0, symName: __ZL17stbi__h2l_scale_i, symObjAddr: 0x9B2B8, symBinAddr: 0x1000AC028, symSize: 0x0 }
  - { offsetInCU: 0x82117, offset: 0x82117, size: 0x8, addend: 0x0, symName: __ZL21stbi__zdefault_length, symObjAddr: 0x9C2C0, symBinAddr: 0x10009E3B0, symSize: 0x0 }
  - { offsetInCU: 0x82140, offset: 0x82140, size: 0x8, addend: 0x0, symName: __ZL23stbi__zdefault_distance, symObjAddr: 0x9C3E0, symBinAddr: 0x10009E4D0, symSize: 0x0 }
  - { offsetInCU: 0x8215A, offset: 0x8215A, size: 0x8, addend: 0x0, symName: __ZL27stbi__compute_huffman_codesP10stbi__zbuf, symObjAddr: 0x63E60, symBinAddr: 0x1000647A0, symSize: 0x400 }
  - { offsetInCU: 0x82186, offset: 0x82186, size: 0x8, addend: 0x0, symName: __ZZL27stbi__compute_huffman_codesP10stbi__zbufE15length_dezigzag, symObjAddr: 0x9C400, symBinAddr: 0x10009E4F0, symSize: 0x0 }
  - { offsetInCU: 0x822B3, offset: 0x822B3, size: 0x8, addend: 0x0, symName: __ZL18stbi__zlength_base, symObjAddr: 0x9C420, symBinAddr: 0x10009E510, symSize: 0x0 }
  - { offsetInCU: 0x822DA, offset: 0x822DA, size: 0x8, addend: 0x0, symName: __ZL19stbi__zlength_extra, symObjAddr: 0x9C4A0, symBinAddr: 0x10009E590, symSize: 0x0 }
  - { offsetInCU: 0x822F5, offset: 0x822F5, size: 0x8, addend: 0x0, symName: __ZL16stbi__zdist_base, symObjAddr: 0x9C520, symBinAddr: 0x10009E610, symSize: 0x0 }
  - { offsetInCU: 0x8231C, offset: 0x8231C, size: 0x8, addend: 0x0, symName: __ZL17stbi__zdist_extra, symObjAddr: 0x9C5A0, symBinAddr: 0x10009E690, symSize: 0x0 }
  - { offsetInCU: 0x82337, offset: 0x82337, size: 0x8, addend: 0x0, symName: __ZL34stbi__unpremultiply_on_load_global, symObjAddr: 0x40C97C, symBinAddr: 0x1000AE884, symSize: 0x0 }
  - { offsetInCU: 0x82352, offset: 0x82352, size: 0x8, addend: 0x0, symName: __ZL27stbi__de_iphone_flag_global, symObjAddr: 0x40C980, symBinAddr: 0x1000AE888, symSize: 0x0 }
  - { offsetInCU: 0x83AE9, offset: 0x83AE9, size: 0x8, addend: 0x0, symName: __Z3powB8ue170006IdiENSt3__19enable_ifIXaasr3std13is_arithmeticIT_EE5valuesr3std13is_arithmeticIT0_EE5valueENS0_9__promoteIS2_S3_vEEE4type4typeES2_S3_, symObjAddr: 0x239F0, symBinAddr: 0x100024330, symSize: 0x30 }
  - { offsetInCU: 0x84251, offset: 0x84251, size: 0x8, addend: 0x0, symName: __ZNSt3__16vectorIN7tinyobj10material_tENS_9allocatorIS2_EEE26__swap_out_circular_bufferERNS_14__split_bufferIS2_RS4_EE, symObjAddr: 0x286B0, symBinAddr: 0x100028FF0, symSize: 0x120 }
  - { offsetInCU: 0x8445B, offset: 0x8445B, size: 0x8, addend: 0x0, symName: __ZNSt3__16vectorINS_12basic_stringIcNS_11char_traitsIcEENS_9allocatorIcEEEENS4_IS6_EEE26__swap_out_circular_bufferERNS_14__split_bufferIS6_RS7_EE, symObjAddr: 0x2A9F0, symBinAddr: 0x10002B330, symSize: 0x120 }
  - { offsetInCU: 0x84C47, offset: 0x84C47, size: 0x8, addend: 0x0, symName: __ZNSt3__16vectorIfNS_9allocatorIfEEE26__swap_out_circular_bufferERNS_14__split_bufferIfRS2_EE, symObjAddr: 0x2D900, symBinAddr: 0x10002E240, symSize: 0x120 }
  - { offsetInCU: 0x84E14, offset: 0x84E14, size: 0x8, addend: 0x0, symName: __ZNSt3__16vectorIN7tinyobj18joint_and_weight_tENS_9allocatorIS2_EEE26__swap_out_circular_bufferERNS_14__split_bufferIS2_RS4_EE, symObjAddr: 0x2F060, symBinAddr: 0x10002F9A0, symSize: 0x120 }
  - { offsetInCU: 0x84FF1, offset: 0x84FF1, size: 0x8, addend: 0x0, symName: __ZNSt3__16vectorIN7tinyobj13skin_weight_tENS_9allocatorIS2_EEE26__swap_out_circular_bufferERNS_14__split_bufferIS2_RS4_EE, symObjAddr: 0x313A0, symBinAddr: 0x100031CE0, symSize: 0x120 }
  - { offsetInCU: 0x85200, offset: 0x85200, size: 0x8, addend: 0x0, symName: __ZNSt3__16vectorIN7tinyobj14vertex_index_tENS_9allocatorIS2_EEE26__swap_out_circular_bufferERNS_14__split_bufferIS2_RS4_EE, symObjAddr: 0x33100, symBinAddr: 0x100033A40, symSize: 0x120 }
  - { offsetInCU: 0x853DD, offset: 0x853DD, size: 0x8, addend: 0x0, symName: __ZNSt3__16vectorIN7tinyobj8__line_tENS_9allocatorIS2_EEE26__swap_out_circular_bufferERNS_14__split_bufferIS2_RS4_EE, symObjAddr: 0x35480, symBinAddr: 0x100035DC0, symSize: 0x120 }
  - { offsetInCU: 0x855D8, offset: 0x855D8, size: 0x8, addend: 0x0, symName: __ZNSt3__16vectorIN7tinyobj10__points_tENS_9allocatorIS2_EEE26__swap_out_circular_bufferERNS_14__split_bufferIS2_RS4_EE, symObjAddr: 0x36ED0, symBinAddr: 0x100037810, symSize: 0x120 }
  - { offsetInCU: 0x857D8, offset: 0x857D8, size: 0x8, addend: 0x0, symName: __ZNSt3__16vectorIN7tinyobj6face_tENS_9allocatorIS2_EEE26__swap_out_circular_bufferERNS_14__split_bufferIS2_RS4_EE, symObjAddr: 0x387D0, symBinAddr: 0x100039110, symSize: 0x120 }
  - { offsetInCU: 0x8586C, offset: 0x8586C, size: 0x8, addend: 0x0, symName: __ZNSt3__16vectorIjNS_9allocatorIjEEE26__swap_out_circular_bufferERNS_14__split_bufferIjRS2_EE, symObjAddr: 0x3A450, symBinAddr: 0x10003AD90, symSize: 0x120 }
  - { offsetInCU: 0x858C3, offset: 0x858C3, size: 0x8, addend: 0x0, symName: __ZNSt3__16vectorIiNS_9allocatorIiEEE26__swap_out_circular_bufferERNS_14__split_bufferIiRS2_EE, symObjAddr: 0x3BB50, symBinAddr: 0x10003C490, symSize: 0x120 }
  - { offsetInCU: 0x85A3A, offset: 0x85A3A, size: 0x8, addend: 0x0, symName: __ZNSt3__16vectorIN7tinyobj7shape_tENS_9allocatorIS2_EEE26__swap_out_circular_bufferERNS_14__split_bufferIS2_RS4_EE, symObjAddr: 0x446C0, symBinAddr: 0x100045000, symSize: 0x120 }
  - { offsetInCU: 0x85ACE, offset: 0x85ACE, size: 0x8, addend: 0x0, symName: __ZNSt3__16vectorIN7tinyobj5tag_tENS_9allocatorIS2_EEE26__swap_out_circular_bufferERNS_14__split_bufferIS2_RS4_EE, symObjAddr: 0x477E0, symBinAddr: 0x100048120, symSize: 0x120 }
  - { offsetInCU: 0x85B62, offset: 0x85B62, size: 0x8, addend: 0x0, symName: __ZNSt3__16vectorIN7tinyobj7index_tENS_9allocatorIS2_EEE26__swap_out_circular_bufferERNS_14__split_bufferIS2_RS4_EE, symObjAddr: 0x494B0, symBinAddr: 0x100049DF0, symSize: 0x120 }
  - { offsetInCU: 0x85BC8, offset: 0x85BC8, size: 0x8, addend: 0x0, symName: __ZNSt3__16vectorIPKcNS_9allocatorIS2_EEE26__swap_out_circular_bufferERNS_14__split_bufferIS2_RS4_EE, symObjAddr: 0x4A830, symBinAddr: 0x10004B170, symSize: 0x120 }
  - { offsetInCU: 0x866D1, offset: 0x866D1, size: 0x8, addend: 0x0, symName: __ZNSt3__16vectorIP10VkBuffer_TNS_9allocatorIS2_EEE26__swap_out_circular_bufferERNS_14__split_bufferIS2_RS4_EE, symObjAddr: 0x68340, symBinAddr: 0x100068C80, symSize: 0x120 }
  - { offsetInCU: 0x86728, offset: 0x86728, size: 0x8, addend: 0x0, symName: __ZNSt3__16vectorIP16VkDeviceMemory_TNS_9allocatorIS2_EEE26__swap_out_circular_bufferERNS_14__split_bufferIS2_RS4_EE, symObjAddr: 0x69D70, symBinAddr: 0x10006A6B0, symSize: 0x120 }
  - { offsetInCU: 0x8677F, offset: 0x8677F, size: 0x8, addend: 0x0, symName: __ZNSt3__16vectorIPvNS_9allocatorIS1_EEE26__swap_out_circular_bufferERNS_14__split_bufferIS1_RS3_EE, symObjAddr: 0x6B7A0, symBinAddr: 0x10006C0E0, symSize: 0x120 }
  - { offsetInCU: 0x86B27, offset: 0x86B27, size: 0x8, addend: 0x0, symName: __ZNSt3__16vectorIP17VkDescriptorSet_TNS_9allocatorIS2_EEE26__swap_out_circular_bufferERNS_14__split_bufferIS2_RS4_EE, symObjAddr: 0x6F600, symBinAddr: 0x10006FF40, symSize: 0x120 }
  - { offsetInCU: 0x8719C, offset: 0x8719C, size: 0x8, addend: 0x0, symName: __ZNSt3__16vectorI18VkSurfaceFormatKHRNS_9allocatorIS1_EEE26__swap_out_circular_bufferERNS_14__split_bufferIS1_RS3_EE, symObjAddr: 0x75850, symBinAddr: 0x100076190, symSize: 0x120 }
  - { offsetInCU: 0x87382, offset: 0x87382, size: 0x8, addend: 0x0, symName: __ZNSt3__16vectorI16VkPresentModeKHRNS_9allocatorIS1_EEE26__swap_out_circular_bufferERNS_14__split_bufferIS1_RS3_EE, symObjAddr: 0x77280, symBinAddr: 0x100077BC0, symSize: 0x120 }
  - { offsetInCU: 0x876DE, offset: 0x876DE, size: 0x8, addend: 0x0, symName: __ZNSt3__16vectorI23VkDeviceQueueCreateInfoNS_9allocatorIS1_EEE26__swap_out_circular_bufferERNS_14__split_bufferIS1_RS3_EE, symObjAddr: 0x79E30, symBinAddr: 0x10007A770, symSize: 0x120 }
  - { offsetInCU: 0x8773A, offset: 0x8773A, size: 0x8, addend: 0x0, symName: __ZNSt3__16vectorIP9VkImage_TNS_9allocatorIS2_EEE26__swap_out_circular_bufferERNS_14__split_bufferIS2_RS4_EE, symObjAddr: 0x7B9A0, symBinAddr: 0x10007C2E0, symSize: 0x120 }
  - { offsetInCU: 0x87791, offset: 0x87791, size: 0x8, addend: 0x0, symName: __ZNSt3__16vectorIP13VkImageView_TNS_9allocatorIS2_EEE26__swap_out_circular_bufferERNS_14__split_bufferIS2_RS4_EE, symObjAddr: 0x7D3B0, symBinAddr: 0x10007DCF0, symSize: 0x120 }
  - { offsetInCU: 0x878CD, offset: 0x878CD, size: 0x8, addend: 0x0, symName: __ZNSt3__16vectorIP15VkFramebuffer_TNS_9allocatorIS2_EEE26__swap_out_circular_bufferERNS_14__split_bufferIS2_RS4_EE, symObjAddr: 0x80F50, symBinAddr: 0x100081890, symSize: 0x120 }
  - { offsetInCU: 0x87924, offset: 0x87924, size: 0x8, addend: 0x0, symName: __ZNSt3__16vectorIP17VkCommandBuffer_TNS_9allocatorIS2_EEE26__swap_out_circular_bufferERNS_14__split_bufferIS2_RS4_EE, symObjAddr: 0x82980, symBinAddr: 0x1000832C0, symSize: 0x120 }
  - { offsetInCU: 0x8797B, offset: 0x8797B, size: 0x8, addend: 0x0, symName: __ZNSt3__16vectorIP13VkSemaphore_TNS_9allocatorIS2_EEE26__swap_out_circular_bufferERNS_14__split_bufferIS2_RS4_EE, symObjAddr: 0x843B0, symBinAddr: 0x100084CF0, symSize: 0x120 }
  - { offsetInCU: 0x879D2, offset: 0x879D2, size: 0x8, addend: 0x0, symName: __ZNSt3__16vectorIP9VkFence_TNS_9allocatorIS2_EEE26__swap_out_circular_bufferERNS_14__split_bufferIS2_RS4_EE, symObjAddr: 0x85DE0, symBinAddr: 0x100086720, symSize: 0x120 }
  - { offsetInCU: 0x87A29, offset: 0x87A29, size: 0x8, addend: 0x0, symName: __ZNSt3__16vectorI7Vertex_NS_9allocatorIS1_EEE26__swap_out_circular_bufferERNS_14__split_bufferIS1_RS3_EE, symObjAddr: 0x88670, symBinAddr: 0x100088FB0, symSize: 0x120 }
  - { offsetInCU: 0x87A8F, offset: 0x87A8F, size: 0x8, addend: 0x0, symName: __ZNKSt3__16chrono15__duration_castINS0_8durationIxNS_5ratioILl1ELl1000000000EEEEENS2_IfNS3_ILl1ELl1EEEEES4_Lb1ELb0EEclB8ue170006ERKS5_, symObjAddr: 0x89E40, symBinAddr: 0x10008A780, symSize: 0x50 }
  - { offsetInCU: 0x8AA15, offset: 0x8AA15, size: 0x8, addend: 0x0, symName: __ZN7tinyobj14MaterialReaderD2Ev, symObjAddr: 0x0, symBinAddr: 0x100000940, symSize: 0x10 }
  - { offsetInCU: 0x8AA41, offset: 0x8AA41, size: 0x8, addend: 0x0, symName: __ZN7tinyobj14MaterialReaderD1Ev, symObjAddr: 0x10, symBinAddr: 0x100000950, symSize: 0x10 }
  - { offsetInCU: 0x8AA6D, offset: 0x8AA6D, size: 0x8, addend: 0x0, symName: __ZN7tinyobj14MaterialReaderD0Ev, symObjAddr: 0x20, symBinAddr: 0x100000960, symSize: 0x10 }
  - { offsetInCU: 0x8AA99, offset: 0x8AA99, size: 0x8, addend: 0x0, symName: __ZNSt3__112basic_stringIcNS_11char_traitsIcEENS_9allocatorIcEEEC1B8ue170006Ev, symObjAddr: 0x980, symBinAddr: 0x1000012C0, symSize: 0x20 }
  - { offsetInCU: 0x8AAC3, offset: 0x8AAC3, size: 0x8, addend: 0x0, symName: __ZNSt3__112basic_stringIcNS_11char_traitsIcEENS_9allocatorIcEEEaSB8ue170006EOS5_, symObjAddr: 0xF40, symBinAddr: 0x100001880, symSize: 0x30 }
  - { offsetInCU: 0x8AAFD, offset: 0x8AAFD, size: 0x8, addend: 0x0, symName: __ZNSt3__112basic_stringIcNS_11char_traitsIcEENS_9allocatorIcEEEC1B8ue170006ILi0EEEPKc, symObjAddr: 0xF70, symBinAddr: 0x1000018B0, symSize: 0x30 }
  - { offsetInCU: 0x8AB3C, offset: 0x8AB3C, size: 0x8, addend: 0x0, symName: __ZNKSt3__112basic_stringIcNS_11char_traitsIcEENS_9allocatorIcEEE6lengthB8ue170006Ev, symObjAddr: 0xFA0, symBinAddr: 0x1000018E0, symSize: 0x20 }
  - { offsetInCU: 0x8AB67, offset: 0x8AB67, size: 0x8, addend: 0x0, symName: __ZN7tinyobj10material_tC1Ev, symObjAddr: 0x2DF0, symBinAddr: 0x100003730, symSize: 0x20 }
  - { offsetInCU: 0x8AC81, offset: 0x8AC81, size: 0x8, addend: 0x0, symName: __ZNSt3__118basic_stringstreamIcNS_11char_traitsIcEENS_9allocatorIcEEEC1B8ue170006Ev, symObjAddr: 0x3180, symBinAddr: 0x100003AC0, symSize: 0x100 }
  - { offsetInCU: 0x8ACAB, offset: 0x8ACAB, size: 0x8, addend: 0x0, symName: __ZNKSt3__112basic_stringIcNS_11char_traitsIcEENS_9allocatorIcEEE4sizeB8ue170006Ev, symObjAddr: 0x33B0, symBinAddr: 0x100003CF0, symSize: 0x50 }
  - { offsetInCU: 0x8ACD1, offset: 0x8ACD1, size: 0x8, addend: 0x0, symName: __ZNKSt3__112basic_stringIcNS_11char_traitsIcEENS_9allocatorIcEEE6substrB8ue170006Emm, symObjAddr: 0x3400, symBinAddr: 0x100003D40, symSize: 0x70 }
  - { offsetInCU: 0x8AD15, offset: 0x8AD15, size: 0x8, addend: 0x0, symName: __ZNKSt3__112basic_stringIcNS_11char_traitsIcEENS_9allocatorIcEEE16find_last_not_ofB8ue170006EPKcm, symObjAddr: 0x3470, symBinAddr: 0x100003DB0, symSize: 0x70 }
  - { offsetInCU: 0x8AD5B, offset: 0x8AD5B, size: 0x8, addend: 0x0, symName: __ZNSt3__112basic_stringIcNS_11char_traitsIcEENS_9allocatorIcEEEixB8ue170006Em, symObjAddr: 0x34E0, symBinAddr: 0x100003E20, symSize: 0x30 }
  - { offsetInCU: 0x8AD90, offset: 0x8AD90, size: 0x8, addend: 0x0, symName: __ZNKSt3__112basic_stringIcNS_11char_traitsIcEENS_9allocatorIcEEE5emptyB8ue170006Ev, symObjAddr: 0x3510, symBinAddr: 0x100003E50, symSize: 0x30 }
  - { offsetInCU: 0x8ADB6, offset: 0x8ADB6, size: 0x8, addend: 0x0, symName: __ZNKSt3__112basic_stringIcNS_11char_traitsIcEENS_9allocatorIcEEE5c_strB8ue170006Ev, symObjAddr: 0x3540, symBinAddr: 0x100003E80, symSize: 0x20 }
  - { offsetInCU: 0x8ADF6, offset: 0x8ADF6, size: 0x8, addend: 0x0, symName: __ZNSt3__13mapINS_12basic_stringIcNS_11char_traitsIcEENS_9allocatorIcEEEEiNS_4lessIS6_EENS4_INS_4pairIKS6_iEEEEE6insertB8ue170006INS9_IS6_iEEvEENS9_INS_14__map_iteratorINS_15__tree_iteratorINS_12__value_typeIS6_iEEPNS_11__tree_nodeISJ_PvEElEEEEbEEOT_, symObjAddr: 0x3560, symBinAddr: 0x100003EA0, symSize: 0x40 }
  - { offsetInCU: 0x8AE35, offset: 0x8AE35, size: 0x8, addend: 0x0, symName: __ZNKSt3__16vectorIN7tinyobj10material_tENS_9allocatorIS2_EEE4sizeB8ue170006Ev, symObjAddr: 0x35A0, symBinAddr: 0x100003EE0, symSize: 0x30 }
  - { offsetInCU: 0x8AE61, offset: 0x8AE61, size: 0x8, addend: 0x0, symName: __ZNSt3__14pairINS_12basic_stringIcNS_11char_traitsIcEENS_9allocatorIcEEEEiEC1B8ue170006IRS6_iLPv0EEEOT_OT0_, symObjAddr: 0x35D0, symBinAddr: 0x100003F10, symSize: 0x30 }
  - { offsetInCU: 0x8AEBF, offset: 0x8AEBF, size: 0x8, addend: 0x0, symName: __ZNSt3__14pairINS_12basic_stringIcNS_11char_traitsIcEENS_9allocatorIcEEEEiED1Ev, symObjAddr: 0x3600, symBinAddr: 0x100003F40, symSize: 0x20 }
  - { offsetInCU: 0x8AEEB, offset: 0x8AEEB, size: 0x8, addend: 0x0, symName: __ZNSt3__16vectorIN7tinyobj10material_tENS_9allocatorIS2_EEE9push_backB8ue170006ERKS2_, symObjAddr: 0x3620, symBinAddr: 0x100003F60, symSize: 0x60 }
  - { offsetInCU: 0x8AF22, offset: 0x8AF22, size: 0x8, addend: 0x0, symName: __ZNSt3__112basic_stringIcNS_11char_traitsIcEENS_9allocatorIcEEEpLB8ue170006EPKc, symObjAddr: 0x3680, symBinAddr: 0x100003FC0, symSize: 0x30 }
  - { offsetInCU: 0x8AF57, offset: 0x8AF57, size: 0x8, addend: 0x0, symName: __ZNSt3__112basic_stringIcNS_11char_traitsIcEENS_9allocatorIcEEEaSB8ue170006EPKc, symObjAddr: 0x3740, symBinAddr: 0x100004080, symSize: 0x30 }
  - { offsetInCU: 0x8AF8B, offset: 0x8AF8B, size: 0x8, addend: 0x0, symName: __Z6strchrB8ue170006Ua9enable_ifIXLb1EEEPKci, symObjAddr: 0x3770, symBinAddr: 0x1000040B0, symSize: 0x30 }
  - { offsetInCU: 0x8AFC6, offset: 0x8AFC6, size: 0x8, addend: 0x0, symName: __ZNSt3__112basic_stringIcNS_11char_traitsIcEENS_9allocatorIcEEEC1B8ue170006EPKcm, symObjAddr: 0x37A0, symBinAddr: 0x1000040E0, symSize: 0x30 }
  - { offsetInCU: 0x8B028, offset: 0x8B028, size: 0x8, addend: 0x0, symName: __ZNSt3__13mapINS_12basic_stringIcNS_11char_traitsIcEENS_9allocatorIcEEEES6_NS_4lessIS6_EENS4_INS_4pairIKS6_S6_EEEEE6insertB8ue170006INS9_IS6_S6_EEvEENS9_INS_14__map_iteratorINS_15__tree_iteratorINS_12__value_typeIS6_S6_EEPNS_11__tree_nodeISJ_PvEElEEEEbEEOT_, symObjAddr: 0x37D0, symBinAddr: 0x100004110, symSize: 0x40 }
  - { offsetInCU: 0x8B067, offset: 0x8B067, size: 0x8, addend: 0x0, symName: __ZNSt3__14pairINS_12basic_stringIcNS_11char_traitsIcEENS_9allocatorIcEEEES6_EC1B8ue170006IRS6_S9_LPv0EEEOT_OT0_, symObjAddr: 0x3810, symBinAddr: 0x100004150, symSize: 0x30 }
  - { offsetInCU: 0x8B0C5, offset: 0x8B0C5, size: 0x8, addend: 0x0, symName: __ZNSt3__14pairINS_12basic_stringIcNS_11char_traitsIcEENS_9allocatorIcEEEES6_ED1Ev, symObjAddr: 0x3840, symBinAddr: 0x100004180, symSize: 0x20 }
  - { offsetInCU: 0x8B0F1, offset: 0x8B0F1, size: 0x8, addend: 0x0, symName: __ZNKRSt3__118basic_stringstreamIcNS_11char_traitsIcEENS_9allocatorIcEEE3strB8ue170006Ev, symObjAddr: 0x3860, symBinAddr: 0x1000041A0, symSize: 0x30 }
  - { offsetInCU: 0x8B11C, offset: 0x8B11C, size: 0x8, addend: 0x0, symName: __ZNSt3__118basic_stringstreamIcNS_11char_traitsIcEENS_9allocatorIcEEED1Ev, symObjAddr: 0x3890, symBinAddr: 0x1000041D0, symSize: 0x40 }
  - { offsetInCU: 0x8B149, offset: 0x8B149, size: 0x8, addend: 0x0, symName: __ZN7tinyobj10material_tD1Ev, symObjAddr: 0x38D0, symBinAddr: 0x100004210, symSize: 0x20 }
  - { offsetInCU: 0x8B17A, offset: 0x8B17A, size: 0x8, addend: 0x0, symName: __ZN7tinyobj18MaterialFileReaderclERKNSt3__112basic_stringIcNS1_11char_traitsIcEENS1_9allocatorIcEEEEPNS1_6vectorINS_10material_tENS5_ISB_EEEEPNS1_3mapIS7_iNS1_4lessIS7_EENS5_INS1_4pairIS8_iEEEEEEPS7_SN_, symObjAddr: 0x38F0, symBinAddr: 0x100004230, symSize: 0x770 }
  - { offsetInCU: 0x8B2E2, offset: 0x8B2E2, size: 0x8, addend: 0x0, symName: __ZNSt3__16vectorINS_12basic_stringIcNS_11char_traitsIcEENS_9allocatorIcEEEENS4_IS6_EEEC1B8ue170006Ev, symObjAddr: 0x4060, symBinAddr: 0x1000049A0, symSize: 0x20 }
  - { offsetInCU: 0x8B336, offset: 0x8B336, size: 0x8, addend: 0x0, symName: __ZNSt3__119basic_istringstreamIcNS_11char_traitsIcEENS_9allocatorIcEEEC1B8ue170006ERKNS_12basic_stringIcS2_S4_EEj, symObjAddr: 0x4080, symBinAddr: 0x1000049C0, symSize: 0xE0 }
  - { offsetInCU: 0x8B37E, offset: 0x8B37E, size: 0x8, addend: 0x0, symName: __ZNKSt3__19basic_iosIcNS_11char_traitsIcEEEcvbB8ue170006Ev, symObjAddr: 0x4380, symBinAddr: 0x100004CC0, symSize: 0x30 }
  - { offsetInCU: 0x8B3A4, offset: 0x8B3A4, size: 0x8, addend: 0x0, symName: __ZNSt3__16vectorINS_12basic_stringIcNS_11char_traitsIcEENS_9allocatorIcEEEENS4_IS6_EEE9push_backB8ue170006ERKS6_, symObjAddr: 0x43B0, symBinAddr: 0x100004CF0, symSize: 0x60 }
  - { offsetInCU: 0x8B3DB, offset: 0x8B3DB, size: 0x8, addend: 0x0, symName: __ZNKSt3__16vectorINS_12basic_stringIcNS_11char_traitsIcEENS_9allocatorIcEEEENS4_IS6_EEE4sizeB8ue170006Ev, symObjAddr: 0x4410, symBinAddr: 0x100004D50, symSize: 0x30 }
  - { offsetInCU: 0x8B401, offset: 0x8B401, size: 0x8, addend: 0x0, symName: __ZNSt3__16vectorINS_12basic_stringIcNS_11char_traitsIcEENS_9allocatorIcEEEENS4_IS6_EEEixB8ue170006Em, symObjAddr: 0x4580, symBinAddr: 0x100004EC0, symSize: 0x20 }
  - { offsetInCU: 0x8B4D2, offset: 0x8B4D2, size: 0x8, addend: 0x0, symName: __ZNSt3__114basic_ifstreamIcNS_11char_traitsIcEEEC1EPKcj, symObjAddr: 0x45A0, symBinAddr: 0x100004EE0, symSize: 0x160 }
  - { offsetInCU: 0x8B521, offset: 0x8B521, size: 0x8, addend: 0x0, symName: __ZNSt3__114basic_ifstreamIcNS_11char_traitsIcEEED1Ev, symObjAddr: 0x4700, symBinAddr: 0x100005040, symSize: 0x40 }
  - { offsetInCU: 0x8B54E, offset: 0x8B54E, size: 0x8, addend: 0x0, symName: __ZNSt3__112basic_stringIcNS_11char_traitsIcEENS_9allocatorIcEEEpLB8ue170006ERKS5_, symObjAddr: 0x4740, symBinAddr: 0x100005080, symSize: 0x30 }
  - { offsetInCU: 0x8B588, offset: 0x8B588, size: 0x8, addend: 0x0, symName: __ZNSt3__119basic_istringstreamIcNS_11char_traitsIcEENS_9allocatorIcEEED1Ev, symObjAddr: 0x4770, symBinAddr: 0x1000050B0, symSize: 0x40 }
  - { offsetInCU: 0x8B5B5, offset: 0x8B5B5, size: 0x8, addend: 0x0, symName: __ZNSt3__16vectorINS_12basic_stringIcNS_11char_traitsIcEENS_9allocatorIcEEEENS4_IS6_EEED1B8ue170006Ev, symObjAddr: 0x47B0, symBinAddr: 0x1000050F0, symSize: 0x20 }
  - { offsetInCU: 0x8B5E9, offset: 0x8B5E9, size: 0x8, addend: 0x0, symName: __ZN7tinyobj20MaterialStreamReaderclERKNSt3__112basic_stringIcNS1_11char_traitsIcEENS1_9allocatorIcEEEEPNS1_6vectorINS_10material_tENS5_ISB_EEEEPNS1_3mapIS7_iNS1_4lessIS7_EENS5_INS1_4pairIS8_iEEEEEEPS7_SN_, symObjAddr: 0x47D0, symBinAddr: 0x100005110, symSize: 0x160 }
  - { offsetInCU: 0x8B67C, offset: 0x8B67C, size: 0x8, addend: 0x0, symName: __ZNKSt3__19basic_iosIcNS_11char_traitsIcEEEntB8ue170006Ev, symObjAddr: 0x4930, symBinAddr: 0x100005270, symSize: 0x20 }
  - { offsetInCU: 0x8B6A2, offset: 0x8B6A2, size: 0x8, addend: 0x0, symName: __ZNSt3__16vectorIfNS_9allocatorIfEEE5clearB8ue170006Ev, symObjAddr: 0x4D90, symBinAddr: 0x1000056D0, symSize: 0x40 }
  - { offsetInCU: 0x8B6D8, offset: 0x8B6D8, size: 0x8, addend: 0x0, symName: __ZNSt3__16vectorIN7tinyobj7shape_tENS_9allocatorIS2_EEE5clearB8ue170006Ev, symObjAddr: 0x4DD0, symBinAddr: 0x100005710, symSize: 0x40 }
  - { offsetInCU: 0x8B70E, offset: 0x8B70E, size: 0x8, addend: 0x0, symName: __ZNSt3__112basic_stringIcNS_11char_traitsIcEENS_9allocatorIcEEEpLB8ue170006Ec, symObjAddr: 0x4E10, symBinAddr: 0x100005750, symSize: 0x30 }
  - { offsetInCU: 0x8B743, offset: 0x8B743, size: 0x8, addend: 0x0, symName: __ZN7tinyobj18MaterialFileReaderC1ERKNSt3__112basic_stringIcNS1_11char_traitsIcEENS1_9allocatorIcEEEE, symObjAddr: 0x4E40, symBinAddr: 0x100005780, symSize: 0x30 }
  - { offsetInCU: 0x8B77C, offset: 0x8B77C, size: 0x8, addend: 0x0, symName: __ZN7tinyobj18MaterialFileReaderD1Ev, symObjAddr: 0x7F50, symBinAddr: 0x100008890, symSize: 0x20 }
  - { offsetInCU: 0x8B7A6, offset: 0x8B7A6, size: 0x8, addend: 0x0, symName: __ZNSt3__16vectorIfNS_9allocatorIfEEEC1B8ue170006Ev, symObjAddr: 0x7F70, symBinAddr: 0x1000088B0, symSize: 0x20 }
  - { offsetInCU: 0x8B7D0, offset: 0x8B7D0, size: 0x8, addend: 0x0, symName: __ZNSt3__16vectorIN7tinyobj13skin_weight_tENS_9allocatorIS2_EEEC1B8ue170006Ev, symObjAddr: 0x7F90, symBinAddr: 0x1000088D0, symSize: 0x20 }
  - { offsetInCU: 0x8B7FA, offset: 0x8B7FA, size: 0x8, addend: 0x0, symName: __ZNSt3__16vectorIN7tinyobj5tag_tENS_9allocatorIS2_EEEC1B8ue170006Ev, symObjAddr: 0x7FB0, symBinAddr: 0x1000088F0, symSize: 0x20 }
  - { offsetInCU: 0x8B833, offset: 0x8B833, size: 0x8, addend: 0x0, symName: __ZN7tinyobj9PrimGroupC1Ev, symObjAddr: 0x7FD0, symBinAddr: 0x100008910, symSize: 0x20 }
  - { offsetInCU: 0x8B973, offset: 0x8B973, size: 0x8, addend: 0x0, symName: __ZNSt3__13setINS_12basic_stringIcNS_11char_traitsIcEENS_9allocatorIcEEEENS_4lessIS6_EENS4_IS6_EEEC1B8ue170006Ev, symObjAddr: 0x7FF0, symBinAddr: 0x100008930, symSize: 0x20 }
  - { offsetInCU: 0x8B99D, offset: 0x8B99D, size: 0x8, addend: 0x0, symName: __ZNSt3__13mapINS_12basic_stringIcNS_11char_traitsIcEENS_9allocatorIcEEEEiNS_4lessIS6_EENS4_INS_4pairIKS6_iEEEEEC1B8ue170006Ev, symObjAddr: 0x8010, symBinAddr: 0x100008950, symSize: 0x20 }
  - { offsetInCU: 0x8B9CC, offset: 0x8B9CC, size: 0x8, addend: 0x0, symName: __ZN7tinyobj7shape_tC1Ev, symObjAddr: 0x8030, symBinAddr: 0x100008970, symSize: 0x20 }
  - { offsetInCU: 0x8B9F9, offset: 0x8B9F9, size: 0x8, addend: 0x0, symName: __ZNSt3__16vectorIfNS_9allocatorIfEEE9push_backB8ue170006ERKf, symObjAddr: 0x81D0, symBinAddr: 0x100008B10, symSize: 0x60 }
  - { offsetInCU: 0x8BA35, offset: 0x8BA35, size: 0x8, addend: 0x0, symName: __ZN7tinyobj13skin_weight_tC1Ev, symObjAddr: 0x8230, symBinAddr: 0x100008B70, symSize: 0x20 }
  - { offsetInCU: 0x8BA62, offset: 0x8BA62, size: 0x8, addend: 0x0, symName: __ZNSt3__16vectorIN7tinyobj18joint_and_weight_tENS_9allocatorIS2_EEE9push_backB8ue170006ERKS2_, symObjAddr: 0x8250, symBinAddr: 0x100008B90, symSize: 0x60 }
  - { offsetInCU: 0x8BA99, offset: 0x8BA99, size: 0x8, addend: 0x0, symName: __ZNSt3__16vectorIN7tinyobj13skin_weight_tENS_9allocatorIS2_EEE9push_backB8ue170006ERKS2_, symObjAddr: 0x82B0, symBinAddr: 0x100008BF0, symSize: 0x60 }
  - { offsetInCU: 0x8BAD0, offset: 0x8BAD0, size: 0x8, addend: 0x0, symName: __ZN7tinyobj13skin_weight_tD1Ev, symObjAddr: 0x8310, symBinAddr: 0x100008C50, symSize: 0x20 }
  - { offsetInCU: 0x8BB02, offset: 0x8BB02, size: 0x8, addend: 0x0, symName: __ZN7tinyobj8__line_tC1Ev, symObjAddr: 0x8330, symBinAddr: 0x100008C70, symSize: 0x20 }
  - { offsetInCU: 0x8BB2F, offset: 0x8BB2F, size: 0x8, addend: 0x0, symName: __ZN7tinyobj14vertex_index_tC1Ev, symObjAddr: 0x8350, symBinAddr: 0x100008C90, symSize: 0x20 }
  - { offsetInCU: 0x8BB59, offset: 0x8BB59, size: 0x8, addend: 0x0, symName: __ZNKSt3__16vectorIfNS_9allocatorIfEEE4sizeB8ue170006Ev, symObjAddr: 0x85E0, symBinAddr: 0x100008F20, symSize: 0x20 }
  - { offsetInCU: 0x8BB7F, offset: 0x8BB7F, size: 0x8, addend: 0x0, symName: __ZNSt3__16vectorIN7tinyobj14vertex_index_tENS_9allocatorIS2_EEE9push_backB8ue170006ERKS2_, symObjAddr: 0x8750, symBinAddr: 0x100009090, symSize: 0x60 }
  - { offsetInCU: 0x8BBB6, offset: 0x8BBB6, size: 0x8, addend: 0x0, symName: __ZNSt3__16vectorIN7tinyobj8__line_tENS_9allocatorIS2_EEE9push_backB8ue170006ERKS2_, symObjAddr: 0x87B0, symBinAddr: 0x1000090F0, symSize: 0x60 }
  - { offsetInCU: 0x8BBED, offset: 0x8BBED, size: 0x8, addend: 0x0, symName: __ZN7tinyobj8__line_tD1Ev, symObjAddr: 0x8810, symBinAddr: 0x100009150, symSize: 0x20 }
  - { offsetInCU: 0x8BC1F, offset: 0x8BC1F, size: 0x8, addend: 0x0, symName: __ZN7tinyobj10__points_tC1Ev, symObjAddr: 0x8830, symBinAddr: 0x100009170, symSize: 0x20 }
  - { offsetInCU: 0x8BC4C, offset: 0x8BC4C, size: 0x8, addend: 0x0, symName: __ZNSt3__16vectorIN7tinyobj10__points_tENS_9allocatorIS2_EEE9push_backB8ue170006ERKS2_, symObjAddr: 0x8850, symBinAddr: 0x100009190, symSize: 0x60 }
  - { offsetInCU: 0x8BC83, offset: 0x8BC83, size: 0x8, addend: 0x0, symName: __ZN7tinyobj10__points_tD1Ev, symObjAddr: 0x88B0, symBinAddr: 0x1000091F0, symSize: 0x20 }
  - { offsetInCU: 0x8BCB0, offset: 0x8BCB0, size: 0x8, addend: 0x0, symName: __ZN7tinyobj6face_tC1Ev, symObjAddr: 0x88D0, symBinAddr: 0x100009210, symSize: 0x20 }
  - { offsetInCU: 0x8BCDA, offset: 0x8BCDA, size: 0x8, addend: 0x0, symName: __ZNSt3__16vectorIN7tinyobj14vertex_index_tENS_9allocatorIS2_EEE7reserveEm, symObjAddr: 0x88F0, symBinAddr: 0x100009230, symSize: 0xF0 }
  - { offsetInCU: 0x8BD38, offset: 0x8BD38, size: 0x8, addend: 0x0, symName: __ZNSt3__16vectorIN7tinyobj6face_tENS_9allocatorIS2_EEE9push_backB8ue170006ERKS2_, symObjAddr: 0x89E0, symBinAddr: 0x100009320, symSize: 0x60 }
  - { offsetInCU: 0x8BD6F, offset: 0x8BD6F, size: 0x8, addend: 0x0, symName: __ZN7tinyobj6face_tD1Ev, symObjAddr: 0x8A40, symBinAddr: 0x100009380, symSize: 0x20 }
  - { offsetInCU: 0x8BD9C, offset: 0x8BD9C, size: 0x8, addend: 0x0, symName: __ZNSt3__13mapINS_12basic_stringIcNS_11char_traitsIcEENS_9allocatorIcEEEEiNS_4lessIS6_EENS4_INS_4pairIKS6_iEEEEE4findB8ue170006ERSA_, symObjAddr: 0x8A60, symBinAddr: 0x1000093A0, symSize: 0x40 }
  - { offsetInCU: 0x8BDD1, offset: 0x8BDD1, size: 0x8, addend: 0x0, symName: __ZNSt3__120__map_const_iteratorINS_21__tree_const_iteratorINS_12__value_typeINS_12basic_stringIcNS_11char_traitsIcEENS_9allocatorIcEEEEiEEPNS_11__tree_nodeIS9_PvEElEEEC1B8ue170006ENS_14__map_iteratorINS_15__tree_iteratorIS9_SD_lEEEE, symObjAddr: 0x8AA0, symBinAddr: 0x1000093E0, symSize: 0x30 }
  - { offsetInCU: 0x8BE0A, offset: 0x8BE0A, size: 0x8, addend: 0x0, symName: __ZNSt3__13mapINS_12basic_stringIcNS_11char_traitsIcEENS_9allocatorIcEEEEiNS_4lessIS6_EENS4_INS_4pairIKS6_iEEEEE3endB8ue170006Ev, symObjAddr: 0x8B00, symBinAddr: 0x100009440, symSize: 0x30 }
  - { offsetInCU: 0x8BE30, offset: 0x8BE30, size: 0x8, addend: 0x0, symName: __ZNKSt3__120__map_const_iteratorINS_21__tree_const_iteratorINS_12__value_typeINS_12basic_stringIcNS_11char_traitsIcEENS_9allocatorIcEEEEiEEPNS_11__tree_nodeIS9_PvEElEEEptB8ue170006Ev, symObjAddr: 0x8B30, symBinAddr: 0x100009470, symSize: 0x30 }
  - { offsetInCU: 0x8BE56, offset: 0x8BE56, size: 0x8, addend: 0x0, symName: __ZNSt3__16vectorIN7tinyobj6face_tENS_9allocatorIS2_EEE5clearB8ue170006Ev, symObjAddr: 0xA610, symBinAddr: 0x10000AF50, symSize: 0x40 }
  - { offsetInCU: 0x8BE8C, offset: 0x8BE8C, size: 0x8, addend: 0x0, symName: __ZNKSt3__16vectorINS_12basic_stringIcNS_11char_traitsIcEENS_9allocatorIcEEEENS4_IS6_EEE5emptyB8ue170006Ev, symObjAddr: 0xA7A0, symBinAddr: 0x10000B0E0, symSize: 0x20 }
  - { offsetInCU: 0x8BEB2, offset: 0x8BEB2, size: 0x8, addend: 0x0, symName: __ZNKSt3__13setINS_12basic_stringIcNS_11char_traitsIcEENS_9allocatorIcEEEENS_4lessIS6_EENS4_IS6_EEE5countB8ue170006ERKS6_, symObjAddr: 0xA7C0, symBinAddr: 0x10000B100, symSize: 0x30 }
  - { offsetInCU: 0x8BEE7, offset: 0x8BEE7, size: 0x8, addend: 0x0, symName: __ZNSt3__13setINS_12basic_stringIcNS_11char_traitsIcEENS_9allocatorIcEEEENS_4lessIS6_EENS4_IS6_EEE6insertB8ue170006ERKS6_, symObjAddr: 0xA7F0, symBinAddr: 0x10000B130, symSize: 0x40 }
  - { offsetInCU: 0x8BF1C, offset: 0x8BF1C, size: 0x8, addend: 0x0, symName: __ZNKSt3__16vectorIN7tinyobj7index_tENS_9allocatorIS2_EEE4sizeB8ue170006Ev, symObjAddr: 0xA830, symBinAddr: 0x10000B170, symSize: 0x30 }
  - { offsetInCU: 0x8BF42, offset: 0x8BF42, size: 0x8, addend: 0x0, symName: __ZNSt3__16vectorIN7tinyobj7shape_tENS_9allocatorIS2_EEE9push_backB8ue170006ERKS2_, symObjAddr: 0xA860, symBinAddr: 0x10000B1A0, symSize: 0x60 }
  - { offsetInCU: 0x8BF7F, offset: 0x8BF7F, size: 0x8, addend: 0x0, symName: __ZN7tinyobj7shape_taSEOS0_, symObjAddr: 0xA8C0, symBinAddr: 0x10000B200, symSize: 0x80 }
  - { offsetInCU: 0x8BFB1, offset: 0x8BFB1, size: 0x8, addend: 0x0, symName: __ZN7tinyobj7shape_tD1Ev, symObjAddr: 0xA940, symBinAddr: 0x10000B280, symSize: 0x20 }
  - { offsetInCU: 0x8BFDE, offset: 0x8BFDE, size: 0x8, addend: 0x0, symName: __ZN7tinyobj9PrimGroup5clearEv, symObjAddr: 0xA960, symBinAddr: 0x10000B2A0, symSize: 0x40 }
  - { offsetInCU: 0x8C009, offset: 0x8C009, size: 0x8, addend: 0x0, symName: __ZN7tinyobj5tag_tC1Ev, symObjAddr: 0xA9A0, symBinAddr: 0x10000B2E0, symSize: 0x20 }
  - { offsetInCU: 0x8C036, offset: 0x8C036, size: 0x8, addend: 0x0, symName: __ZNSt3__16vectorIiNS_9allocatorIiEEE6resizeEm, symObjAddr: 0xAAF0, symBinAddr: 0x10000B430, symSize: 0x80 }
  - { offsetInCU: 0x8C07D, offset: 0x8C07D, size: 0x8, addend: 0x0, symName: __ZNSt3__16vectorIiNS_9allocatorIiEEEixB8ue170006Em, symObjAddr: 0xAB70, symBinAddr: 0x10000B4B0, symSize: 0x20 }
  - { offsetInCU: 0x8C0B4, offset: 0x8C0B4, size: 0x8, addend: 0x0, symName: __ZNSt3__16vectorIfNS_9allocatorIfEEE6resizeEm, symObjAddr: 0xAB90, symBinAddr: 0x10000B4D0, symSize: 0x80 }
  - { offsetInCU: 0x8C0FB, offset: 0x8C0FB, size: 0x8, addend: 0x0, symName: __ZNSt3__16vectorIfNS_9allocatorIfEEEixB8ue170006Em, symObjAddr: 0xAC10, symBinAddr: 0x10000B550, symSize: 0x20 }
  - { offsetInCU: 0x8C132, offset: 0x8C132, size: 0x8, addend: 0x0, symName: __ZNSt3__16vectorINS_12basic_stringIcNS_11char_traitsIcEENS_9allocatorIcEEEENS4_IS6_EEE6resizeEm, symObjAddr: 0xAC30, symBinAddr: 0x10000B570, symSize: 0x80 }
  - { offsetInCU: 0x8C179, offset: 0x8C179, size: 0x8, addend: 0x0, symName: __ZNSt3__16vectorIN7tinyobj5tag_tENS_9allocatorIS2_EEE9push_backB8ue170006ERKS2_, symObjAddr: 0xACB0, symBinAddr: 0x10000B5F0, symSize: 0x60 }
  - { offsetInCU: 0x8C1B0, offset: 0x8C1B0, size: 0x8, addend: 0x0, symName: __ZN7tinyobj5tag_tD1Ev, symObjAddr: 0xAD10, symBinAddr: 0x10000B650, symSize: 0x20 }
  - { offsetInCU: 0x8C1DD, offset: 0x8C1DD, size: 0x8, addend: 0x0, symName: __ZNSt3__16vectorIfNS_9allocatorIfEEE4swapERS3_, symObjAddr: 0xAD30, symBinAddr: 0x10000B670, symSize: 0x80 }
  - { offsetInCU: 0x8C214, offset: 0x8C214, size: 0x8, addend: 0x0, symName: __ZNSt3__16vectorIN7tinyobj13skin_weight_tENS_9allocatorIS2_EEE4swapERS5_, symObjAddr: 0xADB0, symBinAddr: 0x10000B6F0, symSize: 0x80 }
  - { offsetInCU: 0x8C24B, offset: 0x8C24B, size: 0x8, addend: 0x0, symName: __ZNSt3__13mapINS_12basic_stringIcNS_11char_traitsIcEENS_9allocatorIcEEEEiNS_4lessIS6_EENS4_INS_4pairIKS6_iEEEEED1B8ue170006Ev, symObjAddr: 0xAE30, symBinAddr: 0x10000B770, symSize: 0x20 }
  - { offsetInCU: 0x8C275, offset: 0x8C275, size: 0x8, addend: 0x0, symName: __ZNSt3__13setINS_12basic_stringIcNS_11char_traitsIcEENS_9allocatorIcEEEENS_4lessIS6_EENS4_IS6_EEED1B8ue170006Ev, symObjAddr: 0xAE50, symBinAddr: 0x10000B790, symSize: 0x20 }
  - { offsetInCU: 0x8C29F, offset: 0x8C29F, size: 0x8, addend: 0x0, symName: __ZN7tinyobj9PrimGroupD1Ev, symObjAddr: 0xAE70, symBinAddr: 0x10000B7B0, symSize: 0x20 }
  - { offsetInCU: 0x8C2CC, offset: 0x8C2CC, size: 0x8, addend: 0x0, symName: __ZNSt3__16vectorIN7tinyobj5tag_tENS_9allocatorIS2_EEED1B8ue170006Ev, symObjAddr: 0xAE90, symBinAddr: 0x10000B7D0, symSize: 0x20 }
  - { offsetInCU: 0x8C2F6, offset: 0x8C2F6, size: 0x8, addend: 0x0, symName: __ZNSt3__16vectorIN7tinyobj13skin_weight_tENS_9allocatorIS2_EEED1B8ue170006Ev, symObjAddr: 0xAEB0, symBinAddr: 0x10000B7F0, symSize: 0x20 }
  - { offsetInCU: 0x8C320, offset: 0x8C320, size: 0x8, addend: 0x0, symName: __ZNSt3__16vectorIfNS_9allocatorIfEEED1B8ue170006Ev, symObjAddr: 0xAED0, symBinAddr: 0x10000B810, symSize: 0x20 }
  - { offsetInCU: 0x8C34A, offset: 0x8C34A, size: 0x8, addend: 0x0, symName: __ZNSt3__16vectorIN7tinyobj7index_tENS_9allocatorIS2_EEEC1B8ue170006Ev, symObjAddr: 0xC500, symBinAddr: 0x10000CE40, symSize: 0x20 }
  - { offsetInCU: 0x8C374, offset: 0x8C374, size: 0x8, addend: 0x0, symName: __ZNSt3__16vectorIN7tinyobj10material_tENS_9allocatorIS2_EEEC1B8ue170006Ev, symObjAddr: 0xC520, symBinAddr: 0x10000CE60, symSize: 0x20 }
  - { offsetInCU: 0x8C39E, offset: 0x8C39E, size: 0x8, addend: 0x0, symName: __ZNSt3__16vectorINS_12basic_stringIcNS_11char_traitsIcEENS_9allocatorIcEEEENS4_IS6_EEE7reserveEm, symObjAddr: 0xC540, symBinAddr: 0x10000CE80, symSize: 0xF0 }
  - { offsetInCU: 0x8C3FC, offset: 0x8C3FC, size: 0x8, addend: 0x0, symName: __ZNSt3__16vectorIPKcNS_9allocatorIS2_EEEC1B8ue170006Ev, symObjAddr: 0xC630, symBinAddr: 0x10000CF70, symSize: 0x20 }
  - { offsetInCU: 0x8C426, offset: 0x8C426, size: 0x8, addend: 0x0, symName: __ZNSt3__16vectorIN7tinyobj7index_tENS_9allocatorIS2_EEE5clearB8ue170006Ev, symObjAddr: 0xC650, symBinAddr: 0x10000CF90, symSize: 0x40 }
  - { offsetInCU: 0x8C45C, offset: 0x8C45C, size: 0x8, addend: 0x0, symName: __ZNSt3__16vectorIN7tinyobj7index_tENS_9allocatorIS2_EEE9push_backB8ue170006ERKS2_, symObjAddr: 0xC7F0, symBinAddr: 0x10000D130, symSize: 0x60 }
  - { offsetInCU: 0x8C493, offset: 0x8C493, size: 0x8, addend: 0x0, symName: __ZNSt3__16vectorIN7tinyobj7index_tENS_9allocatorIS2_EEE2atEm, symObjAddr: 0xC850, symBinAddr: 0x10000D190, symSize: 0x60 }
  - { offsetInCU: 0x8C4CA, offset: 0x8C4CA, size: 0x8, addend: 0x0, symName: __ZNSt3__16vectorIN7tinyobj10material_tENS_9allocatorIS2_EEE2atEm, symObjAddr: 0xC8B0, symBinAddr: 0x10000D1F0, symSize: 0x60 }
  - { offsetInCU: 0x8C501, offset: 0x8C501, size: 0x8, addend: 0x0, symName: __ZNSt3__16vectorINS_12basic_stringIcNS_11char_traitsIcEENS_9allocatorIcEEEENS4_IS6_EEE5clearB8ue170006Ev, symObjAddr: 0xC910, symBinAddr: 0x10000D250, symSize: 0x40 }
  - { offsetInCU: 0x8C537, offset: 0x8C537, size: 0x8, addend: 0x0, symName: __ZNSt3__16vectorIPKcNS_9allocatorIS2_EEE6resizeEm, symObjAddr: 0xC950, symBinAddr: 0x10000D290, symSize: 0x80 }
  - { offsetInCU: 0x8C57E, offset: 0x8C57E, size: 0x8, addend: 0x0, symName: __ZNKSt3__16vectorIPKcNS_9allocatorIS2_EEE4sizeB8ue170006Ev, symObjAddr: 0xC9D0, symBinAddr: 0x10000D310, symSize: 0x20 }
  - { offsetInCU: 0x8C5A4, offset: 0x8C5A4, size: 0x8, addend: 0x0, symName: __ZNSt3__16vectorIPKcNS_9allocatorIS2_EEEixB8ue170006Em, symObjAddr: 0xC9F0, symBinAddr: 0x10000D330, symSize: 0x20 }
  - { offsetInCU: 0x8C5DB, offset: 0x8C5DB, size: 0x8, addend: 0x0, symName: __ZNSt3__16vectorIPKcNS_9allocatorIS2_EEE2atEm, symObjAddr: 0xCA10, symBinAddr: 0x10000D350, symSize: 0x60 }
  - { offsetInCU: 0x8C612, offset: 0x8C612, size: 0x8, addend: 0x0, symName: __ZNSt3__16vectorIPKcNS_9allocatorIS2_EEED1B8ue170006Ev, symObjAddr: 0xCA70, symBinAddr: 0x10000D3B0, symSize: 0x20 }
  - { offsetInCU: 0x8C63C, offset: 0x8C63C, size: 0x8, addend: 0x0, symName: __ZNSt3__16vectorIN7tinyobj10material_tENS_9allocatorIS2_EEED1B8ue170006Ev, symObjAddr: 0xCA90, symBinAddr: 0x10000D3D0, symSize: 0x20 }
  - { offsetInCU: 0x8C666, offset: 0x8C666, size: 0x8, addend: 0x0, symName: __ZNSt3__16vectorIN7tinyobj7index_tENS_9allocatorIS2_EEED1B8ue170006Ev, symObjAddr: 0xCAB0, symBinAddr: 0x10000D3F0, symSize: 0x20 }
  - { offsetInCU: 0x8C6C2, offset: 0x8C6C2, size: 0x8, addend: 0x0, symName: __ZN7tinyobj9ObjReader13ParseFromFileERKNSt3__112basic_stringIcNS1_11char_traitsIcEENS1_9allocatorIcEEEERKNS_15ObjReaderConfigE, symObjAddr: 0xCAD0, symBinAddr: 0x10000D410, symSize: 0x1E0 }
  - { offsetInCU: 0x8C72F, offset: 0x8C72F, size: 0x8, addend: 0x0, symName: __ZNKSt3__112basic_stringIcNS_11char_traitsIcEENS_9allocatorIcEEE12find_last_ofB8ue170006EPKcm, symObjAddr: 0xCCB0, symBinAddr: 0x10000D5F0, symSize: 0x70 }
  - { offsetInCU: 0x8C775, offset: 0x8C775, size: 0x8, addend: 0x0, symName: __ZN7tinyobj9ObjReader15ParseFromStringERKNSt3__112basic_stringIcNS1_11char_traitsIcEENS1_9allocatorIcEEEES9_RKNS_15ObjReaderConfigE, symObjAddr: 0xCD20, symBinAddr: 0x10000D660, symSize: 0x240 }
  - { offsetInCU: 0x8C81F, offset: 0x8C81F, size: 0x8, addend: 0x0, symName: __ZNSt3__115basic_stringbufIcNS_11char_traitsIcEENS_9allocatorIcEEEC1B8ue170006ERKNS_12basic_stringIcS2_S4_EEj, symObjAddr: 0xCF60, symBinAddr: 0x10000D8A0, symSize: 0x30 }
  - { offsetInCU: 0x8C867, offset: 0x8C867, size: 0x8, addend: 0x0, symName: __ZNSt3__113basic_istreamIcNS_11char_traitsIcEEEC1B8ue170006EPNS_15basic_streambufIcS2_EE, symObjAddr: 0xCF90, symBinAddr: 0x10000D8D0, symSize: 0x90 }
  - { offsetInCU: 0x8C89F, offset: 0x8C89F, size: 0x8, addend: 0x0, symName: __ZN7tinyobj20MaterialStreamReaderC1ERNSt3__113basic_istreamIcNS1_11char_traitsIcEEEE, symObjAddr: 0xD020, symBinAddr: 0x10000D960, symSize: 0x30 }
  - { offsetInCU: 0x8C8D8, offset: 0x8C8D8, size: 0x8, addend: 0x0, symName: __ZN7tinyobj20MaterialStreamReaderD1Ev, symObjAddr: 0xD050, symBinAddr: 0x10000D990, symSize: 0x20 }
  - { offsetInCU: 0x8C907, offset: 0x8C907, size: 0x8, addend: 0x0, symName: __ZNSt3__115basic_stringbufIcNS_11char_traitsIcEENS_9allocatorIcEEED1Ev, symObjAddr: 0xD070, symBinAddr: 0x10000D9B0, symSize: 0x20 }
  - { offsetInCU: 0x8C933, offset: 0x8C933, size: 0x8, addend: 0x0, symName: __Z23getCurrentTimeInSecondsv, symObjAddr: 0xD090, symBinAddr: 0x10000D9D0, symSize: 0x40 }
  - { offsetInCU: 0x8C95F, offset: 0x8C95F, size: 0x8, addend: 0x0, symName: __Z4HashPKc, symObjAddr: 0xD0D0, symBinAddr: 0x10000DA10, symSize: 0x60 }
  - { offsetInCU: 0x8C9C4, offset: 0x8C9C4, size: 0x8, addend: 0x0, symName: __Z14Cardinal4Clamp4vec2, symObjAddr: 0xD130, symBinAddr: 0x10000DA70, symSize: 0xC0 }
  - { offsetInCU: 0x8CA22, offset: 0x8CA22, size: 0x8, addend: 0x0, symName: __Z16LargestComponent4vec2Pi, symObjAddr: 0xD1F0, symBinAddr: 0x10000DB30, symSize: 0x90 }
  - { offsetInCU: 0x8CA5F, offset: 0x8CA5F, size: 0x8, addend: 0x0, symName: __Z6HasNaN4vec3, symObjAddr: 0xD280, symBinAddr: 0x10000DBC0, symSize: 0x70 }
  - { offsetInCU: 0x8CA8D, offset: 0x8CA8D, size: 0x8, addend: 0x0, symName: __Z5isnanB8ue170006f, symObjAddr: 0xD2F0, symBinAddr: 0x10000DC30, symSize: 0x20 }
  - { offsetInCU: 0x8CABB, offset: 0x8CABB, size: 0x8, addend: 0x0, symName: __Z12NearlyEquals4vec2S_f, symObjAddr: 0xD310, symBinAddr: 0x10000DC50, symSize: 0x70 }
  - { offsetInCU: 0x8CB07, offset: 0x8CB07, size: 0x8, addend: 0x0, symName: __Z12NearlyEqualsfff, symObjAddr: 0xD380, symBinAddr: 0x10000DCC0, symSize: 0xB0 }
  - { offsetInCU: 0x8CB83, offset: 0x8CB83, size: 0x8, addend: 0x0, symName: __Z12NearlyEquals4vec3S_f, symObjAddr: 0xD430, symBinAddr: 0x10000DD70, symSize: 0xC0 }
  - { offsetInCU: 0x8CBD0, offset: 0x8CBD0, size: 0x8, addend: 0x0, symName: __Z12NearlyEquals4vec4S_f, symObjAddr: 0xD4F0, symBinAddr: 0x10000DE30, symSize: 0xD0 }
  - { offsetInCU: 0x8CC1C, offset: 0x8CC1C, size: 0x8, addend: 0x0, symName: __Z5Round4vec3, symObjAddr: 0xD5C0, symBinAddr: 0x10000DF00, symSize: 0x80 }
  - { offsetInCU: 0x8CC5A, offset: 0x8CC5A, size: 0x8, addend: 0x0, symName: __Z6Roundff, symObjAddr: 0xD640, symBinAddr: 0x10000DF80, symSize: 0x40 }
  - { offsetInCU: 0x8CC88, offset: 0x8CC88, size: 0x8, addend: 0x0, symName: __Z5Ceilv4vec3, symObjAddr: 0xD680, symBinAddr: 0x10000DFC0, symSize: 0x80 }
  - { offsetInCU: 0x8CCC6, offset: 0x8CCC6, size: 0x8, addend: 0x0, symName: __Z5Ceilff, symObjAddr: 0xD700, symBinAddr: 0x10000E040, symSize: 0x20 }
  - { offsetInCU: 0x8CCF4, offset: 0x8CCF4, size: 0x8, addend: 0x0, symName: __Z12NearlyEquals10quaternionS_f, symObjAddr: 0xD720, symBinAddr: 0x10000E060, symSize: 0xD0 }
  - { offsetInCU: 0x8CD3C, offset: 0x8CD3C, size: 0x8, addend: 0x0, symName: __Z6HasNaN10quaternion, symObjAddr: 0xD7F0, symBinAddr: 0x10000E130, symSize: 0x80 }
  - { offsetInCU: 0x8CD6A, offset: 0x8CD6A, size: 0x8, addend: 0x0, symName: __Z16SetViewDirection4vec3S_S_, symObjAddr: 0xD870, symBinAddr: 0x10000E1B0, symSize: 0x510 }
  - { offsetInCU: 0x8CDFC, offset: 0x8CDFC, size: 0x8, addend: 0x0, symName: __Z9Normalize4vec3, symObjAddr: 0xDD80, symBinAddr: 0x10000E6C0, symSize: 0xC0 }
  - { offsetInCU: 0x8CE4A, offset: 0x8CE4A, size: 0x8, addend: 0x0, symName: __Z5Cross4vec3S_, symObjAddr: 0xDE40, symBinAddr: 0x10000E780, symSize: 0xD0 }
  - { offsetInCU: 0x8CE97, offset: 0x8CE97, size: 0x8, addend: 0x0, symName: __Z9Identity4v, symObjAddr: 0xDF10, symBinAddr: 0x10000E850, symSize: 0x60 }
  - { offsetInCU: 0x8CEC4, offset: 0x8CEC4, size: 0x8, addend: 0x0, symName: __Z3Dot4vec3S_, symObjAddr: 0xDF70, symBinAddr: 0x10000E8B0, symSize: 0x70 }
  - { offsetInCU: 0x8CF12, offset: 0x8CF12, size: 0x8, addend: 0x0, symName: __Z13SetViewTarget4vec3S_S_, symObjAddr: 0xDFE0, symBinAddr: 0x10000E920, symSize: 0x1C0 }
  - { offsetInCU: 0x8CF5F, offset: 0x8CF5F, size: 0x8, addend: 0x0, symName: __Zmi4vec3S_, symObjAddr: 0xE1A0, symBinAddr: 0x10000EAE0, symSize: 0x90 }
  - { offsetInCU: 0x8CFAC, offset: 0x8CFAC, size: 0x8, addend: 0x0, symName: __Z8SeedRandi, symObjAddr: 0xE230, symBinAddr: 0x10000EB70, symSize: 0x50 }
  - { offsetInCU: 0x8CFD5, offset: 0x8CFD5, size: 0x8, addend: 0x0, symName: __ZNSt3__113basic_ostreamIcNS_11char_traitsIcEEElsB8ue170006EPFRS3_S4_E, symObjAddr: 0xE280, symBinAddr: 0x10000EBC0, symSize: 0x20 }
  - { offsetInCU: 0x8D009, offset: 0x8D009, size: 0x8, addend: 0x0, symName: __Z5Randiv, symObjAddr: 0xE2F0, symBinAddr: 0x10000EC30, symSize: 0x30 }
  - { offsetInCU: 0x8D026, offset: 0x8D026, size: 0x8, addend: 0x0, symName: __Z3Absi, symObjAddr: 0xE320, symBinAddr: 0x10000EC60, symSize: 0x20 }
  - { offsetInCU: 0x8D054, offset: 0x8D054, size: 0x8, addend: 0x0, symName: __Z9RandUpperi, symObjAddr: 0xE340, symBinAddr: 0x10000EC80, symSize: 0x20 }
  - { offsetInCU: 0x8D080, offset: 0x8D080, size: 0x8, addend: 0x0, symName: __Z10RandiRangeii, symObjAddr: 0xE360, symBinAddr: 0x10000ECA0, symSize: 0x40 }
  - { offsetInCU: 0x8D0D6, offset: 0x8D0D6, size: 0x8, addend: 0x0, symName: __Z5Randfv, symObjAddr: 0xE3A0, symBinAddr: 0x10000ECE0, symSize: 0x30 }
  - { offsetInCU: 0x8D102, offset: 0x8D102, size: 0x8, addend: 0x0, symName: __Z10RandfUpperf, symObjAddr: 0xE3D0, symBinAddr: 0x10000ED10, symSize: 0x40 }
  - { offsetInCU: 0x8D13C, offset: 0x8D13C, size: 0x8, addend: 0x0, symName: __Z10RandfRangeff, symObjAddr: 0xE410, symBinAddr: 0x10000ED50, symSize: 0x60 }
  - { offsetInCU: 0x8D192, offset: 0x8D192, size: 0x8, addend: 0x0, symName: __Z12barryCentric4vec3S_S_4vec2, symObjAddr: 0xE470, symBinAddr: 0x10000EDB0, symSize: 0x150 }
  - { offsetInCU: 0x8D226, offset: 0x8D226, size: 0x8, addend: 0x0, symName: __Z18PointsAreCollinear4vec2S_S_f, symObjAddr: 0xE5C0, symBinAddr: 0x10000EF00, symSize: 0x70 }
  - { offsetInCU: 0x8D27C, offset: 0x8D27C, size: 0x8, addend: 0x0, symName: __Z12NearlyEqualsffff, symObjAddr: 0xE630, symBinAddr: 0x10000EF70, symSize: 0xB0 }
  - { offsetInCU: 0x8D2F7, offset: 0x8D2F7, size: 0x8, addend: 0x0, symName: __Z18PointsAreCollinear4vec3S_S_f, symObjAddr: 0xE6E0, symBinAddr: 0x10000F020, symSize: 0x270 }
  - { offsetInCU: 0x8D34F, offset: 0x8D34F, size: 0x8, addend: 0x0, symName: __Z6Length4vec3, symObjAddr: 0xE950, symBinAddr: 0x10000F290, symSize: 0x60 }
  - { offsetInCU: 0x8D38D, offset: 0x8D38D, size: 0x8, addend: 0x0, symName: __Z25SegmentCircleIntersection4vec2S_S_fPf, symObjAddr: 0xE9B0, symBinAddr: 0x10000F2F0, symSize: 0x290 }
  - { offsetInCU: 0x8D48D, offset: 0x8D48D, size: 0x8, addend: 0x0, symName: __Zmi4vec2S_, symObjAddr: 0xEC40, symBinAddr: 0x10000F580, symSize: 0x40 }
  - { offsetInCU: 0x8D4DA, offset: 0x8D4DA, size: 0x8, addend: 0x0, symName: __Z3Dot4vec2S_, symObjAddr: 0xEC80, symBinAddr: 0x10000F5C0, symSize: 0x40 }
  - { offsetInCU: 0x8D527, offset: 0x8D527, size: 0x8, addend: 0x0, symName: __Z4sqrtB8ue170006f, symObjAddr: 0xECC0, symBinAddr: 0x10000F600, symSize: 0x20 }
  - { offsetInCU: 0x8D556, offset: 0x8D556, size: 0x8, addend: 0x0, symName: __Z24TriangulateConvexPolygonjPjS_jb, symObjAddr: 0xECE0, symBinAddr: 0x10000F620, symSize: 0x130 }
  - { offsetInCU: 0x8D5EB, offset: 0x8D5EB, size: 0x8, addend: 0x0, symName: __Z18VectorsAreParallel4vec3S_, symObjAddr: 0xEE10, symBinAddr: 0x10000F750, symSize: 0x280 }
  - { offsetInCU: 0x8D628, offset: 0x8D628, size: 0x8, addend: 0x0, symName: __Z10PointInFOV4vec3S_fS_, symObjAddr: 0xF090, symBinAddr: 0x10000F9D0, symSize: 0x270 }
  - { offsetInCU: 0x8D6A7, offset: 0x8D6A7, size: 0x8, addend: 0x0, symName: __Z8MakeRect4vec2S_, symObjAddr: 0xF300, symBinAddr: 0x10000FC40, symSize: 0x80 }
  - { offsetInCU: 0x8D6F4, offset: 0x8D6F4, size: 0x8, addend: 0x0, symName: __Zpl4vec2S_, symObjAddr: 0xF380, symBinAddr: 0x10000FCC0, symSize: 0x40 }
  - { offsetInCU: 0x8D741, offset: 0x8D741, size: 0x8, addend: 0x0, symName: __Z13PointRectTest4Rect4vec2, symObjAddr: 0xF3C0, symBinAddr: 0x10000FD00, symSize: 0xE0 }
  - { offsetInCU: 0x8D77E, offset: 0x8D77E, size: 0x8, addend: 0x0, symName: __Z10GlobalRect4vec24Rect, symObjAddr: 0xF4A0, symBinAddr: 0x10000FDE0, symSize: 0x80 }
  - { offsetInCU: 0x8D7CB, offset: 0x8D7CB, size: 0x8, addend: 0x0, symName: __Z8RectTest4RectS_4vec2S0_PS0_, symObjAddr: 0xF520, symBinAddr: 0x10000FE60, symSize: 0x2C0 }
  - { offsetInCU: 0x8D879, offset: 0x8D879, size: 0x8, addend: 0x0, symName: __Z3Minff, symObjAddr: 0xF7E0, symBinAddr: 0x100010120, symSize: 0x40 }
  - { offsetInCU: 0x8D8C1, offset: 0x8D8C1, size: 0x8, addend: 0x0, symName: __Z3Maxff, symObjAddr: 0xF820, symBinAddr: 0x100010160, symSize: 0x40 }
  - { offsetInCU: 0x8D909, offset: 0x8D909, size: 0x8, addend: 0x0, symName: __Z3Absf, symObjAddr: 0xF860, symBinAddr: 0x1000101A0, symSize: 0x20 }
  - { offsetInCU: 0x8D937, offset: 0x8D937, size: 0x8, addend: 0x0, symName: __Z22PointToSizeTestPixel2D4vec2S_S_, symObjAddr: 0xF880, symBinAddr: 0x1000101C0, symSize: 0x80 }
  - { offsetInCU: 0x8D993, offset: 0x8D993, size: 0x8, addend: 0x0, symName: __Z22TestRayOBBIntersection4vec3S_S_S_4mat4Pf, symObjAddr: 0xF900, symBinAddr: 0x100010240, symSize: 0xA50 }
  - { offsetInCU: 0x8DC0C, offset: 0x8DC0C, size: 0x8, addend: 0x0, symName: __Z14GetTranslation4mat4, symObjAddr: 0x10350, symBinAddr: 0x100010C90, symSize: 0x30 }
  - { offsetInCU: 0x8DC46, offset: 0x8DC46, size: 0x8, addend: 0x0, symName: __Z4GetX4mat4, symObjAddr: 0x10380, symBinAddr: 0x100010CC0, symSize: 0x30 }
  - { offsetInCU: 0x8DC80, offset: 0x8DC80, size: 0x8, addend: 0x0, symName: __Z4fabsB8ue170006f, symObjAddr: 0x103B0, symBinAddr: 0x100010CF0, symSize: 0x20 }
  - { offsetInCU: 0x8DCAE, offset: 0x8DCAE, size: 0x8, addend: 0x0, symName: __Z4GetY4mat4, symObjAddr: 0x103D0, symBinAddr: 0x100010D10, symSize: 0x30 }
  - { offsetInCU: 0x8DCE8, offset: 0x8DCE8, size: 0x8, addend: 0x0, symName: __Z4GetZ4mat4, symObjAddr: 0x10400, symBinAddr: 0x100010D40, symSize: 0x30 }
  - { offsetInCU: 0x8DD22, offset: 0x8DD22, size: 0x8, addend: 0x0, symName: __Z27DynamicArrayAllocateDynamicP20DynamicArray_Untypedj, symObjAddr: 0x10430, symBinAddr: 0x100010D70, symSize: 0xB0 }
  - { offsetInCU: 0x8DD83, offset: 0x8DD83, size: 0x8, addend: 0x0, symName: __Z11AllocateMemP10MAllocatory, symObjAddr: 0x104E0, symBinAddr: 0x100010E20, symSize: 0x30 }
  - { offsetInCU: 0x8DDBD, offset: 0x8DDBD, size: 0x8, addend: 0x0, symName: __Z26DynamicArrayEnsureCapacityP20DynamicArray_Untypedjj, symObjAddr: 0x10510, symBinAddr: 0x100010E50, symSize: 0xA0 }
  - { offsetInCU: 0x8DE3B, offset: 0x8DE3B, size: 0x8, addend: 0x0, symName: __Z21AllocateEntityManagerP13EntityManagerP11MemoryArenaPi, symObjAddr: 0x105B0, symBinAddr: 0x100010EF0, symSize: 0x1A0 }
  - { offsetInCU: 0x8DED6, offset: 0x8DED6, size: 0x8, addend: 0x0, symName: __Z3Maxii, symObjAddr: 0x10750, symBinAddr: 0x100011090, symSize: 0x30 }
  - { offsetInCU: 0x8DF1E, offset: 0x8DF1E, size: 0x8, addend: 0x0, symName: __Z16MakeDynamicArrayP10MAllocatorjjj, symObjAddr: 0x10780, symBinAddr: 0x1000110C0, symSize: 0x70 }
  - { offsetInCU: 0x8DF83, offset: 0x8DF83, size: 0x8, addend: 0x0, symName: __Z16MakeDynamicArrayI10EntityInfoE12DynamicArrayIT_EP10MAllocatorjj, symObjAddr: 0x107F0, symBinAddr: 0x100011130, symSize: 0x50 }
  - { offsetInCU: 0x8DFE3, offset: 0x8DFE3, size: 0x8, addend: 0x0, symName: __Z16MakeDynamicArrayIjE12DynamicArrayIT_EP10MAllocatorjj, symObjAddr: 0x10840, symBinAddr: 0x100011180, symSize: 0x50 }
  - { offsetInCU: 0x8E043, offset: 0x8E043, size: 0x8, addend: 0x0, symName: __Z16MakeDynamicArrayI12EntityHandleE12DynamicArrayIT_EP10MAllocatorjj, symObjAddr: 0x10890, symBinAddr: 0x1000111D0, symSize: 0x50 }
  - { offsetInCU: 0x8E0A3, offset: 0x8E0A3, size: 0x8, addend: 0x0, symName: __Z18AddEntityToStorageP13EntityManagerP10EntityInfo, symObjAddr: 0x108E0, symBinAddr: 0x100011220, symSize: 0x60 }
  - { offsetInCU: 0x8E0F9, offset: 0x8E0F9, size: 0x8, addend: 0x0, symName: __Z11PushBackPtrP20DynamicArray_Untypedj, symObjAddr: 0x10940, symBinAddr: 0x100011280, symSize: 0x70 }
  - { offsetInCU: 0x8E14F, offset: 0x8E14F, size: 0x8, addend: 0x0, symName: __Z13AccessEntity_PK17EntityTypeStoragej, symObjAddr: 0x109B0, symBinAddr: 0x1000112F0, symSize: 0x30 }
  - { offsetInCU: 0x8E189, offset: 0x8E189, size: 0x8, addend: 0x0, symName: __Z19DynamicArrayGetDataPK20DynamicArray_Untypedii, symObjAddr: 0x109E0, symBinAddr: 0x100011320, symSize: 0x80 }
  - { offsetInCU: 0x8E20A, offset: 0x8E20A, size: 0x8, addend: 0x0, symName: __Z13GetEntityInfoPK13EntityManager12EntityHandle, symObjAddr: 0x10A60, symBinAddr: 0x1000113A0, symSize: 0xA0 }
  - { offsetInCU: 0x8E253, offset: 0x8E253, size: 0x8, addend: 0x0, symName: __ZNK12DynamicArrayI10EntityInfoEixEi, symObjAddr: 0x10B00, symBinAddr: 0x100011440, symSize: 0x80 }
  - { offsetInCU: 0x8E2BF, offset: 0x8E2BF, size: 0x8, addend: 0x0, symName: __Z23RemoveEntityFromStorageP13EntityManagerP10EntityInfo, symObjAddr: 0x10B80, symBinAddr: 0x1000114C0, symSize: 0x130 }
  - { offsetInCU: 0x8E33D, offset: 0x8E33D, size: 0x8, addend: 0x0, symName: __Z10AddEntity_P13EntityManager10EntityTypePv, symObjAddr: 0x10CB0, symBinAddr: 0x1000115F0, symSize: 0x140 }
  - { offsetInCU: 0x8E3CD, offset: 0x8E3CD, size: 0x8, addend: 0x0, symName: __Z7PopBackIjEbP12DynamicArrayIT_EPS1_, symObjAddr: 0x10DF0, symBinAddr: 0x100011730, symSize: 0x70 }
  - { offsetInCU: 0x8E43B, offset: 0x8E43B, size: 0x8, addend: 0x0, symName: __Z11PushBackPtrI10EntityInfoEPT_P12DynamicArrayIS1_E, symObjAddr: 0x10E60, symBinAddr: 0x1000117A0, symSize: 0x60 }
  - { offsetInCU: 0x8E48C, offset: 0x8E48C, size: 0x8, addend: 0x0, symName: __Z12DeleteEntityP13EntityManager12EntityHandle, symObjAddr: 0x10EC0, symBinAddr: 0x100011800, symSize: 0xA0 }
  - { offsetInCU: 0x8E4D0, offset: 0x8E4D0, size: 0x8, addend: 0x0, symName: __Z8PushBackI12EntityHandleEjP12DynamicArrayIT_ES2_, symObjAddr: 0x10F60, symBinAddr: 0x1000118A0, symSize: 0x70 }
  - { offsetInCU: 0x8E521, offset: 0x8E521, size: 0x8, addend: 0x0, symName: __Z14DeleteEntitiesP13EntityManager, symObjAddr: 0x10FD0, symBinAddr: 0x100011910, symSize: 0xE0 }
  - { offsetInCU: 0x8E592, offset: 0x8E592, size: 0x8, addend: 0x0, symName: __ZNK12DynamicArrayI12EntityHandleEixEi, symObjAddr: 0x110B0, symBinAddr: 0x1000119F0, symSize: 0x80 }
  - { offsetInCU: 0x8E5FE, offset: 0x8E5FE, size: 0x8, addend: 0x0, symName: __Z8PushBackIjEjP12DynamicArrayIT_ES1_, symObjAddr: 0x11130, symBinAddr: 0x100011A70, symSize: 0x60 }
  - { offsetInCU: 0x8E64F, offset: 0x8E64F, size: 0x8, addend: 0x0, symName: __Z17DynamicArrayClearI12EntityHandleEvP12DynamicArrayIT_E, symObjAddr: 0x11190, symBinAddr: 0x100011AD0, symSize: 0x20 }
  - { offsetInCU: 0x8E680, offset: 0x8E680, size: 0x8, addend: 0x0, symName: __Z10GetEntity_P13EntityManager12EntityHandle, symObjAddr: 0x111B0, symBinAddr: 0x100011AF0, symSize: 0xE0 }
  - { offsetInCU: 0x8E6D8, offset: 0x8E6D8, size: 0x8, addend: 0x0, symName: _stbi_failure_reason, symObjAddr: 0x11290, symBinAddr: 0x100011BD0, symSize: 0x20 }
  - { offsetInCU: 0x8E6F3, offset: 0x8E6F3, size: 0x8, addend: 0x0, symName: _stbi_image_free, symObjAddr: 0x112B0, symBinAddr: 0x100011BF0, symSize: 0x20 }
  - { offsetInCU: 0x8E71A, offset: 0x8E71A, size: 0x8, addend: 0x0, symName: _stbi_set_flip_vertically_on_load, symObjAddr: 0x112D0, symBinAddr: 0x100011C10, symSize: 0x20 }
  - { offsetInCU: 0x8E741, offset: 0x8E741, size: 0x8, addend: 0x0, symName: _stbi_set_flip_vertically_on_load_thread, symObjAddr: 0x112F0, symBinAddr: 0x100011C30, symSize: 0x30 }
  - { offsetInCU: 0x8E768, offset: 0x8E768, size: 0x8, addend: 0x0, symName: _stbi_load, symObjAddr: 0x11320, symBinAddr: 0x100011C60, symSize: 0xA0 }
  - { offsetInCU: 0x8E7EF, offset: 0x8E7EF, size: 0x8, addend: 0x0, symName: __ZL11stbi__fopenPKcS0_, symObjAddr: 0x113C0, symBinAddr: 0x100011D00, symSize: 0x30 }
  - { offsetInCU: 0x8E83D, offset: 0x8E83D, size: 0x8, addend: 0x0, symName: __ZL9stbi__errPKc, symObjAddr: 0x113F0, symBinAddr: 0x100011D30, symSize: 0x30 }
  - { offsetInCU: 0x8E86C, offset: 0x8E86C, size: 0x8, addend: 0x0, symName: _stbi_load_from_file, symObjAddr: 0x11420, symBinAddr: 0x100011D60, symSize: 0xF0 }
  - { offsetInCU: 0x8E8FA, offset: 0x8E8FA, size: 0x8, addend: 0x0, symName: __ZL16stbi__start_fileP13stbi__contextP7__sFILE, symObjAddr: 0x11510, symBinAddr: 0x100011E50, symSize: 0x30 }
  - { offsetInCU: 0x8E934, offset: 0x8E934, size: 0x8, addend: 0x0, symName: __ZL31stbi__load_and_postprocess_8bitP13stbi__contextPiS1_S1_i, symObjAddr: 0x11540, symBinAddr: 0x100011E80, symSize: 0x1A0 }
  - { offsetInCU: 0x8E9DF, offset: 0x8E9DF, size: 0x8, addend: 0x0, symName: _stbi_load_from_file_16, symObjAddr: 0x116E0, symBinAddr: 0x100012020, symSize: 0xF0 }
  - { offsetInCU: 0x8EA6D, offset: 0x8EA6D, size: 0x8, addend: 0x0, symName: __ZL32stbi__load_and_postprocess_16bitP13stbi__contextPiS1_S1_i, symObjAddr: 0x117D0, symBinAddr: 0x100012110, symSize: 0x1A0 }
  - { offsetInCU: 0x8EB18, offset: 0x8EB18, size: 0x8, addend: 0x0, symName: _stbi_load_16, symObjAddr: 0x11970, symBinAddr: 0x1000122B0, symSize: 0xA0 }
  - { offsetInCU: 0x8EB9F, offset: 0x8EB9F, size: 0x8, addend: 0x0, symName: _stbi_load_16_from_memory, symObjAddr: 0x11A10, symBinAddr: 0x100012350, symSize: 0xC0 }
  - { offsetInCU: 0x8EC2C, offset: 0x8EC2C, size: 0x8, addend: 0x0, symName: __ZL15stbi__start_memP13stbi__contextPKhi, symObjAddr: 0x11AD0, symBinAddr: 0x100012410, symSize: 0x80 }
  - { offsetInCU: 0x8EC75, offset: 0x8EC75, size: 0x8, addend: 0x0, symName: _stbi_load_16_from_callbacks, symObjAddr: 0x11B50, symBinAddr: 0x100012490, symSize: 0xC0 }
  - { offsetInCU: 0x8ED02, offset: 0x8ED02, size: 0x8, addend: 0x0, symName: __ZL21stbi__start_callbacksP13stbi__contextP17stbi_io_callbacksPv, symObjAddr: 0x11C10, symBinAddr: 0x100012550, symSize: 0xB0 }
  - { offsetInCU: 0x8ED4B, offset: 0x8ED4B, size: 0x8, addend: 0x0, symName: _stbi_load_from_memory, symObjAddr: 0x11CC0, symBinAddr: 0x100012600, symSize: 0xC0 }
  - { offsetInCU: 0x8EDD8, offset: 0x8EDD8, size: 0x8, addend: 0x0, symName: _stbi_load_from_callbacks, symObjAddr: 0x11D80, symBinAddr: 0x1000126C0, symSize: 0xC0 }
  - { offsetInCU: 0x8EE65, offset: 0x8EE65, size: 0x8, addend: 0x0, symName: _stbi_load_gif_from_memory, symObjAddr: 0x11E40, symBinAddr: 0x100012780, symSize: 0x150 }
  - { offsetInCU: 0x8EF21, offset: 0x8EF21, size: 0x8, addend: 0x0, symName: __ZL19stbi__load_gif_mainP13stbi__contextPPiS1_S1_S1_S1_i, symObjAddr: 0x11F90, symBinAddr: 0x1000128D0, symSize: 0x3D0 }
  - { offsetInCU: 0x8F086, offset: 0x8F086, size: 0x8, addend: 0x0, symName: __ZL26stbi__vertical_flip_slicesPviiii, symObjAddr: 0x12360, symBinAddr: 0x100012CA0, symSize: 0x80 }
  - { offsetInCU: 0x8F11D, offset: 0x8F11D, size: 0x8, addend: 0x0, symName: _stbi_loadf_from_memory, symObjAddr: 0x123E0, symBinAddr: 0x100012D20, symSize: 0xC0 }
  - { offsetInCU: 0x8F1AA, offset: 0x8F1AA, size: 0x8, addend: 0x0, symName: __ZL16stbi__loadf_mainP13stbi__contextPiS1_S1_i, symObjAddr: 0x124A0, symBinAddr: 0x100012DE0, symSize: 0x120 }
  - { offsetInCU: 0x8F256, offset: 0x8F256, size: 0x8, addend: 0x0, symName: _stbi_loadf_from_callbacks, symObjAddr: 0x125C0, symBinAddr: 0x100012F00, symSize: 0xC0 }
  - { offsetInCU: 0x8F2E3, offset: 0x8F2E3, size: 0x8, addend: 0x0, symName: _stbi_loadf, symObjAddr: 0x12680, symBinAddr: 0x100012FC0, symSize: 0xA0 }
  - { offsetInCU: 0x8F36A, offset: 0x8F36A, size: 0x8, addend: 0x0, symName: _stbi_loadf_from_file, symObjAddr: 0x12720, symBinAddr: 0x100013060, symSize: 0xB0 }
  - { offsetInCU: 0x8F3E7, offset: 0x8F3E7, size: 0x8, addend: 0x0, symName: _stbi_is_hdr_from_memory, symObjAddr: 0x127D0, symBinAddr: 0x100013110, symSize: 0x80 }
  - { offsetInCU: 0x8F434, offset: 0x8F434, size: 0x8, addend: 0x0, symName: __ZL14stbi__hdr_testP13stbi__context, symObjAddr: 0x12850, symBinAddr: 0x100013190, symSize: 0x60 }
  - { offsetInCU: 0x8F473, offset: 0x8F473, size: 0x8, addend: 0x0, symName: _stbi_is_hdr, symObjAddr: 0x128B0, symBinAddr: 0x1000131F0, symSize: 0x50 }
  - { offsetInCU: 0x8F4BE, offset: 0x8F4BE, size: 0x8, addend: 0x0, symName: _stbi_is_hdr_from_file, symObjAddr: 0x12900, symBinAddr: 0x100013240, symSize: 0xB0 }
  - { offsetInCU: 0x8F51D, offset: 0x8F51D, size: 0x8, addend: 0x0, symName: _stbi_is_hdr_from_callbacks, symObjAddr: 0x129B0, symBinAddr: 0x1000132F0, symSize: 0x80 }
  - { offsetInCU: 0x8F56A, offset: 0x8F56A, size: 0x8, addend: 0x0, symName: _stbi_ldr_to_hdr_gamma, symObjAddr: 0x12A30, symBinAddr: 0x100013370, symSize: 0x20 }
  - { offsetInCU: 0x8F591, offset: 0x8F591, size: 0x8, addend: 0x0, symName: _stbi_ldr_to_hdr_scale, symObjAddr: 0x12A50, symBinAddr: 0x100013390, symSize: 0x20 }
  - { offsetInCU: 0x8F5B8, offset: 0x8F5B8, size: 0x8, addend: 0x0, symName: _stbi_hdr_to_ldr_gamma, symObjAddr: 0x12A70, symBinAddr: 0x1000133B0, symSize: 0x20 }
  - { offsetInCU: 0x8F5DF, offset: 0x8F5DF, size: 0x8, addend: 0x0, symName: _stbi_hdr_to_ldr_scale, symObjAddr: 0x12A90, symBinAddr: 0x1000133D0, symSize: 0x20 }
  - { offsetInCU: 0x8F606, offset: 0x8F606, size: 0x8, addend: 0x0, symName: _stbi_zlib_decode_malloc_guesssize, symObjAddr: 0x12AB0, symBinAddr: 0x1000133F0, symSize: 0x150 }
  - { offsetInCU: 0x8F684, offset: 0x8F684, size: 0x8, addend: 0x0, symName: __ZL12stbi__mallocm, symObjAddr: 0x12C00, symBinAddr: 0x100013540, symSize: 0x20 }
  - { offsetInCU: 0x8F6B3, offset: 0x8F6B3, size: 0x8, addend: 0x0, symName: __ZL13stbi__do_zlibP10stbi__zbufPciii, symObjAddr: 0x12C20, symBinAddr: 0x100013560, symSize: 0x70 }
  - { offsetInCU: 0x8F71E, offset: 0x8F71E, size: 0x8, addend: 0x0, symName: _stbi_zlib_decode_malloc, symObjAddr: 0x12C90, symBinAddr: 0x1000135D0, symSize: 0x30 }
  - { offsetInCU: 0x8F767, offset: 0x8F767, size: 0x8, addend: 0x0, symName: _stbi_zlib_decode_malloc_guesssize_headerflag, symObjAddr: 0x12CC0, symBinAddr: 0x100013600, symSize: 0x160 }
  - { offsetInCU: 0x8F7F5, offset: 0x8F7F5, size: 0x8, addend: 0x0, symName: _stbi_zlib_decode_buffer, symObjAddr: 0x12E20, symBinAddr: 0x100013760, symSize: 0xF0 }
  - { offsetInCU: 0x8F862, offset: 0x8F862, size: 0x8, addend: 0x0, symName: _stbi_zlib_decode_noheader_malloc, symObjAddr: 0x12F10, symBinAddr: 0x100013850, symSize: 0x150 }
  - { offsetInCU: 0x8F8D0, offset: 0x8F8D0, size: 0x8, addend: 0x0, symName: _stbi_zlib_decode_noheader_buffer, symObjAddr: 0x13060, symBinAddr: 0x1000139A0, symSize: 0xF0 }
  - { offsetInCU: 0x8F93D, offset: 0x8F93D, size: 0x8, addend: 0x0, symName: _stbi_set_unpremultiply_on_load, symObjAddr: 0x13150, symBinAddr: 0x100013A90, symSize: 0x20 }
  - { offsetInCU: 0x8F964, offset: 0x8F964, size: 0x8, addend: 0x0, symName: _stbi_convert_iphone_png_to_rgb, symObjAddr: 0x13170, symBinAddr: 0x100013AB0, symSize: 0x20 }
  - { offsetInCU: 0x8F98B, offset: 0x8F98B, size: 0x8, addend: 0x0, symName: _stbi_set_unpremultiply_on_load_thread, symObjAddr: 0x13190, symBinAddr: 0x100013AD0, symSize: 0x30 }
  - { offsetInCU: 0x8F9B2, offset: 0x8F9B2, size: 0x8, addend: 0x0, symName: _stbi_convert_iphone_png_to_rgb_thread, symObjAddr: 0x131C0, symBinAddr: 0x100013B00, symSize: 0x30 }
  - { offsetInCU: 0x8F9D9, offset: 0x8F9D9, size: 0x8, addend: 0x0, symName: _stbi_info, symObjAddr: 0x131F0, symBinAddr: 0x100013B30, symSize: 0x80 }
  - { offsetInCU: 0x8FA51, offset: 0x8FA51, size: 0x8, addend: 0x0, symName: _stbi_info_from_file, symObjAddr: 0x13270, symBinAddr: 0x100013BB0, symSize: 0xD0 }
  - { offsetInCU: 0x8FAE0, offset: 0x8FAE0, size: 0x8, addend: 0x0, symName: __ZL15stbi__info_mainP13stbi__contextPiS1_S1_, symObjAddr: 0x13340, symBinAddr: 0x100013C80, symSize: 0x1B0 }
  - { offsetInCU: 0x8FB3C, offset: 0x8FB3C, size: 0x8, addend: 0x0, symName: _stbi_is_16_bit, symObjAddr: 0x134F0, symBinAddr: 0x100013E30, symSize: 0x70 }
  - { offsetInCU: 0x8FB87, offset: 0x8FB87, size: 0x8, addend: 0x0, symName: _stbi_is_16_bit_from_file, symObjAddr: 0x13560, symBinAddr: 0x100013EA0, symSize: 0xB0 }
  - { offsetInCU: 0x8FBE6, offset: 0x8FBE6, size: 0x8, addend: 0x0, symName: __ZL16stbi__is_16_mainP13stbi__context, symObjAddr: 0x13610, symBinAddr: 0x100013F50, symSize: 0x80 }
  - { offsetInCU: 0x8FC15, offset: 0x8FC15, size: 0x8, addend: 0x0, symName: _stbi_info_from_memory, symObjAddr: 0x13690, symBinAddr: 0x100013FD0, symSize: 0xB0 }
  - { offsetInCU: 0x8FC92, offset: 0x8FC92, size: 0x8, addend: 0x0, symName: _stbi_info_from_callbacks, symObjAddr: 0x13740, symBinAddr: 0x100014080, symSize: 0xB0 }
  - { offsetInCU: 0x8FD0F, offset: 0x8FD0F, size: 0x8, addend: 0x0, symName: _stbi_is_16_bit_from_memory, symObjAddr: 0x137F0, symBinAddr: 0x100014130, symSize: 0x80 }
  - { offsetInCU: 0x8FD5C, offset: 0x8FD5C, size: 0x8, addend: 0x0, symName: _stbi_is_16_bit_from_callbacks, symObjAddr: 0x13870, symBinAddr: 0x1000141B0, symSize: 0x80 }
  - { offsetInCU: 0x8FDA8, offset: 0x8FDA8, size: 0x8, addend: 0x0, symName: __Z22CreateCubeModelBuilderv, symObjAddr: 0x138F0, symBinAddr: 0x100014230, symSize: 0x190 }
  - { offsetInCU: 0x8FDD7, offset: 0x8FDD7, size: 0x8, addend: 0x0, symName: __ZNSt3__16vectorI6VertexNS_9allocatorIS1_EEEC1B8ue170006Ev, symObjAddr: 0x13A80, symBinAddr: 0x1000143C0, symSize: 0x20 }
  - { offsetInCU: 0x8FE01, offset: 0x8FE01, size: 0x8, addend: 0x0, symName: __ZNSt3__16vectorIjNS_9allocatorIjEEEC1B8ue170006Ev, symObjAddr: 0x13AA0, symBinAddr: 0x1000143E0, symSize: 0x20 }
  - { offsetInCU: 0x8FE2B, offset: 0x8FE2B, size: 0x8, addend: 0x0, symName: __ZNSt3__16vectorI6VertexNS_9allocatorIS1_EEEaSB8ue170006ESt16initializer_listIS1_E, symObjAddr: 0x13AC0, symBinAddr: 0x100014400, symSize: 0x50 }
  - { offsetInCU: 0x8FE60, offset: 0x8FE60, size: 0x8, addend: 0x0, symName: __ZNSt3__16vectorIjNS_9allocatorIjEEEaSB8ue170006ESt16initializer_listIjE, symObjAddr: 0x13B10, symBinAddr: 0x100014450, symSize: 0x50 }
  - { offsetInCU: 0x8FEC7, offset: 0x8FEC7, size: 0x8, addend: 0x0, symName: __ZN7BuilderD1Ev, symObjAddr: 0x13B60, symBinAddr: 0x1000144A0, symSize: 0x20 }
  - { offsetInCU: 0x8FEF3, offset: 0x8FEF3, size: 0x8, addend: 0x0, symName: __Z16CreateCubeModel2v, symObjAddr: 0x13B80, symBinAddr: 0x1000144C0, symSize: 0xB0 }
  - { offsetInCU: 0x8FF11, offset: 0x8FF11, size: 0x8, addend: 0x0, symName: __ZNSt3__16vectorI6VertexNS_9allocatorIS1_EEEC1B8ue170006ESt16initializer_listIS1_E, symObjAddr: 0x13C30, symBinAddr: 0x100014570, symSize: 0x30 }
  - { offsetInCU: 0x8FF4B, offset: 0x8FF4B, size: 0x8, addend: 0x0, symName: __Z14findMemoryTypejjP10ZaynMemory, symObjAddr: 0x13C60, symBinAddr: 0x1000145A0, symSize: 0x120 }
  - { offsetInCU: 0x8FFC0, offset: 0x8FFC0, size: 0x8, addend: 0x0, symName: __Z10CopyBufferP10VkBuffer_TS0_yP10ZaynMemory, symObjAddr: 0x13D80, symBinAddr: 0x1000146C0, symSize: 0x160 }
  - { offsetInCU: 0x9005C, offset: 0x9005C, size: 0x8, addend: 0x0, symName: __Z12CreateBufferyjjRP10VkBuffer_TRP16VkDeviceMemory_TP10ZaynMemory, symObjAddr: 0x13EE0, symBinAddr: 0x100014820, symSize: 0x1F0 }
  - { offsetInCU: 0x900F7, offset: 0x900F7, size: 0x8, addend: 0x0, symName: __Z19CreateVertexBuffersRKNSt3__16vectorI6VertexNS_9allocatorIS1_EEEEP5ModelP10ZaynMemory, symObjAddr: 0x140D0, symBinAddr: 0x100014A10, symSize: 0x180 }
  - { offsetInCU: 0x90176, offset: 0x90176, size: 0x8, addend: 0x0, symName: __ZNKSt3__16vectorI6VertexNS_9allocatorIS1_EEE4sizeB8ue170006Ev, symObjAddr: 0x14250, symBinAddr: 0x100014B90, symSize: 0x20 }
  - { offsetInCU: 0x9019C, offset: 0x9019C, size: 0x8, addend: 0x0, symName: __ZNKSt3__16vectorI6VertexNS_9allocatorIS1_EEE4dataB8ue170006Ev, symObjAddr: 0x14270, symBinAddr: 0x100014BB0, symSize: 0x20 }
  - { offsetInCU: 0x901C2, offset: 0x901C2, size: 0x8, addend: 0x0, symName: __Z17CreateIndexBufferRKNSt3__16vectorIjNS_9allocatorIjEEEEP5ModelP10ZaynMemory, symObjAddr: 0x14290, symBinAddr: 0x100014BD0, symSize: 0x150 }
  - { offsetInCU: 0x9024B, offset: 0x9024B, size: 0x8, addend: 0x0, symName: __ZNKSt3__16vectorIjNS_9allocatorIjEEE4sizeB8ue170006Ev, symObjAddr: 0x143E0, symBinAddr: 0x100014D20, symSize: 0x20 }
  - { offsetInCU: 0x90271, offset: 0x90271, size: 0x8, addend: 0x0, symName: __ZNKSt3__16vectorIjNS_9allocatorIjEEE4dataB8ue170006Ev, symObjAddr: 0x14400, symBinAddr: 0x100014D40, symSize: 0x20 }
  - { offsetInCU: 0x90297, offset: 0x90297, size: 0x8, addend: 0x0, symName: __Z20CreateUniformBuffersP10ZaynMemory, symObjAddr: 0x14420, symBinAddr: 0x100014D60, symSize: 0x150 }
  - { offsetInCU: 0x902F1, offset: 0x902F1, size: 0x8, addend: 0x0, symName: __ZNSt3__16vectorIP10VkBuffer_TNS_9allocatorIS2_EEE6resizeEm, symObjAddr: 0x14570, symBinAddr: 0x100014EB0, symSize: 0x80 }
  - { offsetInCU: 0x90338, offset: 0x90338, size: 0x8, addend: 0x0, symName: __ZNSt3__16vectorIP16VkDeviceMemory_TNS_9allocatorIS2_EEE6resizeEm, symObjAddr: 0x145F0, symBinAddr: 0x100014F30, symSize: 0x80 }
  - { offsetInCU: 0x9037F, offset: 0x9037F, size: 0x8, addend: 0x0, symName: __ZNSt3__16vectorIPvNS_9allocatorIS1_EEE6resizeEm, symObjAddr: 0x14670, symBinAddr: 0x100014FB0, symSize: 0x80 }
  - { offsetInCU: 0x903C6, offset: 0x903C6, size: 0x8, addend: 0x0, symName: __ZNSt3__16vectorIP10VkBuffer_TNS_9allocatorIS2_EEEixB8ue170006Em, symObjAddr: 0x146F0, symBinAddr: 0x100015030, symSize: 0x20 }
  - { offsetInCU: 0x903FD, offset: 0x903FD, size: 0x8, addend: 0x0, symName: __ZNSt3__16vectorIP16VkDeviceMemory_TNS_9allocatorIS2_EEEixB8ue170006Em, symObjAddr: 0x14710, symBinAddr: 0x100015050, symSize: 0x20 }
  - { offsetInCU: 0x90434, offset: 0x90434, size: 0x8, addend: 0x0, symName: __ZNSt3__16vectorIPvNS_9allocatorIS1_EEEixB8ue170006Em, symObjAddr: 0x14730, symBinAddr: 0x100015070, symSize: 0x20 }
  - { offsetInCU: 0x9046B, offset: 0x9046B, size: 0x8, addend: 0x0, symName: __Z9DrawModelP17VkCommandBuffer_TP5Model, symObjAddr: 0x14750, symBinAddr: 0x100015090, symSize: 0x70 }
  - { offsetInCU: 0x904A5, offset: 0x904A5, size: 0x8, addend: 0x0, symName: __Z9BindModelP17VkCommandBuffer_TP5Model, symObjAddr: 0x147C0, symBinAddr: 0x100015100, symSize: 0xA0 }
  - { offsetInCU: 0x904FF, offset: 0x904FF, size: 0x8, addend: 0x0, symName: __Z9ModelInitPP10VkDevice_T7BuilderP5ModelP10ZaynMemory, symObjAddr: 0x14860, symBinAddr: 0x1000151A0, symSize: 0x80 }
  - { offsetInCU: 0x90557, offset: 0x90557, size: 0x8, addend: 0x0, symName: __Z22getBindingDescriptionsv, symObjAddr: 0x148E0, symBinAddr: 0x100015220, symSize: 0x90 }
  - { offsetInCU: 0x90588, offset: 0x90588, size: 0x8, addend: 0x0, symName: __ZNSt3__16vectorI31VkVertexInputBindingDescriptionNS_9allocatorIS1_EEEC1Em, symObjAddr: 0x14970, symBinAddr: 0x1000152B0, symSize: 0x30 }
  - { offsetInCU: 0x905C3, offset: 0x905C3, size: 0x8, addend: 0x0, symName: __ZNSt3__16vectorI31VkVertexInputBindingDescriptionNS_9allocatorIS1_EEEixB8ue170006Em, symObjAddr: 0x149A0, symBinAddr: 0x1000152E0, symSize: 0x20 }
  - { offsetInCU: 0x905FA, offset: 0x905FA, size: 0x8, addend: 0x0, symName: __ZNSt3__16vectorI31VkVertexInputBindingDescriptionNS_9allocatorIS1_EEED1B8ue170006Ev, symObjAddr: 0x149C0, symBinAddr: 0x100015300, symSize: 0x20 }
  - { offsetInCU: 0x90623, offset: 0x90623, size: 0x8, addend: 0x0, symName: __Z24getAttributeDescriptionsv, symObjAddr: 0x149E0, symBinAddr: 0x100015320, symSize: 0x190 }
  - { offsetInCU: 0x90654, offset: 0x90654, size: 0x8, addend: 0x0, symName: __ZNSt3__16vectorI33VkVertexInputAttributeDescriptionNS_9allocatorIS1_EEEC1Em, symObjAddr: 0x14B70, symBinAddr: 0x1000154B0, symSize: 0x30 }
  - { offsetInCU: 0x9068F, offset: 0x9068F, size: 0x8, addend: 0x0, symName: __ZNSt3__16vectorI33VkVertexInputAttributeDescriptionNS_9allocatorIS1_EEEixB8ue170006Em, symObjAddr: 0x14BA0, symBinAddr: 0x1000154E0, symSize: 0x20 }
  - { offsetInCU: 0x906C6, offset: 0x906C6, size: 0x8, addend: 0x0, symName: __ZNSt3__16vectorI33VkVertexInputAttributeDescriptionNS_9allocatorIS1_EEED1B8ue170006Ev, symObjAddr: 0x14BC0, symBinAddr: 0x100015500, symSize: 0x20 }
  - { offsetInCU: 0x906F0, offset: 0x906F0, size: 0x8, addend: 0x0, symName: __Z21CreateDescriptorPoolsP10ZaynMemory, symObjAddr: 0x14BE0, symBinAddr: 0x100015520, symSize: 0x100 }
  - { offsetInCU: 0x9073B, offset: 0x9073B, size: 0x8, addend: 0x0, symName: __Z20CreateDescriptorSetsP10ZaynMemory, symObjAddr: 0x14CE0, symBinAddr: 0x100015620, symSize: 0x2A0 }
  - { offsetInCU: 0x907D8, offset: 0x907D8, size: 0x8, addend: 0x0, symName: __ZNSt3__16vectorIP23VkDescriptorSetLayout_TNS_9allocatorIS2_EEEC1EmRKS2_, symObjAddr: 0x14F80, symBinAddr: 0x1000158C0, symSize: 0x30 }
  - { offsetInCU: 0x90822, offset: 0x90822, size: 0x8, addend: 0x0, symName: __ZNSt3__16vectorIP23VkDescriptorSetLayout_TNS_9allocatorIS2_EEE4dataB8ue170006Ev, symObjAddr: 0x14FB0, symBinAddr: 0x1000158F0, symSize: 0x20 }
  - { offsetInCU: 0x90848, offset: 0x90848, size: 0x8, addend: 0x0, symName: __ZNSt3__16vectorIP17VkDescriptorSet_TNS_9allocatorIS2_EEE6resizeEm, symObjAddr: 0x14FD0, symBinAddr: 0x100015910, symSize: 0x80 }
  - { offsetInCU: 0x9088F, offset: 0x9088F, size: 0x8, addend: 0x0, symName: __ZNSt3__16vectorIP17VkDescriptorSet_TNS_9allocatorIS2_EEE4dataB8ue170006Ev, symObjAddr: 0x15050, symBinAddr: 0x100015990, symSize: 0x20 }
  - { offsetInCU: 0x908B5, offset: 0x908B5, size: 0x8, addend: 0x0, symName: __ZNSt3__16vectorIP17VkDescriptorSet_TNS_9allocatorIS2_EEEixB8ue170006Em, symObjAddr: 0x15070, symBinAddr: 0x1000159B0, symSize: 0x20 }
  - { offsetInCU: 0x908EC, offset: 0x908EC, size: 0x8, addend: 0x0, symName: __ZNSt3__16vectorIP23VkDescriptorSetLayout_TNS_9allocatorIS2_EEED1B8ue170006Ev, symObjAddr: 0x15090, symBinAddr: 0x1000159D0, symSize: 0x20 }
  - { offsetInCU: 0x90915, offset: 0x90915, size: 0x8, addend: 0x0, symName: __Z20AllocateTriangleMeshP4Mesh, symObjAddr: 0x150B0, symBinAddr: 0x1000159F0, symSize: 0x190 }
  - { offsetInCU: 0x9093D, offset: 0x9093D, size: 0x8, addend: 0x0, symName: __Z2V3fff, symObjAddr: 0x15240, symBinAddr: 0x100015B80, symSize: 0x50 }
  - { offsetInCU: 0x90993, offset: 0x90993, size: 0x8, addend: 0x0, symName: __Z16AllocateQuadMeshP4Mesh, symObjAddr: 0x15290, symBinAddr: 0x100015BD0, symSize: 0x310 }
  - { offsetInCU: 0x909BB, offset: 0x909BB, size: 0x8, addend: 0x0, symName: __Z2V2ii, symObjAddr: 0x155A0, symBinAddr: 0x100015EE0, symSize: 0x30 }
  - { offsetInCU: 0x90A04, offset: 0x90A04, size: 0x8, addend: 0x0, symName: __ZNSt3__16vectorIPKcNS_9allocatorIS2_EEEC1B8ue170006ESt16initializer_listIS2_E, symObjAddr: 0x155D0, symBinAddr: 0x100015F10, symSize: 0x30 }
  - { offsetInCU: 0x90A3E, offset: 0x90A3E, size: 0x8, addend: 0x0, symName: __Z28CreateDebugUtilsMessengerEXTP12VkInstance_TPK34VkDebugUtilsMessengerCreateInfoEXTPK21VkAllocationCallbacksPP26VkDebugUtilsMessengerEXT_T, symObjAddr: 0x15600, symBinAddr: 0x100015F40, symSize: 0x70 }
  - { offsetInCU: 0x90AA2, offset: 0x90AA2, size: 0x8, addend: 0x0, symName: __Z29DestroyDebugUtilsMessengerEXTP12VkInstance_TP26VkDebugUtilsMessengerEXT_TPK21VkAllocationCallbacks, symObjAddr: 0x15670, symBinAddr: 0x100015FB0, symSize: 0x50 }
  - { offsetInCU: 0x90AF4, offset: 0x90AF4, size: 0x8, addend: 0x0, symName: __Z27checkValidationLayerSupportv, symObjAddr: 0x156C0, symBinAddr: 0x100016000, symSize: 0x130 }
  - { offsetInCU: 0x90BBC, offset: 0x90BBC, size: 0x8, addend: 0x0, symName: __ZNKSt3__16vectorIPKcNS_9allocatorIS2_EEE5beginB8ue170006Ev, symObjAddr: 0x157F0, symBinAddr: 0x100016130, symSize: 0x30 }
  - { offsetInCU: 0x90BE4, offset: 0x90BE4, size: 0x8, addend: 0x0, symName: __ZNKSt3__16vectorIPKcNS_9allocatorIS2_EEE3endB8ue170006Ev, symObjAddr: 0x15820, symBinAddr: 0x100016160, symSize: 0x30 }
  - { offsetInCU: 0x90C0C, offset: 0x90C0C, size: 0x8, addend: 0x0, symName: __ZNKSt3__111__wrap_iterIPKPKcEdeB8ue170006Ev, symObjAddr: 0x15880, symBinAddr: 0x1000161C0, symSize: 0x20 }
  - { offsetInCU: 0x90C32, offset: 0x90C32, size: 0x8, addend: 0x0, symName: __ZNSt3__111__wrap_iterIPKPKcEppB8ue170006Ev, symObjAddr: 0x158A0, symBinAddr: 0x1000161E0, symSize: 0x20 }
  - { offsetInCU: 0x90C57, offset: 0x90C57, size: 0x8, addend: 0x0, symName: __Z21getRequiredExtensionsv, symObjAddr: 0x158C0, symBinAddr: 0x100016200, symSize: 0x200 }
  - { offsetInCU: 0x90D0E, offset: 0x90D0E, size: 0x8, addend: 0x0, symName: __ZNSt3__16vectorIPKcNS_9allocatorIS2_EEEC1IPS2_Li0EEET_S8_, symObjAddr: 0x15AC0, symBinAddr: 0x100016400, symSize: 0x30 }
  - { offsetInCU: 0x90D67, offset: 0x90D67, size: 0x8, addend: 0x0, symName: __ZNSt3__16vectorIPKcNS_9allocatorIS2_EEE9push_backB8ue170006EOS2_, symObjAddr: 0x15AF0, symBinAddr: 0x100016430, symSize: 0x60 }
  - { offsetInCU: 0x90D9E, offset: 0x90D9E, size: 0x8, addend: 0x0, symName: __ZNSt3__16vectorI21VkExtensionPropertiesNS_9allocatorIS1_EEEC1Em, symObjAddr: 0x15B50, symBinAddr: 0x100016490, symSize: 0x30 }
  - { offsetInCU: 0x90DD9, offset: 0x90DD9, size: 0x8, addend: 0x0, symName: __ZNSt3__16vectorI21VkExtensionPropertiesNS_9allocatorIS1_EEE4dataB8ue170006Ev, symObjAddr: 0x15B80, symBinAddr: 0x1000164C0, symSize: 0x20 }
  - { offsetInCU: 0x90DFF, offset: 0x90DFF, size: 0x8, addend: 0x0, symName: __ZNSt3__16vectorI21VkExtensionPropertiesNS_9allocatorIS1_EEE5beginB8ue170006Ev, symObjAddr: 0x15BA0, symBinAddr: 0x1000164E0, symSize: 0x30 }
  - { offsetInCU: 0x90E27, offset: 0x90E27, size: 0x8, addend: 0x0, symName: __ZNSt3__16vectorI21VkExtensionPropertiesNS_9allocatorIS1_EEE3endB8ue170006Ev, symObjAddr: 0x15BD0, symBinAddr: 0x100016510, symSize: 0x30 }
  - { offsetInCU: 0x90E4F, offset: 0x90E4F, size: 0x8, addend: 0x0, symName: __ZNKSt3__111__wrap_iterIP21VkExtensionPropertiesEdeB8ue170006Ev, symObjAddr: 0x15C30, symBinAddr: 0x100016570, symSize: 0x20 }
  - { offsetInCU: 0x90E75, offset: 0x90E75, size: 0x8, addend: 0x0, symName: __ZNSt3__111__wrap_iterIP21VkExtensionPropertiesEppB8ue170006Ev, symObjAddr: 0x15C50, symBinAddr: 0x100016590, symSize: 0x20 }
  - { offsetInCU: 0x90E9B, offset: 0x90E9B, size: 0x8, addend: 0x0, symName: __ZNSt3__16vectorI21VkExtensionPropertiesNS_9allocatorIS1_EEED1B8ue170006Ev, symObjAddr: 0x15C70, symBinAddr: 0x1000165B0, symSize: 0x20 }
  - { offsetInCU: 0x90EC4, offset: 0x90EC4, size: 0x8, addend: 0x0, symName: __Z32populateDebugMessengerCreateInfoR34VkDebugUtilsMessengerCreateInfoEXT, symObjAddr: 0x15C90, symBinAddr: 0x1000165D0, symSize: 0x70 }
  - { offsetInCU: 0x90EED, offset: 0x90EED, size: 0x8, addend: 0x0, symName: __ZL13debugCallback38VkDebugUtilsMessageSeverityFlagBitsEXTjPK36VkDebugUtilsMessengerCallbackDataEXTPv, symObjAddr: 0x15D00, symBinAddr: 0x100016640, symSize: 0x50 }
  - { offsetInCU: 0x90F43, offset: 0x90F43, size: 0x8, addend: 0x0, symName: __Z19SetupDebugMessengerv, symObjAddr: 0x15D50, symBinAddr: 0x100016690, symSize: 0xC0 }
  - { offsetInCU: 0x90F7A, offset: 0x90F7A, size: 0x8, addend: 0x0, symName: __Z21rateDeviceSuitabilityP18VkPhysicalDevice_T, symObjAddr: 0x15E10, symBinAddr: 0x100016750, symSize: 0x140 }
  - { offsetInCU: 0x90FD4, offset: 0x90FD4, size: 0x8, addend: 0x0, symName: __Z19FindSupportedFormatRKNSt3__16vectorI8VkFormatNS_9allocatorIS1_EEEE13VkImageTilingjP10ZaynMemory, symObjAddr: 0x15F50, symBinAddr: 0x100016890, symSize: 0x140 }
  - { offsetInCU: 0x9109C, offset: 0x9109C, size: 0x8, addend: 0x0, symName: __ZNKSt3__16vectorI8VkFormatNS_9allocatorIS1_EEE5beginB8ue170006Ev, symObjAddr: 0x16090, symBinAddr: 0x1000169D0, symSize: 0x30 }
  - { offsetInCU: 0x910C4, offset: 0x910C4, size: 0x8, addend: 0x0, symName: __ZNKSt3__16vectorI8VkFormatNS_9allocatorIS1_EEE3endB8ue170006Ev, symObjAddr: 0x160C0, symBinAddr: 0x100016A00, symSize: 0x30 }
  - { offsetInCU: 0x910EC, offset: 0x910EC, size: 0x8, addend: 0x0, symName: __ZNKSt3__111__wrap_iterIPK8VkFormatEdeB8ue170006Ev, symObjAddr: 0x16120, symBinAddr: 0x100016A60, symSize: 0x20 }
  - { offsetInCU: 0x91112, offset: 0x91112, size: 0x8, addend: 0x0, symName: __ZNSt3__111__wrap_iterIPK8VkFormatEppB8ue170006Ev, symObjAddr: 0x16140, symBinAddr: 0x100016A80, symSize: 0x20 }
  - { offsetInCU: 0x91137, offset: 0x91137, size: 0x8, addend: 0x0, symName: __Z15FindDepthFormatP10ZaynMemory, symObjAddr: 0x16160, symBinAddr: 0x100016AA0, symSize: 0xC0 }
  - { offsetInCU: 0x91164, offset: 0x91164, size: 0x8, addend: 0x0, symName: __ZNSt3__16vectorI8VkFormatNS_9allocatorIS1_EEEC1B8ue170006ESt16initializer_listIS1_E, symObjAddr: 0x16220, symBinAddr: 0x100016B60, symSize: 0x30 }
  - { offsetInCU: 0x9119F, offset: 0x9119F, size: 0x8, addend: 0x0, symName: __ZNSt3__16vectorI8VkFormatNS_9allocatorIS1_EEED1B8ue170006Ev, symObjAddr: 0x16250, symBinAddr: 0x100016B90, symSize: 0x20 }
  - { offsetInCU: 0x911C8, offset: 0x911C8, size: 0x8, addend: 0x0, symName: __Z19HasStencilComponent8VkFormat, symObjAddr: 0x16270, symBinAddr: 0x100016BB0, symSize: 0x30 }
  - { offsetInCU: 0x911F4, offset: 0x911F4, size: 0x8, addend: 0x0, symName: __Z17findQueueFamiliesP18VkPhysicalDevice_TP10ZaynMemory, symObjAddr: 0x162A0, symBinAddr: 0x100016BE0, symSize: 0x1C0 }
  - { offsetInCU: 0x91384, offset: 0x91384, size: 0x8, addend: 0x0, symName: __ZN18QueueFamilyIndicesC1Ev, symObjAddr: 0x16460, symBinAddr: 0x100016DA0, symSize: 0x20 }
  - { offsetInCU: 0x913B0, offset: 0x913B0, size: 0x8, addend: 0x0, symName: __ZNSt3__16vectorI23VkQueueFamilyPropertiesNS_9allocatorIS1_EEEC1Em, symObjAddr: 0x16480, symBinAddr: 0x100016DC0, symSize: 0x30 }
  - { offsetInCU: 0x913EB, offset: 0x913EB, size: 0x8, addend: 0x0, symName: __ZNSt3__16vectorI23VkQueueFamilyPropertiesNS_9allocatorIS1_EEE4dataB8ue170006Ev, symObjAddr: 0x164B0, symBinAddr: 0x100016DF0, symSize: 0x20 }
  - { offsetInCU: 0x91411, offset: 0x91411, size: 0x8, addend: 0x0, symName: __ZNSt3__16vectorI23VkQueueFamilyPropertiesNS_9allocatorIS1_EEE5beginB8ue170006Ev, symObjAddr: 0x164D0, symBinAddr: 0x100016E10, symSize: 0x30 }
  - { offsetInCU: 0x91439, offset: 0x91439, size: 0x8, addend: 0x0, symName: __ZNSt3__16vectorI23VkQueueFamilyPropertiesNS_9allocatorIS1_EEE3endB8ue170006Ev, symObjAddr: 0x16500, symBinAddr: 0x100016E40, symSize: 0x30 }
  - { offsetInCU: 0x91461, offset: 0x91461, size: 0x8, addend: 0x0, symName: __ZNKSt3__111__wrap_iterIP23VkQueueFamilyPropertiesEdeB8ue170006Ev, symObjAddr: 0x16560, symBinAddr: 0x100016EA0, symSize: 0x20 }
  - { offsetInCU: 0x91487, offset: 0x91487, size: 0x8, addend: 0x0, symName: __ZNSt3__18optionalIjEaSB8ue170006IRivEERS1_OT_, symObjAddr: 0x16580, symBinAddr: 0x100016EC0, symSize: 0x60 }
  - { offsetInCU: 0x914C6, offset: 0x914C6, size: 0x8, addend: 0x0, symName: __ZN18QueueFamilyIndices10isCompleteEv, symObjAddr: 0x165E0, symBinAddr: 0x100016F20, symSize: 0x50 }
  - { offsetInCU: 0x914EC, offset: 0x914EC, size: 0x8, addend: 0x0, symName: __ZNSt3__111__wrap_iterIP23VkQueueFamilyPropertiesEppB8ue170006Ev, symObjAddr: 0x16630, symBinAddr: 0x100016F70, symSize: 0x20 }
  - { offsetInCU: 0x91512, offset: 0x91512, size: 0x8, addend: 0x0, symName: __ZNSt3__16vectorI23VkQueueFamilyPropertiesNS_9allocatorIS1_EEED1B8ue170006Ev, symObjAddr: 0x16650, symBinAddr: 0x100016F90, symSize: 0x20 }
  - { offsetInCU: 0x9153B, offset: 0x9153B, size: 0x8, addend: 0x0, symName: __Z27checkDeviceExtensionSupportP18VkPhysicalDevice_T, symObjAddr: 0x16670, symBinAddr: 0x100016FB0, symSize: 0x1F0 }
  - { offsetInCU: 0x915E4, offset: 0x915E4, size: 0x8, addend: 0x0, symName: __ZNSt3__13setINS_12basic_stringIcNS_11char_traitsIcEENS_9allocatorIcEEEENS_4lessIS6_EENS4_IS6_EEEC1B8ue170006INS_11__wrap_iterIPKPKcEEEET_SI_RKS8_, symObjAddr: 0x16860, symBinAddr: 0x1000171A0, symSize: 0x40 }
  - { offsetInCU: 0x91644, offset: 0x91644, size: 0x8, addend: 0x0, symName: __ZNSt3__13setINS_12basic_stringIcNS_11char_traitsIcEENS_9allocatorIcEEEENS_4lessIS6_EENS4_IS6_EEE5eraseB8ue170006ERKS6_, symObjAddr: 0x168A0, symBinAddr: 0x1000171E0, symSize: 0x30 }
  - { offsetInCU: 0x91679, offset: 0x91679, size: 0x8, addend: 0x0, symName: __ZNKSt3__13setINS_12basic_stringIcNS_11char_traitsIcEENS_9allocatorIcEEEENS_4lessIS6_EENS4_IS6_EEE5emptyB8ue170006Ev, symObjAddr: 0x168D0, symBinAddr: 0x100017210, symSize: 0x30 }
  - { offsetInCU: 0x9169E, offset: 0x9169E, size: 0x8, addend: 0x0, symName: __Z21querySwapChainSupportP18VkPhysicalDevice_TP10ZaynMemory, symObjAddr: 0x16900, symBinAddr: 0x100017240, symSize: 0x1A0 }
  - { offsetInCU: 0x9181F, offset: 0x9181F, size: 0x8, addend: 0x0, symName: __ZN23SwapChainSupportDetailsC1Ev, symObjAddr: 0x16AA0, symBinAddr: 0x1000173E0, symSize: 0x20 }
  - { offsetInCU: 0x9184B, offset: 0x9184B, size: 0x8, addend: 0x0, symName: __ZNSt3__16vectorI18VkSurfaceFormatKHRNS_9allocatorIS1_EEE6resizeEm, symObjAddr: 0x16AC0, symBinAddr: 0x100017400, symSize: 0x80 }
  - { offsetInCU: 0x91892, offset: 0x91892, size: 0x8, addend: 0x0, symName: __ZNSt3__16vectorI18VkSurfaceFormatKHRNS_9allocatorIS1_EEE4dataB8ue170006Ev, symObjAddr: 0x16B40, symBinAddr: 0x100017480, symSize: 0x20 }
  - { offsetInCU: 0x918B8, offset: 0x918B8, size: 0x8, addend: 0x0, symName: __ZNSt3__16vectorI16VkPresentModeKHRNS_9allocatorIS1_EEE6resizeEm, symObjAddr: 0x16B60, symBinAddr: 0x1000174A0, symSize: 0x80 }
  - { offsetInCU: 0x918FF, offset: 0x918FF, size: 0x8, addend: 0x0, symName: __ZNSt3__16vectorI16VkPresentModeKHRNS_9allocatorIS1_EEE4dataB8ue170006Ev, symObjAddr: 0x16BE0, symBinAddr: 0x100017520, symSize: 0x20 }
  - { offsetInCU: 0x91925, offset: 0x91925, size: 0x8, addend: 0x0, symName: __ZN23SwapChainSupportDetailsD1Ev, symObjAddr: 0x16C00, symBinAddr: 0x100017540, symSize: 0x20 }
  - { offsetInCU: 0x91950, offset: 0x91950, size: 0x8, addend: 0x0, symName: __Z16isDeviceSuitableP18VkPhysicalDevice_TP10ZaynMemory, symObjAddr: 0x16C20, symBinAddr: 0x100017560, symSize: 0x130 }
  - { offsetInCU: 0x919EF, offset: 0x919EF, size: 0x8, addend: 0x0, symName: __ZNKSt3__16vectorI18VkSurfaceFormatKHRNS_9allocatorIS1_EEE5emptyB8ue170006Ev, symObjAddr: 0x16D50, symBinAddr: 0x100017690, symSize: 0x20 }
  - { offsetInCU: 0x91A15, offset: 0x91A15, size: 0x8, addend: 0x0, symName: __ZNKSt3__16vectorI16VkPresentModeKHRNS_9allocatorIS1_EEE5emptyB8ue170006Ev, symObjAddr: 0x16D70, symBinAddr: 0x1000176B0, symSize: 0x20 }
  - { offsetInCU: 0x91A3B, offset: 0x91A3B, size: 0x8, addend: 0x0, symName: __Z21printDeviceExtensionsP18VkPhysicalDevice_T, symObjAddr: 0x16D90, symBinAddr: 0x1000176D0, symSize: 0x160 }
  - { offsetInCU: 0x91ADE, offset: 0x91ADE, size: 0x8, addend: 0x0, symName: __Z18PickPhysicalDeviceP10ZaynMemory, symObjAddr: 0x16EF0, symBinAddr: 0x100017830, symSize: 0x210 }
  - { offsetInCU: 0x91B79, offset: 0x91B79, size: 0x8, addend: 0x0, symName: __ZNSt3__16vectorIP18VkPhysicalDevice_TNS_9allocatorIS2_EEEC1Em, symObjAddr: 0x17100, symBinAddr: 0x100017A40, symSize: 0x30 }
  - { offsetInCU: 0x91BB4, offset: 0x91BB4, size: 0x8, addend: 0x0, symName: __ZNSt3__16vectorIP18VkPhysicalDevice_TNS_9allocatorIS2_EEE4dataB8ue170006Ev, symObjAddr: 0x17130, symBinAddr: 0x100017A70, symSize: 0x20 }
  - { offsetInCU: 0x91BDA, offset: 0x91BDA, size: 0x8, addend: 0x0, symName: __ZNSt3__16vectorIP18VkPhysicalDevice_TNS_9allocatorIS2_EEE5beginB8ue170006Ev, symObjAddr: 0x17150, symBinAddr: 0x100017A90, symSize: 0x30 }
  - { offsetInCU: 0x91C02, offset: 0x91C02, size: 0x8, addend: 0x0, symName: __ZNSt3__16vectorIP18VkPhysicalDevice_TNS_9allocatorIS2_EEE3endB8ue170006Ev, symObjAddr: 0x17180, symBinAddr: 0x100017AC0, symSize: 0x30 }
  - { offsetInCU: 0x91C2A, offset: 0x91C2A, size: 0x8, addend: 0x0, symName: __ZNKSt3__111__wrap_iterIPP18VkPhysicalDevice_TEdeB8ue170006Ev, symObjAddr: 0x171E0, symBinAddr: 0x100017B20, symSize: 0x20 }
  - { offsetInCU: 0x91C50, offset: 0x91C50, size: 0x8, addend: 0x0, symName: __ZNSt3__111__wrap_iterIPP18VkPhysicalDevice_TEppB8ue170006Ev, symObjAddr: 0x17200, symBinAddr: 0x100017B40, symSize: 0x20 }
  - { offsetInCU: 0x91C76, offset: 0x91C76, size: 0x8, addend: 0x0, symName: __ZNSt3__16vectorIP18VkPhysicalDevice_TNS_9allocatorIS2_EEED1B8ue170006Ev, symObjAddr: 0x17220, symBinAddr: 0x100017B60, symSize: 0x20 }
  - { offsetInCU: 0x91CA0, offset: 0x91CA0, size: 0x8, addend: 0x0, symName: __Z16CreateVKInstanceP10ZaynMemory, symObjAddr: 0x17240, symBinAddr: 0x100017B80, symSize: 0x230 }
  - { offsetInCU: 0x91D0E, offset: 0x91D0E, size: 0x8, addend: 0x0, symName: __ZNSt3__16vectorIPKcNS_9allocatorIS2_EEE4dataB8ue170006Ev, symObjAddr: 0x17470, symBinAddr: 0x100017DB0, symSize: 0x20 }
  - { offsetInCU: 0x91D34, offset: 0x91D34, size: 0x8, addend: 0x0, symName: __ZNKSt3__16vectorIPKcNS_9allocatorIS2_EEE4dataB8ue170006Ev, symObjAddr: 0x17490, symBinAddr: 0x100017DD0, symSize: 0x20 }
  - { offsetInCU: 0x91D5A, offset: 0x91D5A, size: 0x8, addend: 0x0, symName: __Z19CreateLogicalDeviceP10ZaynMemory, symObjAddr: 0x174B0, symBinAddr: 0x100017DF0, symSize: 0x4D0 }
  - { offsetInCU: 0x91E5A, offset: 0x91E5A, size: 0x8, addend: 0x0, symName: __ZNSt3__16vectorI23VkDeviceQueueCreateInfoNS_9allocatorIS1_EEEC1B8ue170006Ev, symObjAddr: 0x17980, symBinAddr: 0x1000182C0, symSize: 0x20 }
  - { offsetInCU: 0x91E84, offset: 0x91E84, size: 0x8, addend: 0x0, symName: __ZNRSt3__18optionalIjE5valueB8ue170006Ev, symObjAddr: 0x179A0, symBinAddr: 0x1000182E0, symSize: 0x40 }
  - { offsetInCU: 0x91EFD, offset: 0x91EFD, size: 0x8, addend: 0x0, symName: __ZNSt3__13setIjNS_4lessIjEENS_9allocatorIjEEEC1B8ue170006ESt16initializer_listIjERKS2_, symObjAddr: 0x179E0, symBinAddr: 0x100018320, symSize: 0x40 }
  - { offsetInCU: 0x91F45, offset: 0x91F45, size: 0x8, addend: 0x0, symName: __ZNSt3__13setIjNS_4lessIjEENS_9allocatorIjEEE5beginB8ue170006Ev, symObjAddr: 0x17A20, symBinAddr: 0x100018360, symSize: 0x30 }
  - { offsetInCU: 0x91F6B, offset: 0x91F6B, size: 0x8, addend: 0x0, symName: __ZNSt3__13setIjNS_4lessIjEENS_9allocatorIjEEE3endB8ue170006Ev, symObjAddr: 0x17A50, symBinAddr: 0x100018390, symSize: 0x30 }
  - { offsetInCU: 0x91F91, offset: 0x91F91, size: 0x8, addend: 0x0, symName: __ZNKSt3__121__tree_const_iteratorIjPNS_11__tree_nodeIjPvEElEdeB8ue170006Ev, symObjAddr: 0x17AB0, symBinAddr: 0x1000183F0, symSize: 0x20 }
  - { offsetInCU: 0x91FB7, offset: 0x91FB7, size: 0x8, addend: 0x0, symName: __ZNSt3__16vectorI23VkDeviceQueueCreateInfoNS_9allocatorIS1_EEE9push_backB8ue170006ERKS1_, symObjAddr: 0x17AD0, symBinAddr: 0x100018410, symSize: 0x60 }
  - { offsetInCU: 0x91FEE, offset: 0x91FEE, size: 0x8, addend: 0x0, symName: __ZNSt3__121__tree_const_iteratorIjPNS_11__tree_nodeIjPvEElEppB8ue170006Ev, symObjAddr: 0x17B30, symBinAddr: 0x100018470, symSize: 0x30 }
  - { offsetInCU: 0x92014, offset: 0x92014, size: 0x8, addend: 0x0, symName: __ZNKSt3__16vectorI23VkDeviceQueueCreateInfoNS_9allocatorIS1_EEE4sizeB8ue170006Ev, symObjAddr: 0x17B60, symBinAddr: 0x1000184A0, symSize: 0x30 }
  - { offsetInCU: 0x9203A, offset: 0x9203A, size: 0x8, addend: 0x0, symName: __ZNSt3__16vectorI23VkDeviceQueueCreateInfoNS_9allocatorIS1_EEE4dataB8ue170006Ev, symObjAddr: 0x17B90, symBinAddr: 0x1000184D0, symSize: 0x20 }
  - { offsetInCU: 0x92060, offset: 0x92060, size: 0x8, addend: 0x0, symName: __ZNSt3__13setIjNS_4lessIjEENS_9allocatorIjEEED1B8ue170006Ev, symObjAddr: 0x17BB0, symBinAddr: 0x1000184F0, symSize: 0x20 }
  - { offsetInCU: 0x9208A, offset: 0x9208A, size: 0x8, addend: 0x0, symName: __ZNSt3__16vectorI23VkDeviceQueueCreateInfoNS_9allocatorIS1_EEED1B8ue170006Ev, symObjAddr: 0x17BD0, symBinAddr: 0x100018510, symSize: 0x20 }
  - { offsetInCU: 0x920B4, offset: 0x920B4, size: 0x8, addend: 0x0, symName: __Z13CreateSurfaceP10ZaynMemory, symObjAddr: 0x17BF0, symBinAddr: 0x100018530, symSize: 0xA0 }
  - { offsetInCU: 0x920DE, offset: 0x920DE, size: 0x8, addend: 0x0, symName: __Z23chooseSwapSurfaceFormatRKNSt3__16vectorI18VkSurfaceFormatKHRNS_9allocatorIS1_EEEE, symObjAddr: 0x17C90, symBinAddr: 0x1000185D0, symSize: 0xC0 }
  - { offsetInCU: 0x92162, offset: 0x92162, size: 0x8, addend: 0x0, symName: __ZNKSt3__16vectorI18VkSurfaceFormatKHRNS_9allocatorIS1_EEE5beginB8ue170006Ev, symObjAddr: 0x17D50, symBinAddr: 0x100018690, symSize: 0x30 }
  - { offsetInCU: 0x9218A, offset: 0x9218A, size: 0x8, addend: 0x0, symName: __ZNKSt3__16vectorI18VkSurfaceFormatKHRNS_9allocatorIS1_EEE3endB8ue170006Ev, symObjAddr: 0x17D80, symBinAddr: 0x1000186C0, symSize: 0x30 }
  - { offsetInCU: 0x921B2, offset: 0x921B2, size: 0x8, addend: 0x0, symName: __ZNKSt3__111__wrap_iterIPK18VkSurfaceFormatKHREdeB8ue170006Ev, symObjAddr: 0x17DE0, symBinAddr: 0x100018720, symSize: 0x20 }
  - { offsetInCU: 0x921D8, offset: 0x921D8, size: 0x8, addend: 0x0, symName: __ZNSt3__111__wrap_iterIPK18VkSurfaceFormatKHREppB8ue170006Ev, symObjAddr: 0x17E00, symBinAddr: 0x100018740, symSize: 0x20 }
  - { offsetInCU: 0x921FE, offset: 0x921FE, size: 0x8, addend: 0x0, symName: __ZNKSt3__16vectorI18VkSurfaceFormatKHRNS_9allocatorIS1_EEEixB8ue170006Em, symObjAddr: 0x17E20, symBinAddr: 0x100018760, symSize: 0x20 }
  - { offsetInCU: 0x92234, offset: 0x92234, size: 0x8, addend: 0x0, symName: __Z21chooseSwapPresentModeRKNSt3__16vectorI16VkPresentModeKHRNS_9allocatorIS1_EEEE, symObjAddr: 0x17E40, symBinAddr: 0x100018780, symSize: 0xE0 }
  - { offsetInCU: 0x922B8, offset: 0x922B8, size: 0x8, addend: 0x0, symName: __ZNKSt3__16vectorI16VkPresentModeKHRNS_9allocatorIS1_EEE5beginB8ue170006Ev, symObjAddr: 0x17F20, symBinAddr: 0x100018860, symSize: 0x30 }
  - { offsetInCU: 0x922E0, offset: 0x922E0, size: 0x8, addend: 0x0, symName: __ZNKSt3__16vectorI16VkPresentModeKHRNS_9allocatorIS1_EEE3endB8ue170006Ev, symObjAddr: 0x17F50, symBinAddr: 0x100018890, symSize: 0x30 }
  - { offsetInCU: 0x92308, offset: 0x92308, size: 0x8, addend: 0x0, symName: __ZNKSt3__111__wrap_iterIPK16VkPresentModeKHREdeB8ue170006Ev, symObjAddr: 0x17FB0, symBinAddr: 0x1000188F0, symSize: 0x20 }
  - { offsetInCU: 0x9232E, offset: 0x9232E, size: 0x8, addend: 0x0, symName: __ZNSt3__111__wrap_iterIPK16VkPresentModeKHREppB8ue170006Ev, symObjAddr: 0x17FD0, symBinAddr: 0x100018910, symSize: 0x20 }
  - { offsetInCU: 0x92353, offset: 0x92353, size: 0x8, addend: 0x0, symName: __Z16chooseSwapExtentRK24VkSurfaceCapabilitiesKHRP10ZaynMemory, symObjAddr: 0x17FF0, symBinAddr: 0x100018930, symSize: 0xB0 }
  - { offsetInCU: 0x923D0, offset: 0x923D0, size: 0x8, addend: 0x0, symName: __ZNSt3__114numeric_limitsIjE3maxB8ue170006Ev, symObjAddr: 0x180A0, symBinAddr: 0x1000189E0, symSize: 0x10 }
  - { offsetInCU: 0x923E4, offset: 0x923E4, size: 0x8, addend: 0x0, symName: __Z15CreateSwapChainP10ZaynMemory, symObjAddr: 0x180E0, symBinAddr: 0x100018A20, symSize: 0x480 }
  - { offsetInCU: 0x924A7, offset: 0x924A7, size: 0x8, addend: 0x0, symName: __ZNSt3__16vectorIP9VkImage_TNS_9allocatorIS2_EEE6resizeEm, symObjAddr: 0x18600, symBinAddr: 0x100018F40, symSize: 0x80 }
  - { offsetInCU: 0x924EE, offset: 0x924EE, size: 0x8, addend: 0x0, symName: __ZNSt3__16vectorIP9VkImage_TNS_9allocatorIS2_EEE4dataB8ue170006Ev, symObjAddr: 0x18680, symBinAddr: 0x100018FC0, symSize: 0x20 }
  - { offsetInCU: 0x92513, offset: 0x92513, size: 0x8, addend: 0x0, symName: __Z15CreateImageViewP9VkImage_T8VkFormatjjP10ZaynMemory, symObjAddr: 0x186A0, symBinAddr: 0x100018FE0, symSize: 0x110 }
  - { offsetInCU: 0x925A0, offset: 0x925A0, size: 0x8, addend: 0x0, symName: __Z16CreateImageViewsP10ZaynMemory, symObjAddr: 0x187B0, symBinAddr: 0x1000190F0, symSize: 0xD0 }
  - { offsetInCU: 0x925EA, offset: 0x925EA, size: 0x8, addend: 0x0, symName: __ZNSt3__16vectorIP13VkImageView_TNS_9allocatorIS2_EEE6resizeEm, symObjAddr: 0x18880, symBinAddr: 0x1000191C0, symSize: 0x80 }
  - { offsetInCU: 0x92631, offset: 0x92631, size: 0x8, addend: 0x0, symName: __ZNKSt3__16vectorIP9VkImage_TNS_9allocatorIS2_EEE4sizeB8ue170006Ev, symObjAddr: 0x18900, symBinAddr: 0x100019240, symSize: 0x20 }
  - { offsetInCU: 0x92657, offset: 0x92657, size: 0x8, addend: 0x0, symName: __ZNSt3__16vectorIP9VkImage_TNS_9allocatorIS2_EEEixB8ue170006Em, symObjAddr: 0x18920, symBinAddr: 0x100019260, symSize: 0x20 }
  - { offsetInCU: 0x9268E, offset: 0x9268E, size: 0x8, addend: 0x0, symName: __ZNSt3__16vectorIP13VkImageView_TNS_9allocatorIS2_EEEixB8ue170006Em, symObjAddr: 0x18940, symBinAddr: 0x100019280, symSize: 0x20 }
  - { offsetInCU: 0x926C4, offset: 0x926C4, size: 0x8, addend: 0x0, symName: __Z18createShaderModuleRKNSt3__16vectorIcNS_9allocatorIcEEEEP10ZaynMemory, symObjAddr: 0x18960, symBinAddr: 0x1000192A0, symSize: 0xD0 }
  - { offsetInCU: 0x92722, offset: 0x92722, size: 0x8, addend: 0x0, symName: __ZNKSt3__16vectorIcNS_9allocatorIcEEE4sizeB8ue170006Ev, symObjAddr: 0x18A30, symBinAddr: 0x100019370, symSize: 0x20 }
  - { offsetInCU: 0x92748, offset: 0x92748, size: 0x8, addend: 0x0, symName: __ZNKSt3__16vectorIcNS_9allocatorIcEEE4dataB8ue170006Ev, symObjAddr: 0x18A50, symBinAddr: 0x100019390, symSize: 0x20 }
  - { offsetInCU: 0x9276E, offset: 0x9276E, size: 0x8, addend: 0x0, symName: __Z16CreateRenderPassP10ZaynMemory, symObjAddr: 0x18A70, symBinAddr: 0x1000193B0, symSize: 0x2C0 }
  - { offsetInCU: 0x92909, offset: 0x92909, size: 0x8, addend: 0x0, symName: __ZNKSt3__15arrayI23VkAttachmentDescriptionLm2EE4sizeB8ue170006Ev, symObjAddr: 0x18D30, symBinAddr: 0x100019670, symSize: 0x10 }
  - { offsetInCU: 0x9292F, offset: 0x9292F, size: 0x8, addend: 0x0, symName: __ZNSt3__15arrayI23VkAttachmentDescriptionLm2EE4dataB8ue170006Ev, symObjAddr: 0x18D40, symBinAddr: 0x100019680, symSize: 0x10 }
  - { offsetInCU: 0x92955, offset: 0x92955, size: 0x8, addend: 0x0, symName: __Z22CreateGraphicsPipelineP10ZaynMemoryRKNSt3__112basic_stringIcNS1_11char_traitsIcEENS1_9allocatorIcEEEES9_, symObjAddr: 0x18D50, symBinAddr: 0x100019690, symSize: 0x940 }
  - { offsetInCU: 0x92B17, offset: 0x92B17, size: 0x8, addend: 0x0, symName: __ZL8readFileRKNSt3__112basic_stringIcNS_11char_traitsIcEENS_9allocatorIcEEEE, symObjAddr: 0x19690, symBinAddr: 0x100019FD0, symSize: 0x270 }
  - { offsetInCU: 0x92B7B, offset: 0x92B7B, size: 0x8, addend: 0x0, symName: __ZN7Vertex_21getBindingDescriptionEv, symObjAddr: 0x19900, symBinAddr: 0x10001A240, symSize: 0x40 }
  - { offsetInCU: 0x92B9E, offset: 0x92B9E, size: 0x8, addend: 0x0, symName: __ZN7Vertex_24getAttributeDescriptionsEv, symObjAddr: 0x19940, symBinAddr: 0x10001A280, symSize: 0x130 }
  - { offsetInCU: 0x92BC2, offset: 0x92BC2, size: 0x8, addend: 0x0, symName: __ZNKSt3__15arrayI33VkVertexInputAttributeDescriptionLm3EE4sizeB8ue170006Ev, symObjAddr: 0x19A70, symBinAddr: 0x10001A3B0, symSize: 0x10 }
  - { offsetInCU: 0x92BE8, offset: 0x92BE8, size: 0x8, addend: 0x0, symName: __ZNSt3__15arrayI33VkVertexInputAttributeDescriptionLm3EE4dataB8ue170006Ev, symObjAddr: 0x19A80, symBinAddr: 0x10001A3C0, symSize: 0x10 }
  - { offsetInCU: 0x92C0E, offset: 0x92C0E, size: 0x8, addend: 0x0, symName: __ZNSt3__16vectorI14VkDynamicStateNS_9allocatorIS1_EEEC1B8ue170006ESt16initializer_listIS1_E, symObjAddr: 0x19A90, symBinAddr: 0x10001A3D0, symSize: 0x30 }
  - { offsetInCU: 0x92C49, offset: 0x92C49, size: 0x8, addend: 0x0, symName: __ZNKSt3__16vectorI14VkDynamicStateNS_9allocatorIS1_EEE4sizeB8ue170006Ev, symObjAddr: 0x19AC0, symBinAddr: 0x10001A400, symSize: 0x20 }
  - { offsetInCU: 0x92C6F, offset: 0x92C6F, size: 0x8, addend: 0x0, symName: __ZNSt3__16vectorI14VkDynamicStateNS_9allocatorIS1_EEE4dataB8ue170006Ev, symObjAddr: 0x19AE0, symBinAddr: 0x10001A420, symSize: 0x20 }
  - { offsetInCU: 0x92C95, offset: 0x92C95, size: 0x8, addend: 0x0, symName: __ZNSt3__16vectorI14VkDynamicStateNS_9allocatorIS1_EEED1B8ue170006Ev, symObjAddr: 0x19B00, symBinAddr: 0x10001A440, symSize: 0x20 }
  - { offsetInCU: 0x92CBF, offset: 0x92CBF, size: 0x8, addend: 0x0, symName: __ZNSt3__16vectorIcNS_9allocatorIcEEED1B8ue170006Ev, symObjAddr: 0x19B20, symBinAddr: 0x10001A460, symSize: 0x20 }
  - { offsetInCU: 0x92CE9, offset: 0x92CE9, size: 0x8, addend: 0x0, symName: __Z18CreateFrameBuffersP10ZaynMemory, symObjAddr: 0x19B40, symBinAddr: 0x10001A480, symSize: 0x1C0 }
  - { offsetInCU: 0x92D53, offset: 0x92D53, size: 0x8, addend: 0x0, symName: __ZNSt3__16vectorIP15VkFramebuffer_TNS_9allocatorIS2_EEE6resizeEm, symObjAddr: 0x19D00, symBinAddr: 0x10001A640, symSize: 0x80 }
  - { offsetInCU: 0x92D9A, offset: 0x92D9A, size: 0x8, addend: 0x0, symName: __ZNKSt3__16vectorIP13VkImageView_TNS_9allocatorIS2_EEE4sizeB8ue170006Ev, symObjAddr: 0x19D80, symBinAddr: 0x10001A6C0, symSize: 0x20 }
  - { offsetInCU: 0x92DF9, offset: 0x92DF9, size: 0x8, addend: 0x0, symName: __ZNKSt3__15arrayIP13VkImageView_TLm2EE4sizeB8ue170006Ev, symObjAddr: 0x19DA0, symBinAddr: 0x10001A6E0, symSize: 0x10 }
  - { offsetInCU: 0x92E1F, offset: 0x92E1F, size: 0x8, addend: 0x0, symName: __ZNSt3__15arrayIP13VkImageView_TLm2EE4dataB8ue170006Ev, symObjAddr: 0x19DB0, symBinAddr: 0x10001A6F0, symSize: 0x10 }
  - { offsetInCU: 0x92E45, offset: 0x92E45, size: 0x8, addend: 0x0, symName: __ZNSt3__16vectorIP15VkFramebuffer_TNS_9allocatorIS2_EEEixB8ue170006Em, symObjAddr: 0x19DC0, symBinAddr: 0x10001A700, symSize: 0x20 }
  - { offsetInCU: 0x92E7C, offset: 0x92E7C, size: 0x8, addend: 0x0, symName: __Z17CreateCommandPoolP10ZaynMemory, symObjAddr: 0x19DE0, symBinAddr: 0x10001A720, symSize: 0xF0 }
  - { offsetInCU: 0x92EC7, offset: 0x92EC7, size: 0x8, addend: 0x0, symName: __Z19RecordCommandBufferP10ZaynMemoryP17VkCommandBuffer_Tj, symObjAddr: 0x19ED0, symBinAddr: 0x10001A810, symSize: 0x20 }
  - { offsetInCU: 0x92F0F, offset: 0x92F0F, size: 0x8, addend: 0x0, symName: __Z23BeginSingleTimeCommandsP10ZaynMemory, symObjAddr: 0x19EF0, symBinAddr: 0x10001A830, symSize: 0x90 }
  - { offsetInCU: 0x92F6F, offset: 0x92F6F, size: 0x8, addend: 0x0, symName: __Z21EndSingleTimeCommandsP17VkCommandBuffer_TP10ZaynMemory, symObjAddr: 0x19F80, symBinAddr: 0x10001A8C0, symSize: 0xA0 }
  - { offsetInCU: 0x92FBA, offset: 0x92FBA, size: 0x8, addend: 0x0, symName: __Z20CreateCommandBuffersP10ZaynMemory, symObjAddr: 0x1A020, symBinAddr: 0x10001A960, symSize: 0x100 }
  - { offsetInCU: 0x92FF5, offset: 0x92FF5, size: 0x8, addend: 0x0, symName: __ZNSt3__16vectorIP17VkCommandBuffer_TNS_9allocatorIS2_EEE6resizeEm, symObjAddr: 0x1A120, symBinAddr: 0x10001AA60, symSize: 0x80 }
  - { offsetInCU: 0x9303C, offset: 0x9303C, size: 0x8, addend: 0x0, symName: __ZNSt3__16vectorIP17VkCommandBuffer_TNS_9allocatorIS2_EEE4dataB8ue170006Ev, symObjAddr: 0x1A1A0, symBinAddr: 0x10001AAE0, symSize: 0x20 }
  - { offsetInCU: 0x93062, offset: 0x93062, size: 0x8, addend: 0x0, symName: __Z17CreateSyncObjectsP10ZaynMemory, symObjAddr: 0x1A1C0, symBinAddr: 0x10001AB00, symSize: 0x1D0 }
  - { offsetInCU: 0x930C4, offset: 0x930C4, size: 0x8, addend: 0x0, symName: __ZNSt3__16vectorIP13VkSemaphore_TNS_9allocatorIS2_EEE6resizeEm, symObjAddr: 0x1A390, symBinAddr: 0x10001ACD0, symSize: 0x80 }
  - { offsetInCU: 0x9310B, offset: 0x9310B, size: 0x8, addend: 0x0, symName: __ZNSt3__16vectorIP9VkFence_TNS_9allocatorIS2_EEE6resizeEm, symObjAddr: 0x1A410, symBinAddr: 0x10001AD50, symSize: 0x80 }
  - { offsetInCU: 0x93152, offset: 0x93152, size: 0x8, addend: 0x0, symName: __ZNSt3__16vectorIP13VkSemaphore_TNS_9allocatorIS2_EEEixB8ue170006Em, symObjAddr: 0x1A490, symBinAddr: 0x10001ADD0, symSize: 0x20 }
  - { offsetInCU: 0x93189, offset: 0x93189, size: 0x8, addend: 0x0, symName: __ZNSt3__16vectorIP9VkFence_TNS_9allocatorIS2_EEEixB8ue170006Em, symObjAddr: 0x1A4B0, symBinAddr: 0x10001ADF0, symSize: 0x20 }
  - { offsetInCU: 0x931BF, offset: 0x931BF, size: 0x8, addend: 0x0, symName: __Z16findMemoryType_xjjP10ZaynMemory, symObjAddr: 0x1A4D0, symBinAddr: 0x10001AE10, symSize: 0x120 }
  - { offsetInCU: 0x9323D, offset: 0x9323D, size: 0x8, addend: 0x0, symName: __Z12createBufferyjjRP10VkBuffer_TRP16VkDeviceMemory_TP10ZaynMemory, symObjAddr: 0x1A5F0, symBinAddr: 0x10001AF30, symSize: 0x1F0 }
  - { offsetInCU: 0x932E6, offset: 0x932E6, size: 0x8, addend: 0x0, symName: __Z21TransitionImageLayoutP9VkImage_T8VkFormat13VkImageLayoutS2_jP10ZaynMemory, symObjAddr: 0x1A7E0, symBinAddr: 0x10001B120, symSize: 0x1C0 }
  - { offsetInCU: 0x9339F, offset: 0x9339F, size: 0x8, addend: 0x0, symName: __ZNSt16invalid_argumentC1B8ue170006EPKc, symObjAddr: 0x1A9A0, symBinAddr: 0x10001B2E0, symSize: 0x30 }
  - { offsetInCU: 0x933D7, offset: 0x933D7, size: 0x8, addend: 0x0, symName: __Z17CopyBufferToImageP10VkBuffer_TP9VkImage_TjjP10ZaynMemory, symObjAddr: 0x1A9D0, symBinAddr: 0x10001B310, symSize: 0xF0 }
  - { offsetInCU: 0x9345F, offset: 0x9345F, size: 0x8, addend: 0x0, symName: __Z10copyBufferP10VkBuffer_TS0_yP10ZaynMemory, symObjAddr: 0x1AAC0, symBinAddr: 0x10001B400, symSize: 0x70 }
  - { offsetInCU: 0x934D7, offset: 0x934D7, size: 0x8, addend: 0x0, symName: __Z11CreateImagejjj8VkFormat13VkImageTilingjjRP9VkImage_TRP16VkDeviceMemory_TP10ZaynMemory, symObjAddr: 0x1AB30, symBinAddr: 0x10001B470, symSize: 0x240 }
  - { offsetInCU: 0x935BC, offset: 0x935BC, size: 0x8, addend: 0x0, symName: __Z20CreateDepthResourcesP10ZaynMemory, symObjAddr: 0x1AD70, symBinAddr: 0x10001B6B0, symSize: 0xB0 }
  - { offsetInCU: 0x935F7, offset: 0x935F7, size: 0x8, addend: 0x0, symName: __Z15GenerateMipmapsP9VkImage_T8VkFormatiijP10ZaynMemory, symObjAddr: 0x1AE20, symBinAddr: 0x10001B760, symSize: 0x4F0 }
  - { offsetInCU: 0x93701, offset: 0x93701, size: 0x8, addend: 0x0, symName: __Z18CreateTextureImageP10ZaynMemory, symObjAddr: 0x1B310, symBinAddr: 0x10001BC50, symSize: 0x260 }
  - { offsetInCU: 0x937AD, offset: 0x937AD, size: 0x8, addend: 0x0, symName: __Z4log2B8ue170006IiENSt3__19enable_ifIXsr3std11is_integralIT_EE5valueEdE4typeES2_, symObjAddr: 0x1B570, symBinAddr: 0x10001BEB0, symSize: 0x20 }
  - { offsetInCU: 0x937E5, offset: 0x937E5, size: 0x8, addend: 0x0, symName: __Z22CreateTextureImageViewP10ZaynMemory, symObjAddr: 0x1B5C0, symBinAddr: 0x10001BF00, symSize: 0x50 }
  - { offsetInCU: 0x93810, offset: 0x93810, size: 0x8, addend: 0x0, symName: __Z20CreateTextureSamplerP10ZaynMemory, symObjAddr: 0x1B610, symBinAddr: 0x10001BF50, symSize: 0x200 }
  - { offsetInCU: 0x9385E, offset: 0x9385E, size: 0x8, addend: 0x0, symName: __Z9LoadModelv, symObjAddr: 0x1B810, symBinAddr: 0x10001C150, symSize: 0x5F0 }
  - { offsetInCU: 0x9398A, offset: 0x9398A, size: 0x8, addend: 0x0, symName: __ZN7tinyobj8attrib_tC1Ev, symObjAddr: 0x1BE00, symBinAddr: 0x10001C740, symSize: 0x20 }
  - { offsetInCU: 0x939B4, offset: 0x939B4, size: 0x8, addend: 0x0, symName: __ZNSt3__16vectorIN7tinyobj7shape_tENS_9allocatorIS2_EEEC1B8ue170006Ev, symObjAddr: 0x1BE20, symBinAddr: 0x10001C760, symSize: 0x20 }
  - { offsetInCU: 0x93A5F, offset: 0x93A5F, size: 0x8, addend: 0x0, symName: __ZNSt3__113unordered_mapI7Vertex_jNS_4hashIS1_EENS_8equal_toIS1_EENS_9allocatorINS_4pairIKS1_jEEEEEC1B8ue170006Ev, symObjAddr: 0x1BF50, symBinAddr: 0x10001C890, symSize: 0x20 }
  - { offsetInCU: 0x93A89, offset: 0x93A89, size: 0x8, addend: 0x0, symName: __ZNSt3__16vectorIN7tinyobj7shape_tENS_9allocatorIS2_EEE5beginB8ue170006Ev, symObjAddr: 0x1BF70, symBinAddr: 0x10001C8B0, symSize: 0x30 }
  - { offsetInCU: 0x93AB1, offset: 0x93AB1, size: 0x8, addend: 0x0, symName: __ZNSt3__16vectorIN7tinyobj7shape_tENS_9allocatorIS2_EEE3endB8ue170006Ev, symObjAddr: 0x1BFA0, symBinAddr: 0x10001C8E0, symSize: 0x30 }
  - { offsetInCU: 0x93AD9, offset: 0x93AD9, size: 0x8, addend: 0x0, symName: __ZNKSt3__111__wrap_iterIPN7tinyobj7shape_tEEdeB8ue170006Ev, symObjAddr: 0x1C000, symBinAddr: 0x10001C940, symSize: 0x20 }
  - { offsetInCU: 0x93AFF, offset: 0x93AFF, size: 0x8, addend: 0x0, symName: __ZNKSt3__16vectorIN7tinyobj7index_tENS_9allocatorIS2_EEE5beginB8ue170006Ev, symObjAddr: 0x1C020, symBinAddr: 0x10001C960, symSize: 0x30 }
  - { offsetInCU: 0x93B27, offset: 0x93B27, size: 0x8, addend: 0x0, symName: __ZNKSt3__16vectorIN7tinyobj7index_tENS_9allocatorIS2_EEE3endB8ue170006Ev, symObjAddr: 0x1C050, symBinAddr: 0x10001C990, symSize: 0x30 }
  - { offsetInCU: 0x93B4F, offset: 0x93B4F, size: 0x8, addend: 0x0, symName: __ZNKSt3__111__wrap_iterIPKN7tinyobj7index_tEEdeB8ue170006Ev, symObjAddr: 0x1C0B0, symBinAddr: 0x10001C9F0, symSize: 0x20 }
  - { offsetInCU: 0x93B75, offset: 0x93B75, size: 0x8, addend: 0x0, symName: __ZN3glm3vecILi3EfLNS_9qualifierE0EEC1Efff, symObjAddr: 0x1C0D0, symBinAddr: 0x10001CA10, symSize: 0x40 }
  - { offsetInCU: 0x93BCB, offset: 0x93BCB, size: 0x8, addend: 0x0, symName: __ZN3glm3vecILi2EfLNS_9qualifierE0EEC1Eff, symObjAddr: 0x1C110, symBinAddr: 0x10001CA50, symSize: 0x30 }
  - { offsetInCU: 0x93C13, offset: 0x93C13, size: 0x8, addend: 0x0, symName: __ZNKSt3__113unordered_mapI7Vertex_jNS_4hashIS1_EENS_8equal_toIS1_EENS_9allocatorINS_4pairIKS1_jEEEEE5countB8ue170006ERS8_, symObjAddr: 0x1C140, symBinAddr: 0x10001CA80, symSize: 0x30 }
  - { offsetInCU: 0x93C48, offset: 0x93C48, size: 0x8, addend: 0x0, symName: __ZNKSt3__16vectorI7Vertex_NS_9allocatorIS1_EEE4sizeB8ue170006Ev, symObjAddr: 0x1C170, symBinAddr: 0x10001CAB0, symSize: 0x20 }
  - { offsetInCU: 0x93C6E, offset: 0x93C6E, size: 0x8, addend: 0x0, symName: __ZNSt3__113unordered_mapI7Vertex_jNS_4hashIS1_EENS_8equal_toIS1_EENS_9allocatorINS_4pairIKS1_jEEEEEixERS8_, symObjAddr: 0x1C190, symBinAddr: 0x10001CAD0, symSize: 0x70 }
  - { offsetInCU: 0x93CA5, offset: 0x93CA5, size: 0x8, addend: 0x0, symName: __ZNSt3__16vectorI7Vertex_NS_9allocatorIS1_EEE9push_backB8ue170006ERKS1_, symObjAddr: 0x1C200, symBinAddr: 0x10001CB40, symSize: 0x60 }
  - { offsetInCU: 0x93CDC, offset: 0x93CDC, size: 0x8, addend: 0x0, symName: __ZNSt3__16vectorIjNS_9allocatorIjEEE9push_backB8ue170006ERKj, symObjAddr: 0x1C260, symBinAddr: 0x10001CBA0, symSize: 0x60 }
  - { offsetInCU: 0x93D13, offset: 0x93D13, size: 0x8, addend: 0x0, symName: __ZNSt3__111__wrap_iterIPKN7tinyobj7index_tEEppB8ue170006Ev, symObjAddr: 0x1C2C0, symBinAddr: 0x10001CC00, symSize: 0x20 }
  - { offsetInCU: 0x93D39, offset: 0x93D39, size: 0x8, addend: 0x0, symName: __ZNSt3__111__wrap_iterIPN7tinyobj7shape_tEEppB8ue170006Ev, symObjAddr: 0x1C2E0, symBinAddr: 0x10001CC20, symSize: 0x20 }
  - { offsetInCU: 0x93D5F, offset: 0x93D5F, size: 0x8, addend: 0x0, symName: __ZNSt3__113unordered_mapI7Vertex_jNS_4hashIS1_EENS_8equal_toIS1_EENS_9allocatorINS_4pairIKS1_jEEEEED1B8ue170006Ev, symObjAddr: 0x1C300, symBinAddr: 0x10001CC40, symSize: 0x20 }
  - { offsetInCU: 0x93D89, offset: 0x93D89, size: 0x8, addend: 0x0, symName: __ZNSt3__16vectorIN7tinyobj7shape_tENS_9allocatorIS2_EEED1B8ue170006Ev, symObjAddr: 0x1C320, symBinAddr: 0x10001CC60, symSize: 0x20 }
  - { offsetInCU: 0x93DB3, offset: 0x93DB3, size: 0x8, addend: 0x0, symName: __ZN7tinyobj8attrib_tD1Ev, symObjAddr: 0x1C340, symBinAddr: 0x10001CC80, symSize: 0x20 }
  - { offsetInCU: 0x93DE0, offset: 0x93DE0, size: 0x8, addend: 0x0, symName: __Z18CreateVertexBufferP10ZaynMemory, symObjAddr: 0x1C360, symBinAddr: 0x10001CCA0, symSize: 0x130 }
  - { offsetInCU: 0x93E4B, offset: 0x93E4B, size: 0x8, addend: 0x0, symName: __ZNSt3__16vectorI7Vertex_NS_9allocatorIS1_EEE4dataB8ue170006Ev, symObjAddr: 0x1C490, symBinAddr: 0x10001CDD0, symSize: 0x20 }
  - { offsetInCU: 0x93E71, offset: 0x93E71, size: 0x8, addend: 0x0, symName: __Z17CreateIndexBufferP10ZaynMemory, symObjAddr: 0x1C4B0, symBinAddr: 0x10001CDF0, symSize: 0x130 }
  - { offsetInCU: 0x93EDC, offset: 0x93EDC, size: 0x8, addend: 0x0, symName: __ZNSt3__16vectorIjNS_9allocatorIjEEE4dataB8ue170006Ev, symObjAddr: 0x1C5E0, symBinAddr: 0x10001CF20, symSize: 0x20 }
  - { offsetInCU: 0x93F02, offset: 0x93F02, size: 0x8, addend: 0x0, symName: __Z25CreateDescriptorSetLayoutP10ZaynMemory, symObjAddr: 0x1C600, symBinAddr: 0x10001CF40, symSize: 0x1E0 }
  - { offsetInCU: 0x94027, offset: 0x94027, size: 0x8, addend: 0x0, symName: __ZNKSt3__15arrayI28VkDescriptorSetLayoutBindingLm3EE4sizeB8ue170006Ev, symObjAddr: 0x1C7E0, symBinAddr: 0x10001D120, symSize: 0x10 }
  - { offsetInCU: 0x9404D, offset: 0x9404D, size: 0x8, addend: 0x0, symName: __ZNSt3__15arrayI28VkDescriptorSetLayoutBindingLm3EE4dataB8ue170006Ev, symObjAddr: 0x1C7F0, symBinAddr: 0x10001D130, symSize: 0x10 }
  - { offsetInCU: 0x94073, offset: 0x94073, size: 0x8, addend: 0x0, symName: __Z22CreateUniformBuffers_xP10ZaynMemory, symObjAddr: 0x1C800, symBinAddr: 0x10001D140, symSize: 0x230 }
  - { offsetInCU: 0x940DD, offset: 0x940DD, size: 0x8, addend: 0x0, symName: __Z20CreateDescriptorPoolP10ZaynMemory, symObjAddr: 0x1CA30, symBinAddr: 0x10001D370, symSize: 0x160 }
  - { offsetInCU: 0x94187, offset: 0x94187, size: 0x8, addend: 0x0, symName: __ZNSt3__15arrayI20VkDescriptorPoolSizeLm3EEixB8ue170006Em, symObjAddr: 0x1CB90, symBinAddr: 0x10001D4D0, symSize: 0x20 }
  - { offsetInCU: 0x941BB, offset: 0x941BB, size: 0x8, addend: 0x0, symName: __ZNKSt3__15arrayI20VkDescriptorPoolSizeLm3EE4sizeB8ue170006Ev, symObjAddr: 0x1CBB0, symBinAddr: 0x10001D4F0, symSize: 0x10 }
  - { offsetInCU: 0x941E1, offset: 0x941E1, size: 0x8, addend: 0x0, symName: __ZNSt3__15arrayI20VkDescriptorPoolSizeLm3EE4dataB8ue170006Ev, symObjAddr: 0x1CBC0, symBinAddr: 0x10001D500, symSize: 0x10 }
  - { offsetInCU: 0x94207, offset: 0x94207, size: 0x8, addend: 0x0, symName: __Z22CreateDescriptorSets_xP10ZaynMemory, symObjAddr: 0x1CBD0, symBinAddr: 0x10001D510, symSize: 0x5D0 }
  - { offsetInCU: 0x94446, offset: 0x94446, size: 0x8, addend: 0x0, symName: __ZNSt3__15arrayI20VkWriteDescriptorSetLm3EEixB8ue170006Em, symObjAddr: 0x1D1A0, symBinAddr: 0x10001DAE0, symSize: 0x20 }
  - { offsetInCU: 0x9447A, offset: 0x9447A, size: 0x8, addend: 0x0, symName: __ZNKSt3__15arrayI20VkWriteDescriptorSetLm3EE4sizeB8ue170006Ev, symObjAddr: 0x1D1C0, symBinAddr: 0x10001DB00, symSize: 0x10 }
  - { offsetInCU: 0x944A0, offset: 0x944A0, size: 0x8, addend: 0x0, symName: __ZNSt3__15arrayI20VkWriteDescriptorSetLm3EE4dataB8ue170006Ev, symObjAddr: 0x1D1D0, symBinAddr: 0x10001DB10, symSize: 0x10 }
  - { offsetInCU: 0x944C6, offset: 0x944C6, size: 0x8, addend: 0x0, symName: __Z14VulkanInitCodeP10ZaynMemory, symObjAddr: 0x1D1E0, symBinAddr: 0x10001DB20, symSize: 0x20 }
  - { offsetInCU: 0x944F1, offset: 0x944F1, size: 0x8, addend: 0x0, symName: __Z16InitRender_LearnP10ZaynMemory, symObjAddr: 0x1D200, symBinAddr: 0x10001DB40, symSize: 0x170 }
  - { offsetInCU: 0x9451C, offset: 0x9451C, size: 0x8, addend: 0x0, symName: __Z16CleanUpSwapChainP10ZaynMemory, symObjAddr: 0x1D370, symBinAddr: 0x10001DCB0, symSize: 0x180 }
  - { offsetInCU: 0x94585, offset: 0x94585, size: 0x8, addend: 0x0, symName: __ZNKSt3__16vectorIP15VkFramebuffer_TNS_9allocatorIS2_EEE4sizeB8ue170006Ev, symObjAddr: 0x1D4F0, symBinAddr: 0x10001DE30, symSize: 0x20 }
  - { offsetInCU: 0x945AB, offset: 0x945AB, size: 0x8, addend: 0x0, symName: __Z17RecreateSwapChainP10ZaynMemory, symObjAddr: 0x1D510, symBinAddr: 0x10001DE50, symSize: 0xC0 }
  - { offsetInCU: 0x945FB, offset: 0x945FB, size: 0x8, addend: 0x0, symName: __ZNSt3__16chrono8durationIfNS_5ratioILl1ELl1EEEEC1B8ue170006IxNS2_ILl1ELl1000000000EEEEERKNS1_IT_T0_EEPNS_9enable_ifIXaasr13__no_overflowIS8_S3_EE5valueooL_ZNS_17integral_constantIbLb1EE5valueEEaaeqsr13__no_overflowIS8_S3_E4typeE3denLi1Entsr23treat_as_floating_pointIS7_EE5valueEvE4typeE, symObjAddr: 0x1DAB0, symBinAddr: 0x10001E3F0, symSize: 0x30 }
  - { offsetInCU: 0x94652, offset: 0x94652, size: 0x8, addend: 0x0, symName: __ZNKSt3__16chrono8durationIfNS_5ratioILl1ELl1EEEE5countB8ue170006Ev, symObjAddr: 0x1DAE0, symBinAddr: 0x10001E420, symSize: 0x20 }
  - { offsetInCU: 0x94677, offset: 0x94677, size: 0x8, addend: 0x0, symName: __Z3TRS4vec310quaternionS_, symObjAddr: 0x1DB00, symBinAddr: 0x10001E440, symSize: 0x160 }
  - { offsetInCU: 0x946D5, offset: 0x946D5, size: 0x8, addend: 0x0, symName: __Z9AxisAngle4vec3f, symObjAddr: 0x1DC60, symBinAddr: 0x10001E5A0, symSize: 0x100 }
  - { offsetInCU: 0x9473B, offset: 0x9473B, size: 0x8, addend: 0x0, symName: __Z8DegToRadf, symObjAddr: 0x1DD60, symBinAddr: 0x10001E6A0, symSize: 0x30 }
  - { offsetInCU: 0x949D5, offset: 0x949D5, size: 0x8, addend: 0x0, symName: __ZN3glm3matILi4ELi4EfLNS_9qualifierE0EEixEi, symObjAddr: 0x1DEB0, symBinAddr: 0x10001E7F0, symSize: 0xB0 }
  - { offsetInCU: 0x94A0C, offset: 0x94A0C, size: 0x8, addend: 0x0, symName: __ZN3glm3vecILi4EfLNS_9qualifierE0EEixEi, symObjAddr: 0x1DF60, symBinAddr: 0x10001E8A0, symSize: 0x100 }
  - { offsetInCU: 0x94A42, offset: 0x94A42, size: 0x8, addend: 0x0, symName: __Z16AcquireNextImagePj, symObjAddr: 0x1E060, symBinAddr: 0x10001E9A0, symSize: 0xD0 }
  - { offsetInCU: 0x94A80, offset: 0x94A80, size: 0x8, addend: 0x0, symName: __Z10BeginFramev, symObjAddr: 0x1E130, symBinAddr: 0x10001EA70, symSize: 0x250 }
  - { offsetInCU: 0x94AC0, offset: 0x94AC0, size: 0x8, addend: 0x0, symName: __ZNSt3__16vectorIP17VkCommandBuffer_TNS_9allocatorIS2_EEEixB8ue170006Em, symObjAddr: 0x1E380, symBinAddr: 0x10001ECC0, symSize: 0x20 }
  - { offsetInCU: 0x94AF7, offset: 0x94AF7, size: 0x8, addend: 0x0, symName: __Z24BeginSwapChainRenderPassP17VkCommandBuffer_T, symObjAddr: 0x1E3A0, symBinAddr: 0x10001ECE0, symSize: 0x320 }
  - { offsetInCU: 0x94C4D, offset: 0x94C4D, size: 0x8, addend: 0x0, symName: __ZNSt3__15arrayI12VkClearValueLm2EEixB8ue170006Em, symObjAddr: 0x1E6C0, symBinAddr: 0x10001F000, symSize: 0x20 }
  - { offsetInCU: 0x94C81, offset: 0x94C81, size: 0x8, addend: 0x0, symName: __ZNKSt3__15arrayI12VkClearValueLm2EE4sizeB8ue170006Ev, symObjAddr: 0x1E6E0, symBinAddr: 0x10001F020, symSize: 0x10 }
  - { offsetInCU: 0x94CA7, offset: 0x94CA7, size: 0x8, addend: 0x0, symName: __ZNSt3__15arrayI12VkClearValueLm2EE4dataB8ue170006Ev, symObjAddr: 0x1E6F0, symBinAddr: 0x10001F030, symSize: 0x10 }
  - { offsetInCU: 0x94CCD, offset: 0x94CCD, size: 0x8, addend: 0x0, symName: __Z25RenderEntity_notYetEntityP17VkCommandBuffer_T4vec3, symObjAddr: 0x1E700, symBinAddr: 0x10001F040, symSize: 0x400 }
  - { offsetInCU: 0x94D48, offset: 0x94D48, size: 0x8, addend: 0x0, symName: __Zml4mat4S_, symObjAddr: 0x1EB00, symBinAddr: 0x10001F440, symSize: 0x460 }
  - { offsetInCU: 0x94D97, offset: 0x94D97, size: 0x8, addend: 0x0, symName: __Z22EndSwapChainRenderPassP17VkCommandBuffer_T, symObjAddr: 0x1EF60, symBinAddr: 0x10001F8A0, symSize: 0x100 }
  - { offsetInCU: 0x94DC1, offset: 0x94DC1, size: 0x8, addend: 0x0, symName: __Z20SubmitCommandBuffersPKP17VkCommandBuffer_TPjP10ZaynMemory, symObjAddr: 0x1F060, symBinAddr: 0x10001F9A0, symSize: 0x2F0 }
  - { offsetInCU: 0x94E82, offset: 0x94E82, size: 0x8, addend: 0x0, symName: __Z8EndFramev, symObjAddr: 0x1F350, symBinAddr: 0x10001FC90, symSize: 0x210 }
  - { offsetInCU: 0x94EBE, offset: 0x94EBE, size: 0x8, addend: 0x0, symName: __Z18UpdateRender_LearnP10ZaynMemory, symObjAddr: 0x1F560, symBinAddr: 0x10001FEA0, symSize: 0x170 }
  - { offsetInCU: 0x94EE9, offset: 0x94EE9, size: 0x8, addend: 0x0, symName: __Z13RenderCleanupP10ZaynMemory, symObjAddr: 0x1F6D0, symBinAddr: 0x100020010, symSize: 0x500 }
  - { offsetInCU: 0x94FFF, offset: 0x94FFF, size: 0x8, addend: 0x0, symName: __ZNSt3__16vectorIP15VkFramebuffer_TNS_9allocatorIS2_EEE5beginB8ue170006Ev, symObjAddr: 0x1FBD0, symBinAddr: 0x100020510, symSize: 0x30 }
  - { offsetInCU: 0x95027, offset: 0x95027, size: 0x8, addend: 0x0, symName: __ZNSt3__16vectorIP15VkFramebuffer_TNS_9allocatorIS2_EEE3endB8ue170006Ev, symObjAddr: 0x1FC00, symBinAddr: 0x100020540, symSize: 0x30 }
  - { offsetInCU: 0x9504F, offset: 0x9504F, size: 0x8, addend: 0x0, symName: __ZNKSt3__111__wrap_iterIPP15VkFramebuffer_TEdeB8ue170006Ev, symObjAddr: 0x1FC60, symBinAddr: 0x1000205A0, symSize: 0x20 }
  - { offsetInCU: 0x95075, offset: 0x95075, size: 0x8, addend: 0x0, symName: __ZNSt3__111__wrap_iterIPP15VkFramebuffer_TEppB8ue170006Ev, symObjAddr: 0x1FC80, symBinAddr: 0x1000205C0, symSize: 0x20 }
  - { offsetInCU: 0x9509B, offset: 0x9509B, size: 0x8, addend: 0x0, symName: __ZNSt3__16vectorIP13VkImageView_TNS_9allocatorIS2_EEE5beginB8ue170006Ev, symObjAddr: 0x1FCA0, symBinAddr: 0x1000205E0, symSize: 0x30 }
  - { offsetInCU: 0x950C3, offset: 0x950C3, size: 0x8, addend: 0x0, symName: __ZNSt3__16vectorIP13VkImageView_TNS_9allocatorIS2_EEE3endB8ue170006Ev, symObjAddr: 0x1FCD0, symBinAddr: 0x100020610, symSize: 0x30 }
  - { offsetInCU: 0x950EB, offset: 0x950EB, size: 0x8, addend: 0x0, symName: __ZNKSt3__111__wrap_iterIPP13VkImageView_TEdeB8ue170006Ev, symObjAddr: 0x1FD30, symBinAddr: 0x100020670, symSize: 0x20 }
  - { offsetInCU: 0x95111, offset: 0x95111, size: 0x8, addend: 0x0, symName: __ZNSt3__111__wrap_iterIPP13VkImageView_TEppB8ue170006Ev, symObjAddr: 0x1FD50, symBinAddr: 0x100020690, symSize: 0x20 }
  - { offsetInCU: 0x95136, offset: 0x95136, size: 0x8, addend: 0x0, symName: __Z19AllocateMemoryArenaP11MemoryArenay, symObjAddr: 0x1FD70, symBinAddr: 0x1000206B0, symSize: 0xA0 }
  - { offsetInCU: 0x9517A, offset: 0x9517A, size: 0x8, addend: 0x0, symName: __Z19PushSizeMemoryArenaP11MemoryArenay, symObjAddr: 0x1FE10, symBinAddr: 0x100020750, symSize: 0x90 }
  - { offsetInCU: 0x951C2, offset: 0x951C2, size: 0x8, addend: 0x0, symName: __Z16InitializeKeyMapv, symObjAddr: 0x1FEA0, symBinAddr: 0x1000207E0, symSize: 0x3F0 }
  - { offsetInCU: 0x951F9, offset: 0x951F9, size: 0x8, addend: 0x0, symName: __Z20AllocateInputManagerP12InputManagerP11MemoryArenai, symObjAddr: 0x20290, symBinAddr: 0x100020BD0, symSize: 0x80 }
  - { offsetInCU: 0x9523D, offset: 0x9523D, size: 0x8, addend: 0x0, symName: __Z16MakeDynamicArrayI10InputEventE12DynamicArrayIT_EP10MAllocatorjj, symObjAddr: 0x20310, symBinAddr: 0x100020C50, symSize: 0x50 }
  - { offsetInCU: 0x9529D, offset: 0x9529D, size: 0x8, addend: 0x0, symName: __Z19AllocateInputDeviceP11InputDevice15InputDeviceTypeii, symObjAddr: 0x20360, symBinAddr: 0x100020CA0, symSize: 0x160 }
  - { offsetInCU: 0x952EF, offset: 0x952EF, size: 0x8, addend: 0x0, symName: __Z11keyCallbackP10GLFWwindowiiii, symObjAddr: 0x204C0, symBinAddr: 0x100020E00, symSize: 0x180 }
  - { offsetInCU: 0x95398, offset: 0x95398, size: 0x8, addend: 0x0, symName: __Z8PushBackI10InputEventEjP12DynamicArrayIT_ES2_, symObjAddr: 0x20640, symBinAddr: 0x100020F80, symSize: 0x70 }
  - { offsetInCU: 0x953E9, offset: 0x953E9, size: 0x8, addend: 0x0, symName: __Z12InputPressedP11InputDevicei, symObjAddr: 0x206B0, symBinAddr: 0x100020FF0, symSize: 0x50 }
  - { offsetInCU: 0x95423, offset: 0x95423, size: 0x8, addend: 0x0, symName: __Z13InputReleasedP11InputDevicei, symObjAddr: 0x20700, symBinAddr: 0x100021040, symSize: 0x30 }
  - { offsetInCU: 0x9545D, offset: 0x9545D, size: 0x8, addend: 0x0, symName: __Z9InputHeldP11InputDevicei, symObjAddr: 0x20730, symBinAddr: 0x100021070, symSize: 0x30 }
  - { offsetInCU: 0x95497, offset: 0x95497, size: 0x8, addend: 0x0, symName: __Z16InputHeldSecondsP11InputDeviceif, symObjAddr: 0x20760, symBinAddr: 0x1000210A0, symSize: 0x70 }
  - { offsetInCU: 0x954ED, offset: 0x954ED, size: 0x8, addend: 0x0, symName: __Z19mouseButtonCallbackP10GLFWwindowiii, symObjAddr: 0x207D0, symBinAddr: 0x100021110, symSize: 0x20 }
  - { offsetInCU: 0x9553F, offset: 0x9553F, size: 0x8, addend: 0x0, symName: __Z17cursorPosCallbackP10GLFWwindowdd, symObjAddr: 0x207F0, symBinAddr: 0x100021130, symSize: 0x20 }
  - { offsetInCU: 0x95583, offset: 0x95583, size: 0x8, addend: 0x0, symName: __Z11InputUpdateP10ZaynMemoryP12InputManager, symObjAddr: 0x20810, symBinAddr: 0x100021150, symSize: 0x290 }
  - { offsetInCU: 0x95669, offset: 0x95669, size: 0x8, addend: 0x0, symName: __ZNK12DynamicArrayI10InputEventEixEi, symObjAddr: 0x20AA0, symBinAddr: 0x1000213E0, symSize: 0x80 }
  - { offsetInCU: 0x956D6, offset: 0x956D6, size: 0x8, addend: 0x0, symName: __Z17ClearInputManagerP12InputManager, symObjAddr: 0x20B20, symBinAddr: 0x100021460, symSize: 0x30 }
  - { offsetInCU: 0x95700, offset: 0x95700, size: 0x8, addend: 0x0, symName: __Z17DynamicArrayClearI10InputEventEvP12DynamicArrayIT_E, symObjAddr: 0x20B50, symBinAddr: 0x100021490, symSize: 0x20 }
  - { offsetInCU: 0x95731, offset: 0x95731, size: 0x8, addend: 0x0, symName: __Z16InGameCameraInitv, symObjAddr: 0x20B70, symBinAddr: 0x1000214B0, symSize: 0xE0 }
  - { offsetInCU: 0x9575A, offset: 0x9575A, size: 0x8, addend: 0x0, symName: __ZN3glm3vecILi3EfLNS_9qualifierE0EEC1IiidEET_T0_T1_, symObjAddr: 0x20C50, symBinAddr: 0x100021590, symSize: 0x40 }
  - { offsetInCU: 0x957CB, offset: 0x957CB, size: 0x8, addend: 0x0, symName: __ZN3glm3vecILi3EfLNS_9qualifierE0EEC1IiiiEET_T0_T1_, symObjAddr: 0x20C90, symBinAddr: 0x1000215D0, symSize: 0x30 }
  - { offsetInCU: 0x9583C, offset: 0x9583C, size: 0x8, addend: 0x0, symName: __Z27FirstPersonCameraControllerv, symObjAddr: 0x20CC0, symBinAddr: 0x100021600, symSize: 0x10 }
  - { offsetInCU: 0x95855, offset: 0x95855, size: 0x8, addend: 0x0, symName: __Z18UpdateCameraInGamev, symObjAddr: 0x20CD0, symBinAddr: 0x100021610, symSize: 0x30 }
  - { offsetInCU: 0x9587E, offset: 0x9587E, size: 0x8, addend: 0x0, symName: __Z10LoadShaderv, symObjAddr: 0x20D00, symBinAddr: 0x100021640, symSize: 0x10 }
  - { offsetInCU: 0x95897, offset: 0x95897, size: 0x8, addend: 0x0, symName: __Z11InitCasetteP10ZaynMemory, symObjAddr: 0x20D10, symBinAddr: 0x100021650, symSize: 0xBE0 }
  - { offsetInCU: 0x95954, offset: 0x95954, size: 0x8, addend: 0x0, symName: __Z9Identity2v, symObjAddr: 0x218F0, symBinAddr: 0x100022230, symSize: 0x20 }
  - { offsetInCU: 0x95980, offset: 0x95980, size: 0x8, addend: 0x0, symName: __Z22UpdateAndRenderCasetteP10ZaynMemory, symObjAddr: 0x21910, symBinAddr: 0x100022250, symSize: 0x200 }
  - { offsetInCU: 0x959F0, offset: 0x959F0, size: 0x8, addend: 0x0, symName: __ZN3glm3vecILi3EfLNS_9qualifierE0EEpLIfEERS2_RKNS0_ILi3ET_LS1_0EEE, symObjAddr: 0x21B70, symBinAddr: 0x1000224B0, symSize: 0x50 }
  - { offsetInCU: 0x95A2F, offset: 0x95A2F, size: 0x8, addend: 0x0, symName: __ZN3glm3vecILi3EfLNS_9qualifierE0EEmIIfEERS2_RKNS0_ILi3ET_LS1_0EEE, symObjAddr: 0x21BC0, symBinAddr: 0x100022500, symSize: 0x60 }
  - { offsetInCU: 0x95A6E, offset: 0x95A6E, size: 0x8, addend: 0x0, symName: __Z8ZaynInitP10ZaynMemory, symObjAddr: 0x21C20, symBinAddr: 0x100022560, symSize: 0x40 }
  - { offsetInCU: 0x95AA4, offset: 0x95AA4, size: 0x8, addend: 0x0, symName: __Z19ZaynUpdateAndRenderP10ZaynMemory, symObjAddr: 0x21C60, symBinAddr: 0x1000225A0, symSize: 0x20 }
  - { offsetInCU: 0x95ACD, offset: 0x95ACD, size: 0x8, addend: 0x0, symName: _main, symObjAddr: 0x21C80, symBinAddr: 0x1000225C0, symSize: 0x12B0 }
  - { offsetInCU: 0x95BD7, offset: 0x95BD7, size: 0x8, addend: 0x0, symName: __ZNSt3__16vectorI14VkDynamicStateNS_9allocatorIS1_EEEC1B8ue170006Ev, symObjAddr: 0x22F30, symBinAddr: 0x100023870, symSize: 0x20 }
  - { offsetInCU: 0x95C01, offset: 0x95C01, size: 0x8, addend: 0x0, symName: __ZNSt3__16vectorIP9VkImage_TNS_9allocatorIS2_EEEC1B8ue170006Ev, symObjAddr: 0x22F50, symBinAddr: 0x100023890, symSize: 0x20 }
  - { offsetInCU: 0x95C2B, offset: 0x95C2B, size: 0x8, addend: 0x0, symName: __ZNSt3__16vectorIP16VkDeviceMemory_TNS_9allocatorIS2_EEEC1B8ue170006Ev, symObjAddr: 0x22F70, symBinAddr: 0x1000238B0, symSize: 0x20 }
  - { offsetInCU: 0x95C55, offset: 0x95C55, size: 0x8, addend: 0x0, symName: __ZNSt3__16vectorIP13VkImageView_TNS_9allocatorIS2_EEEC1B8ue170006Ev, symObjAddr: 0x22F90, symBinAddr: 0x1000238D0, symSize: 0x20 }
  - { offsetInCU: 0x95C7F, offset: 0x95C7F, size: 0x8, addend: 0x0, symName: __ZNSt3__16vectorIP15VkFramebuffer_TNS_9allocatorIS2_EEEC1B8ue170006Ev, symObjAddr: 0x22FB0, symBinAddr: 0x1000238F0, symSize: 0x20 }
  - { offsetInCU: 0x95CA9, offset: 0x95CA9, size: 0x8, addend: 0x0, symName: __ZNSt3__16vectorIP17VkCommandBuffer_TNS_9allocatorIS2_EEEC1B8ue170006Ev, symObjAddr: 0x22FD0, symBinAddr: 0x100023910, symSize: 0x20 }
  - { offsetInCU: 0x95CD3, offset: 0x95CD3, size: 0x8, addend: 0x0, symName: __ZNSt3__16vectorIP13VkSemaphore_TNS_9allocatorIS2_EEEC1B8ue170006Ev, symObjAddr: 0x22FF0, symBinAddr: 0x100023930, symSize: 0x20 }
  - { offsetInCU: 0x95CFD, offset: 0x95CFD, size: 0x8, addend: 0x0, symName: __ZNSt3__16vectorIP9VkFence_TNS_9allocatorIS2_EEEC1B8ue170006Ev, symObjAddr: 0x23010, symBinAddr: 0x100023950, symSize: 0x20 }
  - { offsetInCU: 0x95D27, offset: 0x95D27, size: 0x8, addend: 0x0, symName: __ZNSt3__16vectorIP10VkBuffer_TNS_9allocatorIS2_EEEC1B8ue170006Ev, symObjAddr: 0x23030, symBinAddr: 0x100023970, symSize: 0x20 }
  - { offsetInCU: 0x95D51, offset: 0x95D51, size: 0x8, addend: 0x0, symName: __ZNSt3__16vectorIPvNS_9allocatorIS1_EEEC1B8ue170006Ev, symObjAddr: 0x23050, symBinAddr: 0x100023990, symSize: 0x20 }
  - { offsetInCU: 0x95D7B, offset: 0x95D7B, size: 0x8, addend: 0x0, symName: __ZNSt3__16vectorIP17VkDescriptorSet_TNS_9allocatorIS2_EEEC1B8ue170006Ev, symObjAddr: 0x23070, symBinAddr: 0x1000239B0, symSize: 0x20 }
  - { offsetInCU: 0x95DA5, offset: 0x95DA5, size: 0x8, addend: 0x0, symName: __ZNSt3__16vectorI7Vertex_NS_9allocatorIS1_EEEC1B8ue170006Ev, symObjAddr: 0x23090, symBinAddr: 0x1000239D0, symSize: 0x20 }
  - { offsetInCU: 0x95DCF, offset: 0x95DCF, size: 0x8, addend: 0x0, symName: __ZNSt3__16vectorIjNS_9allocatorIjEEED1B8ue170006Ev, symObjAddr: 0x230B0, symBinAddr: 0x1000239F0, symSize: 0x20 }
  - { offsetInCU: 0x95DF9, offset: 0x95DF9, size: 0x8, addend: 0x0, symName: __ZNSt3__16vectorI7Vertex_NS_9allocatorIS1_EEED1B8ue170006Ev, symObjAddr: 0x230D0, symBinAddr: 0x100023A10, symSize: 0x20 }
  - { offsetInCU: 0x95E23, offset: 0x95E23, size: 0x8, addend: 0x0, symName: __ZNSt3__16vectorIP17VkDescriptorSet_TNS_9allocatorIS2_EEED1B8ue170006Ev, symObjAddr: 0x230F0, symBinAddr: 0x100023A30, symSize: 0x20 }
  - { offsetInCU: 0x95E4D, offset: 0x95E4D, size: 0x8, addend: 0x0, symName: __ZNSt3__16vectorIPvNS_9allocatorIS1_EEED1B8ue170006Ev, symObjAddr: 0x23110, symBinAddr: 0x100023A50, symSize: 0x20 }
  - { offsetInCU: 0x95E77, offset: 0x95E77, size: 0x8, addend: 0x0, symName: __ZNSt3__16vectorIP16VkDeviceMemory_TNS_9allocatorIS2_EEED1B8ue170006Ev, symObjAddr: 0x23130, symBinAddr: 0x100023A70, symSize: 0x20 }
  - { offsetInCU: 0x95EA1, offset: 0x95EA1, size: 0x8, addend: 0x0, symName: __ZNSt3__16vectorIP10VkBuffer_TNS_9allocatorIS2_EEED1B8ue170006Ev, symObjAddr: 0x23150, symBinAddr: 0x100023A90, symSize: 0x20 }
  - { offsetInCU: 0x95ECB, offset: 0x95ECB, size: 0x8, addend: 0x0, symName: __ZNSt3__16vectorIP9VkFence_TNS_9allocatorIS2_EEED1B8ue170006Ev, symObjAddr: 0x23170, symBinAddr: 0x100023AB0, symSize: 0x20 }
  - { offsetInCU: 0x95EF5, offset: 0x95EF5, size: 0x8, addend: 0x0, symName: __ZNSt3__16vectorIP13VkSemaphore_TNS_9allocatorIS2_EEED1B8ue170006Ev, symObjAddr: 0x23190, symBinAddr: 0x100023AD0, symSize: 0x20 }
  - { offsetInCU: 0x95F1F, offset: 0x95F1F, size: 0x8, addend: 0x0, symName: __ZNSt3__16vectorIP17VkCommandBuffer_TNS_9allocatorIS2_EEED1B8ue170006Ev, symObjAddr: 0x231B0, symBinAddr: 0x100023AF0, symSize: 0x20 }
  - { offsetInCU: 0x95F49, offset: 0x95F49, size: 0x8, addend: 0x0, symName: __ZNSt3__16vectorIP15VkFramebuffer_TNS_9allocatorIS2_EEED1B8ue170006Ev, symObjAddr: 0x231D0, symBinAddr: 0x100023B10, symSize: 0x20 }
  - { offsetInCU: 0x95F73, offset: 0x95F73, size: 0x8, addend: 0x0, symName: __ZNSt3__16vectorIP13VkImageView_TNS_9allocatorIS2_EEED1B8ue170006Ev, symObjAddr: 0x231F0, symBinAddr: 0x100023B30, symSize: 0x20 }
  - { offsetInCU: 0x95F9D, offset: 0x95F9D, size: 0x8, addend: 0x0, symName: __ZNSt3__16vectorIP9VkImage_TNS_9allocatorIS2_EEED1B8ue170006Ev, symObjAddr: 0x23210, symBinAddr: 0x100023B50, symSize: 0x20 }
  - { offsetInCU: 0x95FCC, offset: 0x95FCC, size: 0x8, addend: 0x0, symName: __ZN18PipelineConfigInfoD1Ev, symObjAddr: 0x23230, symBinAddr: 0x100023B70, symSize: 0x20 }
  - { offsetInCU: 0x95FF7, offset: 0x95FF7, size: 0x8, addend: 0x0, symName: __Z25framebuffer_size_callbackP10GLFWwindowii, symObjAddr: 0x23250, symBinAddr: 0x100023B90, symSize: 0x60 }
  - { offsetInCU: 0x9607E, offset: 0x9607E, size: 0x8, addend: 0x0, symName: __ZN12ZaynPlatformD1Ev, symObjAddr: 0x232B0, symBinAddr: 0x100023BF0, symSize: 0x20 }
  - { offsetInCU: 0x960AA, offset: 0x960AA, size: 0x8, addend: 0x0, symName: __ZN7tinyobj18MaterialFileReaderD0Ev, symObjAddr: 0x232D0, symBinAddr: 0x100023C10, symSize: 0x30 }
  - { offsetInCU: 0x960D4, offset: 0x960D4, size: 0x8, addend: 0x0, symName: __ZN7tinyobj20MaterialStreamReaderD0Ev, symObjAddr: 0x23300, symBinAddr: 0x100023C40, symSize: 0x30 }
  - { offsetInCU: 0x960FE, offset: 0x960FE, size: 0x8, addend: 0x0, symName: __ZNSt3__112basic_stringIcNS_11char_traitsIcEENS_9allocatorIcEEEC2B8ue170006Ev, symObjAddr: 0x23330, symBinAddr: 0x100023C70, symSize: 0x50 }
  - { offsetInCU: 0x9612E, offset: 0x9612E, size: 0x8, addend: 0x0, symName: __ZNSt3__117__compressed_pairINS_12basic_stringIcNS_11char_traitsIcEENS_9allocatorIcEEE5__repES5_EC1B8ue170006INS_18__default_init_tagESA_EEOT_OT0_, symObjAddr: 0x23380, symBinAddr: 0x100023CC0, symSize: 0x30 }
  - { offsetInCU: 0x96186, offset: 0x96186, size: 0x8, addend: 0x0, symName: __ZNSt3__112basic_stringIcNS_11char_traitsIcEENS_9allocatorIcEEE14__default_initB8ue170006Ev, symObjAddr: 0x233C0, symBinAddr: 0x100023D00, symSize: 0x50 }
  - { offsetInCU: 0x961AC, offset: 0x961AC, size: 0x8, addend: 0x0, symName: __ZNSt3__117__compressed_pairINS_12basic_stringIcNS_11char_traitsIcEENS_9allocatorIcEEE5__repES5_EC2B8ue170006INS_18__default_init_tagESA_EEOT_OT0_, symObjAddr: 0x23410, symBinAddr: 0x100023D50, symSize: 0x30 }
  - { offsetInCU: 0x96204, offset: 0x96204, size: 0x8, addend: 0x0, symName: __ZNSt3__122__compressed_pair_elemINS_12basic_stringIcNS_11char_traitsIcEENS_9allocatorIcEEE5__repELi0ELb0EEC2B8ue170006ENS_18__default_init_tagE, symObjAddr: 0x23440, symBinAddr: 0x100023D80, symSize: 0x10 }
  - { offsetInCU: 0x96239, offset: 0x96239, size: 0x8, addend: 0x0, symName: __ZNSt3__122__compressed_pair_elemINS_9allocatorIcEELi1ELb1EEC2B8ue170006ENS_18__default_init_tagE, symObjAddr: 0x23450, symBinAddr: 0x100023D90, symSize: 0x20 }
  - { offsetInCU: 0x9626E, offset: 0x9626E, size: 0x8, addend: 0x0, symName: __ZNSt3__19allocatorIcEC2B8ue170006Ev, symObjAddr: 0x23470, symBinAddr: 0x100023DB0, symSize: 0x20 }
  - { offsetInCU: 0x96298, offset: 0x96298, size: 0x8, addend: 0x0, symName: __ZNSt3__116__non_trivial_ifILb1ENS_9allocatorIcEEEC2B8ue170006Ev, symObjAddr: 0x23490, symBinAddr: 0x100023DD0, symSize: 0x10 }
  - { offsetInCU: 0x962C2, offset: 0x962C2, size: 0x8, addend: 0x0, symName: __ZNSt3__117__compressed_pairINS_12basic_stringIcNS_11char_traitsIcEENS_9allocatorIcEEE5__repES5_E5firstB8ue170006Ev, symObjAddr: 0x234A0, symBinAddr: 0x100023DE0, symSize: 0x20 }
  - { offsetInCU: 0x962E8, offset: 0x962E8, size: 0x8, addend: 0x0, symName: __ZNSt3__122__compressed_pair_elemINS_12basic_stringIcNS_11char_traitsIcEENS_9allocatorIcEEE5__repELi0ELb0EE5__getB8ue170006Ev, symObjAddr: 0x234C0, symBinAddr: 0x100023E00, symSize: 0x10 }
  - { offsetInCU: 0x9630E, offset: 0x9630E, size: 0x8, addend: 0x0, symName: __ZNSt3__112basic_stringIcNS_11char_traitsIcEENS_9allocatorIcEEEC1B8ue170006IPKcLi0EEET_S9_, symObjAddr: 0x23A20, symBinAddr: 0x100024360, symSize: 0x30 }
  - { offsetInCU: 0x96365, offset: 0x96365, size: 0x8, addend: 0x0, symName: __ZNSt3__112basic_stringIcNS_11char_traitsIcEENS_9allocatorIcEEEC2B8ue170006IPKcLi0EEET_S9_, symObjAddr: 0x23A50, symBinAddr: 0x100024390, symSize: 0x40 }
  - { offsetInCU: 0x963BC, offset: 0x963BC, size: 0x8, addend: 0x0, symName: __ZNSt3__112basic_stringIcNS_11char_traitsIcEENS_9allocatorIcEEE6__initIPKcLi0EEEvT_S9_, symObjAddr: 0x23A90, symBinAddr: 0x1000243D0, symSize: 0x50 }
  - { offsetInCU: 0x96421, offset: 0x96421, size: 0x8, addend: 0x0, symName: __ZNSt3__112basic_stringIcNS_11char_traitsIcEENS_9allocatorIcEEE16__init_with_sizeB8ue170006IPKcS8_EEvT_T0_m, symObjAddr: 0x23B10, symBinAddr: 0x100024450, symSize: 0x140 }
  - { offsetInCU: 0x964B7, offset: 0x964B7, size: 0x8, addend: 0x0, symName: __ZNKSt3__112basic_stringIcNS_11char_traitsIcEENS_9allocatorIcEEE8max_sizeB8ue170006Ev, symObjAddr: 0x23C70, symBinAddr: 0x1000245B0, symSize: 0xA0 }
  - { offsetInCU: 0x9650C, offset: 0x9650C, size: 0x8, addend: 0x0, symName: __ZNKSt3__112basic_stringIcNS_11char_traitsIcEENS_9allocatorIcEEE20__throw_length_errorB8ue170006Ev, symObjAddr: 0x23D10, symBinAddr: 0x100024650, symSize: 0x20 }
  - { offsetInCU: 0x96532, offset: 0x96532, size: 0x8, addend: 0x0, symName: __ZNSt3__112basic_stringIcNS_11char_traitsIcEENS_9allocatorIcEEE13__fits_in_ssoB8ue170006Em, symObjAddr: 0x23D30, symBinAddr: 0x100024670, symSize: 0x20 }
  - { offsetInCU: 0x96556, offset: 0x96556, size: 0x8, addend: 0x0, symName: __ZNSt3__112basic_stringIcNS_11char_traitsIcEENS_9allocatorIcEEE16__set_short_sizeB8ue170006Em, symObjAddr: 0x23D50, symBinAddr: 0x100024690, symSize: 0x50 }
  - { offsetInCU: 0x9658B, offset: 0x9658B, size: 0x8, addend: 0x0, symName: __ZNSt3__112basic_stringIcNS_11char_traitsIcEENS_9allocatorIcEEE19__get_short_pointerB8ue170006Ev, symObjAddr: 0x23DA0, symBinAddr: 0x1000246E0, symSize: 0x30 }
  - { offsetInCU: 0x965B1, offset: 0x965B1, size: 0x8, addend: 0x0, symName: __ZNSt3__112basic_stringIcNS_11char_traitsIcEENS_9allocatorIcEEE7__allocB8ue170006Ev, symObjAddr: 0x23E10, symBinAddr: 0x100024750, symSize: 0x20 }
  - { offsetInCU: 0x965D7, offset: 0x965D7, size: 0x8, addend: 0x0, symName: __ZNSt3__112basic_stringIcNS_11char_traitsIcEENS_9allocatorIcEEE11__recommendB8ue170006Em, symObjAddr: 0x23E30, symBinAddr: 0x100024770, symSize: 0x70 }
  - { offsetInCU: 0x9660B, offset: 0x9660B, size: 0x8, addend: 0x0, symName: __ZNSt3__112basic_stringIcNS_11char_traitsIcEENS_9allocatorIcEEE16__begin_lifetimeB8ue170006EPcm, symObjAddr: 0x23EA0, symBinAddr: 0x1000247E0, symSize: 0x10 }
  - { offsetInCU: 0x9663E, offset: 0x9663E, size: 0x8, addend: 0x0, symName: __ZNSt3__112basic_stringIcNS_11char_traitsIcEENS_9allocatorIcEEE18__set_long_pointerB8ue170006EPc, symObjAddr: 0x23EB0, symBinAddr: 0x1000247F0, symSize: 0x30 }
  - { offsetInCU: 0x96673, offset: 0x96673, size: 0x8, addend: 0x0, symName: __ZNSt3__112basic_stringIcNS_11char_traitsIcEENS_9allocatorIcEEE14__set_long_capB8ue170006Em, symObjAddr: 0x23EE0, symBinAddr: 0x100024820, symSize: 0x70 }
  - { offsetInCU: 0x966A8, offset: 0x966A8, size: 0x8, addend: 0x0, symName: __ZNSt3__112basic_stringIcNS_11char_traitsIcEENS_9allocatorIcEEE15__set_long_sizeB8ue170006Em, symObjAddr: 0x23F50, symBinAddr: 0x100024890, symSize: 0x30 }
  - { offsetInCU: 0x966DD, offset: 0x966DD, size: 0x8, addend: 0x0, symName: __ZNSt3__111char_traitsIcE6assignB8ue170006ERcRKc, symObjAddr: 0x23F80, symBinAddr: 0x1000248C0, symSize: 0x20 }
  - { offsetInCU: 0x96718, offset: 0x96718, size: 0x8, addend: 0x0, symName: __ZNSt3__116allocator_traitsINS_9allocatorIcEEE8max_sizeB8ue170006IS2_vvEEmRKS2_, symObjAddr: 0x23FA0, symBinAddr: 0x1000248E0, symSize: 0x20 }
  - { offsetInCU: 0x96744, offset: 0x96744, size: 0x8, addend: 0x0, symName: __ZNKSt3__112basic_stringIcNS_11char_traitsIcEENS_9allocatorIcEEE7__allocB8ue170006Ev, symObjAddr: 0x23FC0, symBinAddr: 0x100024900, symSize: 0x20 }
  - { offsetInCU: 0x9676A, offset: 0x9676A, size: 0x8, addend: 0x0, symName: __ZNSt3__114numeric_limitsImE3maxB8ue170006Ev, symObjAddr: 0x23FE0, symBinAddr: 0x100024920, symSize: 0x10 }
  - { offsetInCU: 0x9677E, offset: 0x9677E, size: 0x8, addend: 0x0, symName: __ZNKSt3__117__compressed_pairINS_12basic_stringIcNS_11char_traitsIcEENS_9allocatorIcEEE5__repES5_E6secondB8ue170006Ev, symObjAddr: 0x23FF0, symBinAddr: 0x100024930, symSize: 0x20 }
  - { offsetInCU: 0x967A4, offset: 0x967A4, size: 0x8, addend: 0x0, symName: __ZNKSt3__122__compressed_pair_elemINS_9allocatorIcEELi1ELb1EE5__getB8ue170006Ev, symObjAddr: 0x24010, symBinAddr: 0x100024950, symSize: 0x10 }
  - { offsetInCU: 0x967CA, offset: 0x967CA, size: 0x8, addend: 0x0, symName: __ZNSt3__123__libcpp_numeric_limitsImLb1EE3maxB8ue170006Ev, symObjAddr: 0x24020, symBinAddr: 0x100024960, symSize: 0x10 }
  - { offsetInCU: 0x967DE, offset: 0x967DE, size: 0x8, addend: 0x0, symName: __ZNSt12length_errorC1B8ue170006EPKc, symObjAddr: 0x240A0, symBinAddr: 0x1000249E0, symSize: 0x30 }
  - { offsetInCU: 0x96816, offset: 0x96816, size: 0x8, addend: 0x0, symName: __ZNSt12length_errorC2B8ue170006EPKc, symObjAddr: 0x240D0, symBinAddr: 0x100024A10, symSize: 0x40 }
  - { offsetInCU: 0x9684E, offset: 0x9684E, size: 0x8, addend: 0x0, symName: __ZNSt3__114pointer_traitsIPcE10pointer_toB8ue170006ERc, symObjAddr: 0x24110, symBinAddr: 0x100024A50, symSize: 0x10 }
  - { offsetInCU: 0x96871, offset: 0x96871, size: 0x8, addend: 0x0, symName: __ZNSt3__19allocatorIcE8allocateB8ue170006Em, symObjAddr: 0x24120, symBinAddr: 0x100024A60, symSize: 0x50 }
  - { offsetInCU: 0x968A5, offset: 0x968A5, size: 0x8, addend: 0x0, symName: __ZNSt3__117__compressed_pairINS_12basic_stringIcNS_11char_traitsIcEENS_9allocatorIcEEE5__repES5_E6secondB8ue170006Ev, symObjAddr: 0x24280, symBinAddr: 0x100024BC0, symSize: 0x20 }
  - { offsetInCU: 0x968CB, offset: 0x968CB, size: 0x8, addend: 0x0, symName: __ZNSt3__122__compressed_pair_elemINS_9allocatorIcEELi1ELb1EE5__getB8ue170006Ev, symObjAddr: 0x242A0, symBinAddr: 0x100024BE0, symSize: 0x10 }
  - { offsetInCU: 0x968F1, offset: 0x968F1, size: 0x8, addend: 0x0, symName: __ZNSt3__112basic_stringIcNS_11char_traitsIcEENS_9allocatorIcEEE10__align_itB8ue170006ILm16EEEmm, symObjAddr: 0x242B0, symBinAddr: 0x100024BF0, symSize: 0x20 }
  - { offsetInCU: 0x9691F, offset: 0x9691F, size: 0x8, addend: 0x0, symName: __ZNSt3__112basic_stringIcNS_11char_traitsIcEENS_9allocatorIcEEE13__move_assignB8ue170006ERS5_NS_17integral_constantIbLb1EEE, symObjAddr: 0x242D0, symBinAddr: 0x100024C10, symSize: 0xD0 }
  - { offsetInCU: 0x96962, offset: 0x96962, size: 0x8, addend: 0x0, symName: __ZNKSt3__112basic_stringIcNS_11char_traitsIcEENS_9allocatorIcEEE9__is_longB8ue170006Ev, symObjAddr: 0x243A0, symBinAddr: 0x100024CE0, symSize: 0x30 }
  - { offsetInCU: 0x96988, offset: 0x96988, size: 0x8, addend: 0x0, symName: __ZNSt3__116allocator_traitsINS_9allocatorIcEEE10deallocateB8ue170006ERS2_Pcm, symObjAddr: 0x243D0, symBinAddr: 0x100024D10, symSize: 0x30 }
  - { offsetInCU: 0x969CA, offset: 0x969CA, size: 0x8, addend: 0x0, symName: __ZNSt3__112basic_stringIcNS_11char_traitsIcEENS_9allocatorIcEEE18__get_long_pointerB8ue170006Ev, symObjAddr: 0x24400, symBinAddr: 0x100024D40, symSize: 0x20 }
  - { offsetInCU: 0x969F0, offset: 0x969F0, size: 0x8, addend: 0x0, symName: __ZNKSt3__112basic_stringIcNS_11char_traitsIcEENS_9allocatorIcEEE14__get_long_capB8ue170006Ev, symObjAddr: 0x24420, symBinAddr: 0x100024D60, symSize: 0x30 }
  - { offsetInCU: 0x96A16, offset: 0x96A16, size: 0x8, addend: 0x0, symName: __ZNSt3__112basic_stringIcNS_11char_traitsIcEENS_9allocatorIcEEE19__move_assign_allocB8ue170006ERS5_, symObjAddr: 0x24450, symBinAddr: 0x100024D90, symSize: 0x30 }
  - { offsetInCU: 0x96A4B, offset: 0x96A4B, size: 0x8, addend: 0x0, symName: __ZNKSt3__117__compressed_pairINS_12basic_stringIcNS_11char_traitsIcEENS_9allocatorIcEEE5__repES5_E5firstB8ue170006Ev, symObjAddr: 0x24480, symBinAddr: 0x100024DC0, symSize: 0x20 }
  - { offsetInCU: 0x96A71, offset: 0x96A71, size: 0x8, addend: 0x0, symName: __ZNKSt3__122__compressed_pair_elemINS_12basic_stringIcNS_11char_traitsIcEENS_9allocatorIcEEE5__repELi0ELb0EE5__getB8ue170006Ev, symObjAddr: 0x244A0, symBinAddr: 0x100024DE0, symSize: 0x10 }
  - { offsetInCU: 0x96A97, offset: 0x96A97, size: 0x8, addend: 0x0, symName: __ZNSt3__19allocatorIcE10deallocateB8ue170006EPcm, symObjAddr: 0x244B0, symBinAddr: 0x100024DF0, symSize: 0x40 }
  - { offsetInCU: 0x96AD9, offset: 0x96AD9, size: 0x8, addend: 0x0, symName: __ZNSt3__112basic_stringIcNS_11char_traitsIcEENS_9allocatorIcEEE19__move_assign_allocB8ue170006ERS5_NS_17integral_constantIbLb1EEE, symObjAddr: 0x245F0, symBinAddr: 0x100024F30, symSize: 0x30 }
  - { offsetInCU: 0x96B1A, offset: 0x96B1A, size: 0x8, addend: 0x0, symName: __ZNSt3__112basic_stringIcNS_11char_traitsIcEENS_9allocatorIcEEEC2B8ue170006ILi0EEEPKc, symObjAddr: 0x24620, symBinAddr: 0x100024F60, symSize: 0x50 }
  - { offsetInCU: 0x96B59, offset: 0x96B59, size: 0x8, addend: 0x0, symName: __ZNSt3__111char_traitsIcE6lengthB8ue170006EPKc, symObjAddr: 0x24670, symBinAddr: 0x100024FB0, symSize: 0x30 }
  - { offsetInCU: 0x96B7C, offset: 0x96B7C, size: 0x8, addend: 0x0, symName: __ZN7tinyobj10material_tC2Ev, symObjAddr: 0x246C0, symBinAddr: 0x100025000, symSize: 0x1D0 }
  - { offsetInCU: 0x96BAD, offset: 0x96BAD, size: 0x8, addend: 0x0, symName: __ZN7tinyobj16texture_option_tC1Ev, symObjAddr: 0x24890, symBinAddr: 0x1000251D0, symSize: 0x20 }
  - { offsetInCU: 0x96BD9, offset: 0x96BD9, size: 0x8, addend: 0x0, symName: __ZNSt3__13mapINS_12basic_stringIcNS_11char_traitsIcEENS_9allocatorIcEEEES6_NS_4lessIS6_EENS4_INS_4pairIKS6_S6_EEEEEC1B8ue170006Ev, symObjAddr: 0x248B0, symBinAddr: 0x1000251F0, symSize: 0x20 }
  - { offsetInCU: 0x96C03, offset: 0x96C03, size: 0x8, addend: 0x0, symName: __ZN7tinyobj16texture_option_tC2Ev, symObjAddr: 0x248D0, symBinAddr: 0x100025210, symSize: 0x20 }
  - { offsetInCU: 0x96C2F, offset: 0x96C2F, size: 0x8, addend: 0x0, symName: __ZNSt3__13mapINS_12basic_stringIcNS_11char_traitsIcEENS_9allocatorIcEEEES6_NS_4lessIS6_EENS4_INS_4pairIKS6_S6_EEEEEC2B8ue170006Ev, symObjAddr: 0x248F0, symBinAddr: 0x100025230, symSize: 0x30 }
  - { offsetInCU: 0x96C59, offset: 0x96C59, size: 0x8, addend: 0x0, symName: __ZNSt3__119__map_value_compareINS_12basic_stringIcNS_11char_traitsIcEENS_9allocatorIcEEEENS_12__value_typeIS6_S6_EENS_4lessIS6_EELb1EEC1B8ue170006ESA_, symObjAddr: 0x24920, symBinAddr: 0x100025260, symSize: 0x20 }
  - { offsetInCU: 0x96C92, offset: 0x96C92, size: 0x8, addend: 0x0, symName: __ZNSt3__16__treeINS_12__value_typeINS_12basic_stringIcNS_11char_traitsIcEENS_9allocatorIcEEEES7_EENS_19__map_value_compareIS7_S8_NS_4lessIS7_EELb1EEENS5_IS8_EEEC1ERKSC_, symObjAddr: 0x24940, symBinAddr: 0x100025280, symSize: 0x30 }
  - { offsetInCU: 0x96CCD, offset: 0x96CCD, size: 0x8, addend: 0x0, symName: __ZNSt3__119__map_value_compareINS_12basic_stringIcNS_11char_traitsIcEENS_9allocatorIcEEEENS_12__value_typeIS6_S6_EENS_4lessIS6_EELb1EEC2B8ue170006ESA_, symObjAddr: 0x24970, symBinAddr: 0x1000252B0, symSize: 0x10 }
  - { offsetInCU: 0x96D06, offset: 0x96D06, size: 0x8, addend: 0x0, symName: __ZNSt3__16__treeINS_12__value_typeINS_12basic_stringIcNS_11char_traitsIcEENS_9allocatorIcEEEES7_EENS_19__map_value_compareIS7_S8_NS_4lessIS7_EELb1EEENS5_IS8_EEEC2ERKSC_, symObjAddr: 0x24980, symBinAddr: 0x1000252C0, symSize: 0x80 }
  - { offsetInCU: 0x96D41, offset: 0x96D41, size: 0x8, addend: 0x0, symName: __ZNSt3__117__compressed_pairINS_15__tree_end_nodeIPNS_16__tree_node_baseIPvEEEENS_9allocatorINS_11__tree_nodeINS_12__value_typeINS_12basic_stringIcNS_11char_traitsIcEENS7_IcEEEESE_EES3_EEEEEC1B8ue170006ILb1EvEEv, symObjAddr: 0x24A00, symBinAddr: 0x100025340, symSize: 0x20 }
  - { offsetInCU: 0x96D76, offset: 0x96D76, size: 0x8, addend: 0x0, symName: __ZNSt3__117__compressed_pairImNS_19__map_value_compareINS_12basic_stringIcNS_11char_traitsIcEENS_9allocatorIcEEEENS_12__value_typeIS7_S7_EENS_4lessIS7_EELb1EEEEC1B8ue170006IiRKSC_EEOT_OT0_, symObjAddr: 0x24A20, symBinAddr: 0x100025360, symSize: 0x30 }
  - { offsetInCU: 0x96DCE, offset: 0x96DCE, size: 0x8, addend: 0x0, symName: __ZNSt3__16__treeINS_12__value_typeINS_12basic_stringIcNS_11char_traitsIcEENS_9allocatorIcEEEES7_EENS_19__map_value_compareIS7_S8_NS_4lessIS7_EELb1EEENS5_IS8_EEE10__end_nodeB8ue170006Ev, symObjAddr: 0x24A50, symBinAddr: 0x100025390, symSize: 0x30 }
  - { offsetInCU: 0x96DF4, offset: 0x96DF4, size: 0x8, addend: 0x0, symName: __ZNSt3__16__treeINS_12__value_typeINS_12basic_stringIcNS_11char_traitsIcEENS_9allocatorIcEEEES7_EENS_19__map_value_compareIS7_S8_NS_4lessIS7_EELb1EEENS5_IS8_EEE12__begin_nodeB8ue170006Ev, symObjAddr: 0x24A80, symBinAddr: 0x1000253C0, symSize: 0x10 }
  - { offsetInCU: 0x96E1A, offset: 0x96E1A, size: 0x8, addend: 0x0, symName: __ZNSt3__117__compressed_pairINS_15__tree_end_nodeIPNS_16__tree_node_baseIPvEEEENS_9allocatorINS_11__tree_nodeINS_12__value_typeINS_12basic_stringIcNS_11char_traitsIcEENS7_IcEEEESE_EES3_EEEEEC2B8ue170006ILb1EvEEv, symObjAddr: 0x24A90, symBinAddr: 0x1000253D0, symSize: 0x30 }
  - { offsetInCU: 0x96E4F, offset: 0x96E4F, size: 0x8, addend: 0x0, symName: __ZNSt3__122__compressed_pair_elemINS_15__tree_end_nodeIPNS_16__tree_node_baseIPvEEEELi0ELb0EEC2B8ue170006ENS_16__value_init_tagE, symObjAddr: 0x24AC0, symBinAddr: 0x100025400, symSize: 0x20 }
  - { offsetInCU: 0x96E84, offset: 0x96E84, size: 0x8, addend: 0x0, symName: __ZNSt3__122__compressed_pair_elemINS_9allocatorINS_11__tree_nodeINS_12__value_typeINS_12basic_stringIcNS_11char_traitsIcEENS1_IcEEEES8_EEPvEEEELi1ELb1EEC2B8ue170006ENS_16__value_init_tagE, symObjAddr: 0x24AE0, symBinAddr: 0x100025420, symSize: 0x20 }
  - { offsetInCU: 0x96EB9, offset: 0x96EB9, size: 0x8, addend: 0x0, symName: __ZNSt3__115__tree_end_nodeIPNS_16__tree_node_baseIPvEEEC1B8ue170006Ev, symObjAddr: 0x24B00, symBinAddr: 0x100025440, symSize: 0x20 }
  - { offsetInCU: 0x96EE3, offset: 0x96EE3, size: 0x8, addend: 0x0, symName: __ZNSt3__115__tree_end_nodeIPNS_16__tree_node_baseIPvEEEC2B8ue170006Ev, symObjAddr: 0x24B20, symBinAddr: 0x100025460, symSize: 0x20 }
  - { offsetInCU: 0x96F0D, offset: 0x96F0D, size: 0x8, addend: 0x0, symName: __ZNSt3__19allocatorINS_11__tree_nodeINS_12__value_typeINS_12basic_stringIcNS_11char_traitsIcEENS0_IcEEEES7_EEPvEEEC2B8ue170006Ev, symObjAddr: 0x24B40, symBinAddr: 0x100025480, symSize: 0x20 }
  - { offsetInCU: 0x96F37, offset: 0x96F37, size: 0x8, addend: 0x0, symName: __ZNSt3__116__non_trivial_ifILb1ENS_9allocatorINS_11__tree_nodeINS_12__value_typeINS_12basic_stringIcNS_11char_traitsIcEENS1_IcEEEES8_EEPvEEEEEC2B8ue170006Ev, symObjAddr: 0x24B60, symBinAddr: 0x1000254A0, symSize: 0x10 }
  - { offsetInCU: 0x96F61, offset: 0x96F61, size: 0x8, addend: 0x0, symName: __ZNSt3__117__compressed_pairImNS_19__map_value_compareINS_12basic_stringIcNS_11char_traitsIcEENS_9allocatorIcEEEENS_12__value_typeIS7_S7_EENS_4lessIS7_EELb1EEEEC2B8ue170006IiRKSC_EEOT_OT0_, symObjAddr: 0x24B70, symBinAddr: 0x1000254B0, symSize: 0x40 }
  - { offsetInCU: 0x96FB9, offset: 0x96FB9, size: 0x8, addend: 0x0, symName: __ZNSt3__122__compressed_pair_elemImLi0ELb0EEC2B8ue170006IivEEOT_, symObjAddr: 0x24BB0, symBinAddr: 0x1000254F0, symSize: 0x20 }
  - { offsetInCU: 0x96FFB, offset: 0x96FFB, size: 0x8, addend: 0x0, symName: __ZNSt3__122__compressed_pair_elemINS_19__map_value_compareINS_12basic_stringIcNS_11char_traitsIcEENS_9allocatorIcEEEENS_12__value_typeIS7_S7_EENS_4lessIS7_EELb1EEELi1ELb1EEC2B8ue170006IRKSC_vEEOT_, symObjAddr: 0x24BD0, symBinAddr: 0x100025510, symSize: 0x10 }
  - { offsetInCU: 0x9703D, offset: 0x9703D, size: 0x8, addend: 0x0, symName: __ZNSt3__114pointer_traitsIPNS_15__tree_end_nodeIPNS_16__tree_node_baseIPvEEEEE10pointer_toB8ue170006ERS6_, symObjAddr: 0x24BE0, symBinAddr: 0x100025520, symSize: 0x10 }
  - { offsetInCU: 0x97060, offset: 0x97060, size: 0x8, addend: 0x0, symName: __ZNSt3__117__compressed_pairINS_15__tree_end_nodeIPNS_16__tree_node_baseIPvEEEENS_9allocatorINS_11__tree_nodeINS_12__value_typeINS_12basic_stringIcNS_11char_traitsIcEENS7_IcEEEESE_EES3_EEEEE5firstB8ue170006Ev, symObjAddr: 0x24BF0, symBinAddr: 0x100025530, symSize: 0x20 }
  - { offsetInCU: 0x97086, offset: 0x97086, size: 0x8, addend: 0x0, symName: __ZNSt3__122__compressed_pair_elemINS_15__tree_end_nodeIPNS_16__tree_node_baseIPvEEEELi0ELb0EE5__getB8ue170006Ev, symObjAddr: 0x24C10, symBinAddr: 0x100025550, symSize: 0x10 }
  - { offsetInCU: 0x970AC, offset: 0x970AC, size: 0x8, addend: 0x0, symName: __ZNSt3__13mapINS_12basic_stringIcNS_11char_traitsIcEENS_9allocatorIcEEEES6_NS_4lessIS6_EENS4_INS_4pairIKS6_S6_EEEEE5clearB8ue170006Ev, symObjAddr: 0x24D40, symBinAddr: 0x100025680, symSize: 0x20 }
  - { offsetInCU: 0x970D2, offset: 0x970D2, size: 0x8, addend: 0x0, symName: __ZNSt3__16__treeINS_12__value_typeINS_12basic_stringIcNS_11char_traitsIcEENS_9allocatorIcEEEES7_EENS_19__map_value_compareIS7_S8_NS_4lessIS7_EELb1EEENS5_IS8_EEE5clearEv, symObjAddr: 0x24D60, symBinAddr: 0x1000256A0, symSize: 0x70 }
  - { offsetInCU: 0x970FA, offset: 0x970FA, size: 0x8, addend: 0x0, symName: __ZNSt3__16__treeINS_12__value_typeINS_12basic_stringIcNS_11char_traitsIcEENS_9allocatorIcEEEES7_EENS_19__map_value_compareIS7_S8_NS_4lessIS7_EELb1EEENS5_IS8_EEE7destroyEPNS_11__tree_nodeIS8_PvEE, symObjAddr: 0x24DD0, symBinAddr: 0x100025710, symSize: 0xB0 }
  - { offsetInCU: 0x97148, offset: 0x97148, size: 0x8, addend: 0x0, symName: __ZNKSt3__16__treeINS_12__value_typeINS_12basic_stringIcNS_11char_traitsIcEENS_9allocatorIcEEEES7_EENS_19__map_value_compareIS7_S8_NS_4lessIS7_EELb1EEENS5_IS8_EEE6__rootB8ue170006Ev, symObjAddr: 0x24E80, symBinAddr: 0x1000257C0, symSize: 0x20 }
  - { offsetInCU: 0x9716E, offset: 0x9716E, size: 0x8, addend: 0x0, symName: __ZNSt3__16__treeINS_12__value_typeINS_12basic_stringIcNS_11char_traitsIcEENS_9allocatorIcEEEES7_EENS_19__map_value_compareIS7_S8_NS_4lessIS7_EELb1EEENS5_IS8_EEE4sizeB8ue170006Ev, symObjAddr: 0x24EA0, symBinAddr: 0x1000257E0, symSize: 0x20 }
  - { offsetInCU: 0x97194, offset: 0x97194, size: 0x8, addend: 0x0, symName: __ZNSt3__16__treeINS_12__value_typeINS_12basic_stringIcNS_11char_traitsIcEENS_9allocatorIcEEEES7_EENS_19__map_value_compareIS7_S8_NS_4lessIS7_EELb1EEENS5_IS8_EEE12__node_allocB8ue170006Ev, symObjAddr: 0x24EC0, symBinAddr: 0x100025800, symSize: 0x20 }
  - { offsetInCU: 0x971BA, offset: 0x971BA, size: 0x8, addend: 0x0, symName: __ZNSt3__116allocator_traitsINS_9allocatorINS_11__tree_nodeINS_12__value_typeINS_12basic_stringIcNS_11char_traitsIcEENS1_IcEEEES8_EEPvEEEEE7destroyB8ue170006INS_4pairIKS8_S8_EEvvEEvRSC_PT_, symObjAddr: 0x24EE0, symBinAddr: 0x100025820, symSize: 0x20 }
  - { offsetInCU: 0x971F5, offset: 0x971F5, size: 0x8, addend: 0x0, symName: __ZNSt3__122__tree_key_value_typesINS_12__value_typeINS_12basic_stringIcNS_11char_traitsIcEENS_9allocatorIcEEEES7_EEE9__get_ptrB8ue170006ERS8_, symObjAddr: 0x24F00, symBinAddr: 0x100025840, symSize: 0x20 }
  - { offsetInCU: 0x97219, offset: 0x97219, size: 0x8, addend: 0x0, symName: __ZNSt3__116allocator_traitsINS_9allocatorINS_11__tree_nodeINS_12__value_typeINS_12basic_stringIcNS_11char_traitsIcEENS1_IcEEEES8_EEPvEEEEE10deallocateB8ue170006ERSC_PSB_m, symObjAddr: 0x24F20, symBinAddr: 0x100025860, symSize: 0x30 }
  - { offsetInCU: 0x9725B, offset: 0x9725B, size: 0x8, addend: 0x0, symName: __ZNSt3__117__compressed_pairINS_15__tree_end_nodeIPNS_16__tree_node_baseIPvEEEENS_9allocatorINS_11__tree_nodeINS_12__value_typeINS_12basic_stringIcNS_11char_traitsIcEENS7_IcEEEESE_EES3_EEEEE6secondB8ue170006Ev, symObjAddr: 0x24F50, symBinAddr: 0x100025890, symSize: 0x20 }
  - { offsetInCU: 0x97281, offset: 0x97281, size: 0x8, addend: 0x0, symName: __ZNSt3__122__compressed_pair_elemINS_9allocatorINS_11__tree_nodeINS_12__value_typeINS_12basic_stringIcNS_11char_traitsIcEENS1_IcEEEES8_EEPvEEEELi1ELb1EE5__getB8ue170006Ev, symObjAddr: 0x24F70, symBinAddr: 0x1000258B0, symSize: 0x10 }
  - { offsetInCU: 0x972A7, offset: 0x972A7, size: 0x8, addend: 0x0, symName: __ZNSt3__14pairIKNS_12basic_stringIcNS_11char_traitsIcEENS_9allocatorIcEEEES6_ED1Ev, symObjAddr: 0x24FC0, symBinAddr: 0x100025900, symSize: 0x20 }
  - { offsetInCU: 0x972D3, offset: 0x972D3, size: 0x8, addend: 0x0, symName: __ZNSt3__14pairIKNS_12basic_stringIcNS_11char_traitsIcEENS_9allocatorIcEEEES6_ED2Ev, symObjAddr: 0x24FE0, symBinAddr: 0x100025920, symSize: 0x30 }
  - { offsetInCU: 0x972FF, offset: 0x972FF, size: 0x8, addend: 0x0, symName: __ZNSt3__112__value_typeINS_12basic_stringIcNS_11char_traitsIcEENS_9allocatorIcEEEES6_E11__get_valueB8ue170006Ev, symObjAddr: 0x25010, symBinAddr: 0x100025950, symSize: 0x20 }
  - { offsetInCU: 0x97325, offset: 0x97325, size: 0x8, addend: 0x0, symName: __ZNSt3__19allocatorINS_11__tree_nodeINS_12__value_typeINS_12basic_stringIcNS_11char_traitsIcEENS0_IcEEEES7_EEPvEEE10deallocateB8ue170006EPSA_m, symObjAddr: 0x25060, symBinAddr: 0x1000259A0, symSize: 0x50 }
  - { offsetInCU: 0x97367, offset: 0x97367, size: 0x8, addend: 0x0, symName: __ZNKSt3__16__treeINS_12__value_typeINS_12basic_stringIcNS_11char_traitsIcEENS_9allocatorIcEEEES7_EENS_19__map_value_compareIS7_S8_NS_4lessIS7_EELb1EEENS5_IS8_EEE10__end_nodeB8ue170006Ev, symObjAddr: 0x250B0, symBinAddr: 0x1000259F0, symSize: 0x30 }
  - { offsetInCU: 0x9738D, offset: 0x9738D, size: 0x8, addend: 0x0, symName: __ZNKSt3__117__compressed_pairINS_15__tree_end_nodeIPNS_16__tree_node_baseIPvEEEENS_9allocatorINS_11__tree_nodeINS_12__value_typeINS_12basic_stringIcNS_11char_traitsIcEENS7_IcEEEESE_EES3_EEEEE5firstB8ue170006Ev, symObjAddr: 0x250E0, symBinAddr: 0x100025A20, symSize: 0x20 }
  - { offsetInCU: 0x973B3, offset: 0x973B3, size: 0x8, addend: 0x0, symName: __ZNKSt3__122__compressed_pair_elemINS_15__tree_end_nodeIPNS_16__tree_node_baseIPvEEEELi0ELb0EE5__getB8ue170006Ev, symObjAddr: 0x25100, symBinAddr: 0x100025A40, symSize: 0x10 }
  - { offsetInCU: 0x973D9, offset: 0x973D9, size: 0x8, addend: 0x0, symName: __ZNSt3__117__compressed_pairImNS_19__map_value_compareINS_12basic_stringIcNS_11char_traitsIcEENS_9allocatorIcEEEENS_12__value_typeIS7_S7_EENS_4lessIS7_EELb1EEEE5firstB8ue170006Ev, symObjAddr: 0x25110, symBinAddr: 0x100025A50, symSize: 0x20 }
  - { offsetInCU: 0x973FF, offset: 0x973FF, size: 0x8, addend: 0x0, symName: __ZNSt3__122__compressed_pair_elemImLi0ELb0EE5__getB8ue170006Ev, symObjAddr: 0x25130, symBinAddr: 0x100025A70, symSize: 0x10 }
  - { offsetInCU: 0x97425, offset: 0x97425, size: 0x8, addend: 0x0, symName: __ZNSt3__112basic_stringIcNS_11char_traitsIcEENS_9allocatorIcEEE5clearB8ue170006Ev, symObjAddr: 0x25140, symBinAddr: 0x100025A80, symSize: 0x80 }
  - { offsetInCU: 0x9744D, offset: 0x9744D, size: 0x8, addend: 0x0, symName: __ZNKSt3__19basic_iosIcNS_11char_traitsIcEEE5rdbufB8ue170006Ev, symObjAddr: 0x251C0, symBinAddr: 0x100025B00, symSize: 0x20 }
  - { offsetInCU: 0x97493, offset: 0x97493, size: 0x8, addend: 0x0, symName: __ZNKSt3__113basic_istreamIcNS_11char_traitsIcEEE6sentrycvbB8ue170006Ev, symObjAddr: 0x251E0, symBinAddr: 0x100025B20, symSize: 0x20 }
  - { offsetInCU: 0x974B9, offset: 0x974B9, size: 0x8, addend: 0x0, symName: __ZNSt3__115basic_streambufIcNS_11char_traitsIcEEE6sbumpcB8ue170006Ev, symObjAddr: 0x25200, symBinAddr: 0x100025B40, symSize: 0x60 }
  - { offsetInCU: 0x974DF, offset: 0x974DF, size: 0x8, addend: 0x0, symName: __ZNSt3__115basic_streambufIcNS_11char_traitsIcEEE5sgetcB8ue170006Ev, symObjAddr: 0x25260, symBinAddr: 0x100025BA0, symSize: 0x50 }
  - { offsetInCU: 0x97505, offset: 0x97505, size: 0x8, addend: 0x0, symName: __ZNSt3__19basic_iosIcNS_11char_traitsIcEEE8setstateB8ue170006Ej, symObjAddr: 0x252B0, symBinAddr: 0x100025BF0, symSize: 0x30 }
  - { offsetInCU: 0x9753A, offset: 0x9753A, size: 0x8, addend: 0x0, symName: __ZNKSt3__18ios_base5rdbufB8ue170006Ev, symObjAddr: 0x252E0, symBinAddr: 0x100025C20, symSize: 0x20 }
  - { offsetInCU: 0x97560, offset: 0x97560, size: 0x8, addend: 0x0, symName: __ZNSt3__111char_traitsIcE11to_int_typeB8ue170006Ec, symObjAddr: 0x25300, symBinAddr: 0x100025C40, symSize: 0x10 }
  - { offsetInCU: 0x97584, offset: 0x97584, size: 0x8, addend: 0x0, symName: __ZNSt3__18ios_base8setstateB8ue170006Ej, symObjAddr: 0x25310, symBinAddr: 0x100025C50, symSize: 0x30 }
  - { offsetInCU: 0x975BB, offset: 0x975BB, size: 0x8, addend: 0x0, symName: __ZNKSt3__112basic_stringIcNS_11char_traitsIcEENS_9allocatorIcEEE15__get_long_sizeB8ue170006Ev, symObjAddr: 0x25340, symBinAddr: 0x100025C80, symSize: 0x20 }
  - { offsetInCU: 0x975E1, offset: 0x975E1, size: 0x8, addend: 0x0, symName: __ZNKSt3__112basic_stringIcNS_11char_traitsIcEENS_9allocatorIcEEE16__get_short_sizeB8ue170006Ev, symObjAddr: 0x25360, symBinAddr: 0x100025CA0, symSize: 0x30 }
  - { offsetInCU: 0x97607, offset: 0x97607, size: 0x8, addend: 0x0, symName: __ZNSt3__19allocatorIcEC1B8ue170006Ev, symObjAddr: 0x25390, symBinAddr: 0x100025CD0, symSize: 0x20 }
  - { offsetInCU: 0x97631, offset: 0x97631, size: 0x8, addend: 0x0, symName: __ZNKSt3__112basic_stringIcNS_11char_traitsIcEENS_9allocatorIcEEE4dataB8ue170006Ev, symObjAddr: 0x25460, symBinAddr: 0x100025DA0, symSize: 0x30 }
  - { offsetInCU: 0x97657, offset: 0x97657, size: 0x8, addend: 0x0, symName: __ZNSt3__111char_traitsIcE4findB8ue170006EPKcmRS2_, symObjAddr: 0x25490, symBinAddr: 0x100025DD0, symSize: 0x70 }
  - { offsetInCU: 0x97696, offset: 0x97696, size: 0x8, addend: 0x0, symName: __ZNKSt3__112basic_stringIcNS_11char_traitsIcEENS_9allocatorIcEEE13__get_pointerB8ue170006Ev, symObjAddr: 0x25550, symBinAddr: 0x100025E90, symSize: 0x50 }
  - { offsetInCU: 0x976BC, offset: 0x976BC, size: 0x8, addend: 0x0, symName: __ZNKSt3__112basic_stringIcNS_11char_traitsIcEENS_9allocatorIcEEE18__get_long_pointerB8ue170006Ev, symObjAddr: 0x255A0, symBinAddr: 0x100025EE0, symSize: 0x20 }
  - { offsetInCU: 0x976E2, offset: 0x976E2, size: 0x8, addend: 0x0, symName: __ZNKSt3__112basic_stringIcNS_11char_traitsIcEENS_9allocatorIcEEE19__get_short_pointerB8ue170006Ev, symObjAddr: 0x255C0, symBinAddr: 0x100025F00, symSize: 0x30 }
  - { offsetInCU: 0x97708, offset: 0x97708, size: 0x8, addend: 0x0, symName: __ZNSt3__114pointer_traitsIPKcE10pointer_toB8ue170006ERS1_, symObjAddr: 0x255F0, symBinAddr: 0x100025F30, symSize: 0x10 }
  - { offsetInCU: 0x9772B, offset: 0x9772B, size: 0x8, addend: 0x0, symName: __ZNSt3__112basic_stringIcNS_11char_traitsIcEENS_9allocatorIcEEE13__get_pointerB8ue170006Ev, symObjAddr: 0x25600, symBinAddr: 0x100025F40, symSize: 0x50 }
  - { offsetInCU: 0x97751, offset: 0x97751, size: 0x8, addend: 0x0, symName: __ZNSt3__14pairINS_12basic_stringIcNS_11char_traitsIcEENS_9allocatorIcEEEEiEC2B8ue170006IRS6_iLPv0EEEOT_OT0_, symObjAddr: 0x25650, symBinAddr: 0x100025F90, symSize: 0x40 }
  - { offsetInCU: 0x977AF, offset: 0x977AF, size: 0x8, addend: 0x0, symName: __ZNSt3__14pairINS_12basic_stringIcNS_11char_traitsIcEENS_9allocatorIcEEEEiED2Ev, symObjAddr: 0x25690, symBinAddr: 0x100025FD0, symSize: 0x20 }
  - { offsetInCU: 0x977DB, offset: 0x977DB, size: 0x8, addend: 0x0, symName: __ZNSt3__16vectorIN7tinyobj10material_tENS_9allocatorIS2_EEE9__end_capB8ue170006Ev, symObjAddr: 0x256B0, symBinAddr: 0x100025FF0, symSize: 0x20 }
  - { offsetInCU: 0x97806, offset: 0x97806, size: 0x8, addend: 0x0, symName: __ZNSt3__16vectorIN7tinyobj10material_tENS_9allocatorIS2_EEE22__construct_one_at_endB8ue170006IJRKS2_EEEvDpOT_, symObjAddr: 0x256D0, symBinAddr: 0x100026010, symSize: 0x90 }
  - { offsetInCU: 0x97856, offset: 0x97856, size: 0x8, addend: 0x0, symName: __ZNSt3__16vectorIN7tinyobj10material_tENS_9allocatorIS2_EEE21__push_back_slow_pathIRKS2_EEvOT_, symObjAddr: 0x25760, symBinAddr: 0x1000260A0, symSize: 0xD0 }
  - { offsetInCU: 0x978B6, offset: 0x978B6, size: 0x8, addend: 0x0, symName: __ZNSt3__117__compressed_pairIPN7tinyobj10material_tENS_9allocatorIS2_EEE5firstB8ue170006Ev, symObjAddr: 0x25830, symBinAddr: 0x100026170, symSize: 0x20 }
  - { offsetInCU: 0x978DC, offset: 0x978DC, size: 0x8, addend: 0x0, symName: __ZNSt3__122__compressed_pair_elemIPN7tinyobj10material_tELi0ELb0EE5__getB8ue170006Ev, symObjAddr: 0x25850, symBinAddr: 0x100026190, symSize: 0x10 }
  - { offsetInCU: 0x9791B, offset: 0x9791B, size: 0x8, addend: 0x0, symName: __ZNSt3__16vectorIN7tinyobj10material_tENS_9allocatorIS2_EEE21_ConstructTransactionC1B8ue170006ERS5_m, symObjAddr: 0x25860, symBinAddr: 0x1000261A0, symSize: 0x30 }
  - { offsetInCU: 0x97963, offset: 0x97963, size: 0x8, addend: 0x0, symName: __ZNSt3__116allocator_traitsINS_9allocatorIN7tinyobj10material_tEEEE9constructB8ue170006IS3_JRKS3_EvvEEvRS4_PT_DpOT0_, symObjAddr: 0x25890, symBinAddr: 0x1000261D0, symSize: 0x30 }
  - { offsetInCU: 0x979B8, offset: 0x979B8, size: 0x8, addend: 0x0, symName: __ZNSt3__16vectorIN7tinyobj10material_tENS_9allocatorIS2_EEE7__allocB8ue170006Ev, symObjAddr: 0x258C0, symBinAddr: 0x100026200, symSize: 0x20 }
  - { offsetInCU: 0x979DE, offset: 0x979DE, size: 0x8, addend: 0x0, symName: __ZNSt3__16vectorIN7tinyobj10material_tENS_9allocatorIS2_EEE21_ConstructTransactionD1B8ue170006Ev, symObjAddr: 0x258F0, symBinAddr: 0x100026230, symSize: 0x20 }
  - { offsetInCU: 0x97A08, offset: 0x97A08, size: 0x8, addend: 0x0, symName: __ZNSt3__16vectorIN7tinyobj10material_tENS_9allocatorIS2_EEE21_ConstructTransactionC2B8ue170006ERS5_m, symObjAddr: 0x25910, symBinAddr: 0x100026250, symSize: 0x40 }
  - { offsetInCU: 0x97A50, offset: 0x97A50, size: 0x8, addend: 0x0, symName: __ZN7tinyobj10material_tC1ERKS0_, symObjAddr: 0x25990, symBinAddr: 0x1000262D0, symSize: 0x30 }
  - { offsetInCU: 0x97A85, offset: 0x97A85, size: 0x8, addend: 0x0, symName: __ZN7tinyobj10material_tC2ERKS0_, symObjAddr: 0x259C0, symBinAddr: 0x100026300, symSize: 0x770 }
  - { offsetInCU: 0x97AC4, offset: 0x97AC4, size: 0x8, addend: 0x0, symName: __ZN7tinyobj16texture_option_tC1ERKS0_, symObjAddr: 0x26130, symBinAddr: 0x100026A70, symSize: 0x30 }
  - { offsetInCU: 0x97AF9, offset: 0x97AF9, size: 0x8, addend: 0x0, symName: __ZNSt3__13mapINS_12basic_stringIcNS_11char_traitsIcEENS_9allocatorIcEEEES6_NS_4lessIS6_EENS4_INS_4pairIKS6_S6_EEEEEC1B8ue170006ERKSD_, symObjAddr: 0x26160, symBinAddr: 0x100026AA0, symSize: 0x30 }
  - { offsetInCU: 0x97B32, offset: 0x97B32, size: 0x8, addend: 0x0, symName: __ZN7tinyobj16texture_option_tD1Ev, symObjAddr: 0x26190, symBinAddr: 0x100026AD0, symSize: 0x20 }
  - { offsetInCU: 0x97B5E, offset: 0x97B5E, size: 0x8, addend: 0x0, symName: __ZN7tinyobj16texture_option_tC2ERKS0_, symObjAddr: 0x261B0, symBinAddr: 0x100026AF0, symSize: 0x50 }
  - { offsetInCU: 0x97B93, offset: 0x97B93, size: 0x8, addend: 0x0, symName: __ZNSt3__13mapINS_12basic_stringIcNS_11char_traitsIcEENS_9allocatorIcEEEES6_NS_4lessIS6_EENS4_INS_4pairIKS6_S6_EEEEEC2B8ue170006ERKSD_, symObjAddr: 0x26200, symBinAddr: 0x100026B40, symSize: 0x80 }
  - { offsetInCU: 0x97BCC, offset: 0x97BCC, size: 0x8, addend: 0x0, symName: __ZNSt3__16__treeINS_12__value_typeINS_12basic_stringIcNS_11char_traitsIcEENS_9allocatorIcEEEES7_EENS_19__map_value_compareIS7_S8_NS_4lessIS7_EELb1EEENS5_IS8_EEEC1ERKSE_, symObjAddr: 0x26280, symBinAddr: 0x100026BC0, symSize: 0x30 }
  - { offsetInCU: 0x97C07, offset: 0x97C07, size: 0x8, addend: 0x0, symName: __ZNSt3__13mapINS_12basic_stringIcNS_11char_traitsIcEENS_9allocatorIcEEEES6_NS_4lessIS6_EENS4_INS_4pairIKS6_S6_EEEEE6insertB8ue170006INS_20__map_const_iteratorINS_21__tree_const_iteratorINS_12__value_typeIS6_S6_EEPNS_11__tree_nodeISI_PvEElEEEEEEvT_SP_, symObjAddr: 0x262B0, symBinAddr: 0x100026BF0, symSize: 0x90 }
  - { offsetInCU: 0x97C73, offset: 0x97C73, size: 0x8, addend: 0x0, symName: __ZNKSt3__13mapINS_12basic_stringIcNS_11char_traitsIcEENS_9allocatorIcEEEES6_NS_4lessIS6_EENS4_INS_4pairIKS6_S6_EEEEE5beginB8ue170006Ev, symObjAddr: 0x26340, symBinAddr: 0x100026C80, symSize: 0x30 }
  - { offsetInCU: 0x97C99, offset: 0x97C99, size: 0x8, addend: 0x0, symName: __ZNKSt3__13mapINS_12basic_stringIcNS_11char_traitsIcEENS_9allocatorIcEEEES6_NS_4lessIS6_EENS4_INS_4pairIKS6_S6_EEEEE3endB8ue170006Ev, symObjAddr: 0x26370, symBinAddr: 0x100026CB0, symSize: 0x30 }
  - { offsetInCU: 0x97CBF, offset: 0x97CBF, size: 0x8, addend: 0x0, symName: __ZNSt3__16__treeINS_12__value_typeINS_12basic_stringIcNS_11char_traitsIcEENS_9allocatorIcEEEES7_EENS_19__map_value_compareIS7_S8_NS_4lessIS7_EELb1EEENS5_IS8_EEED1Ev, symObjAddr: 0x263A0, symBinAddr: 0x100026CE0, symSize: 0x20 }
  - { offsetInCU: 0x97CEB, offset: 0x97CEB, size: 0x8, addend: 0x0, symName: __ZNSt3__16__treeINS_12__value_typeINS_12basic_stringIcNS_11char_traitsIcEENS_9allocatorIcEEEES7_EENS_19__map_value_compareIS7_S8_NS_4lessIS7_EELb1EEENS5_IS8_EEEC2ERKSE_, symObjAddr: 0x263C0, symBinAddr: 0x100026D00, symSize: 0xA0 }
  - { offsetInCU: 0x97D30, offset: 0x97D30, size: 0x8, addend: 0x0, symName: __ZNSt3__116allocator_traitsINS_9allocatorINS_11__tree_nodeINS_12__value_typeINS_12basic_stringIcNS_11char_traitsIcEENS1_IcEEEES8_EEPvEEEEE37select_on_container_copy_constructionB8ue170006ISC_vvEESC_RKSC_, symObjAddr: 0x26460, symBinAddr: 0x100026DA0, symSize: 0x10 }
  - { offsetInCU: 0x97D5F, offset: 0x97D5F, size: 0x8, addend: 0x0, symName: __ZNKSt3__16__treeINS_12__value_typeINS_12basic_stringIcNS_11char_traitsIcEENS_9allocatorIcEEEES7_EENS_19__map_value_compareIS7_S8_NS_4lessIS7_EELb1EEENS5_IS8_EEE12__node_allocB8ue170006Ev, symObjAddr: 0x26470, symBinAddr: 0x100026DB0, symSize: 0x20 }
  - { offsetInCU: 0x97D8B, offset: 0x97D8B, size: 0x8, addend: 0x0, symName: __ZNSt3__117__compressed_pairINS_15__tree_end_nodeIPNS_16__tree_node_baseIPvEEEENS_9allocatorINS_11__tree_nodeINS_12__value_typeINS_12basic_stringIcNS_11char_traitsIcEENS7_IcEEEESE_EES3_EEEEEC1B8ue170006INS_18__default_init_tagESH_EEOT_OT0_, symObjAddr: 0x26490, symBinAddr: 0x100026DD0, symSize: 0x30 }
  - { offsetInCU: 0x97DE3, offset: 0x97DE3, size: 0x8, addend: 0x0, symName: __ZNKSt3__16__treeINS_12__value_typeINS_12basic_stringIcNS_11char_traitsIcEENS_9allocatorIcEEEES7_EENS_19__map_value_compareIS7_S8_NS_4lessIS7_EELb1EEENS5_IS8_EEE10value_compB8ue170006Ev, symObjAddr: 0x264C0, symBinAddr: 0x100026E00, symSize: 0x20 }
  - { offsetInCU: 0x97E09, offset: 0x97E09, size: 0x8, addend: 0x0, symName: __ZNKSt3__117__compressed_pairINS_15__tree_end_nodeIPNS_16__tree_node_baseIPvEEEENS_9allocatorINS_11__tree_nodeINS_12__value_typeINS_12basic_stringIcNS_11char_traitsIcEENS7_IcEEEESE_EES3_EEEEE6secondB8ue170006Ev, symObjAddr: 0x264E0, symBinAddr: 0x100026E20, symSize: 0x20 }
  - { offsetInCU: 0x97E2F, offset: 0x97E2F, size: 0x8, addend: 0x0, symName: __ZNKSt3__122__compressed_pair_elemINS_9allocatorINS_11__tree_nodeINS_12__value_typeINS_12basic_stringIcNS_11char_traitsIcEENS1_IcEEEES8_EEPvEEEELi1ELb1EE5__getB8ue170006Ev, symObjAddr: 0x26500, symBinAddr: 0x100026E40, symSize: 0x10 }
  - { offsetInCU: 0x97E55, offset: 0x97E55, size: 0x8, addend: 0x0, symName: __ZNSt3__117__compressed_pairINS_15__tree_end_nodeIPNS_16__tree_node_baseIPvEEEENS_9allocatorINS_11__tree_nodeINS_12__value_typeINS_12basic_stringIcNS_11char_traitsIcEENS7_IcEEEESE_EES3_EEEEEC2B8ue170006INS_18__default_init_tagESH_EEOT_OT0_, symObjAddr: 0x26510, symBinAddr: 0x100026E50, symSize: 0x40 }
  - { offsetInCU: 0x97EAD, offset: 0x97EAD, size: 0x8, addend: 0x0, symName: __ZNSt3__122__compressed_pair_elemINS_15__tree_end_nodeIPNS_16__tree_node_baseIPvEEEELi0ELb0EEC2B8ue170006ENS_18__default_init_tagE, symObjAddr: 0x26550, symBinAddr: 0x100026E90, symSize: 0x20 }
  - { offsetInCU: 0x97EE2, offset: 0x97EE2, size: 0x8, addend: 0x0, symName: __ZNSt3__122__compressed_pair_elemINS_9allocatorINS_11__tree_nodeINS_12__value_typeINS_12basic_stringIcNS_11char_traitsIcEENS1_IcEEEES8_EEPvEEEELi1ELb1EEC2B8ue170006ISC_vEEOT_, symObjAddr: 0x26570, symBinAddr: 0x100026EB0, symSize: 0x10 }
  - { offsetInCU: 0x97F24, offset: 0x97F24, size: 0x8, addend: 0x0, symName: __ZNKSt3__117__compressed_pairImNS_19__map_value_compareINS_12basic_stringIcNS_11char_traitsIcEENS_9allocatorIcEEEENS_12__value_typeIS7_S7_EENS_4lessIS7_EELb1EEEE6secondB8ue170006Ev, symObjAddr: 0x26580, symBinAddr: 0x100026EC0, symSize: 0x20 }
  - { offsetInCU: 0x97F4A, offset: 0x97F4A, size: 0x8, addend: 0x0, symName: __ZNKSt3__122__compressed_pair_elemINS_19__map_value_compareINS_12basic_stringIcNS_11char_traitsIcEENS_9allocatorIcEEEENS_12__value_typeIS7_S7_EENS_4lessIS7_EELb1EEELi1ELb1EE5__getB8ue170006Ev, symObjAddr: 0x265A0, symBinAddr: 0x100026EE0, symSize: 0x10 }
  - { offsetInCU: 0x97F70, offset: 0x97F70, size: 0x8, addend: 0x0, symName: __ZNKSt3__13mapINS_12basic_stringIcNS_11char_traitsIcEENS_9allocatorIcEEEES6_NS_4lessIS6_EENS4_INS_4pairIKS6_S6_EEEEE4cendB8ue170006Ev, symObjAddr: 0x265B0, symBinAddr: 0x100026EF0, symSize: 0x30 }
  - { offsetInCU: 0x97F96, offset: 0x97F96, size: 0x8, addend: 0x0, symName: __ZNSt3__13mapINS_12basic_stringIcNS_11char_traitsIcEENS_9allocatorIcEEEES6_NS_4lessIS6_EENS4_INS_4pairIKS6_S6_EEEEE6insertB8ue170006ENS_20__map_const_iteratorINS_21__tree_const_iteratorINS_12__value_typeIS6_S6_EEPNS_11__tree_nodeISH_PvEElEEEERKSB_, symObjAddr: 0x26610, symBinAddr: 0x100026F50, symSize: 0x50 }
  - { offsetInCU: 0x97FDA, offset: 0x97FDA, size: 0x8, addend: 0x0, symName: __ZNSt3__120__map_const_iteratorINS_21__tree_const_iteratorINS_12__value_typeINS_12basic_stringIcNS_11char_traitsIcEENS_9allocatorIcEEEES8_EEPNS_11__tree_nodeIS9_PvEElEEEC1B8ue170006ESE_, symObjAddr: 0x26660, symBinAddr: 0x100026FA0, symSize: 0x30 }
  - { offsetInCU: 0x98013, offset: 0x98013, size: 0x8, addend: 0x0, symName: __ZNKSt3__120__map_const_iteratorINS_21__tree_const_iteratorINS_12__value_typeINS_12basic_stringIcNS_11char_traitsIcEENS_9allocatorIcEEEES8_EEPNS_11__tree_nodeIS9_PvEElEEEdeB8ue170006Ev, symObjAddr: 0x26690, symBinAddr: 0x100026FD0, symSize: 0x30 }
  - { offsetInCU: 0x98039, offset: 0x98039, size: 0x8, addend: 0x0, symName: __ZNSt3__120__map_const_iteratorINS_21__tree_const_iteratorINS_12__value_typeINS_12basic_stringIcNS_11char_traitsIcEENS_9allocatorIcEEEES8_EEPNS_11__tree_nodeIS9_PvEElEEEppB8ue170006Ev, symObjAddr: 0x266C0, symBinAddr: 0x100027000, symSize: 0x30 }
  - { offsetInCU: 0x9805F, offset: 0x9805F, size: 0x8, addend: 0x0, symName: __ZNSt3__16__treeINS_12__value_typeINS_12basic_stringIcNS_11char_traitsIcEENS_9allocatorIcEEEES7_EENS_19__map_value_compareIS7_S8_NS_4lessIS7_EELb1EEENS5_IS8_EEE15__insert_uniqueB8ue170006ENS_21__tree_const_iteratorIS8_PNS_11__tree_nodeIS8_PvEElEERKNS_4pairIKS7_S7_EE, symObjAddr: 0x26750, symBinAddr: 0x100027090, symSize: 0x60 }
  - { offsetInCU: 0x980A3, offset: 0x980A3, size: 0x8, addend: 0x0, symName: __ZNSt3__114__map_iteratorINS_15__tree_iteratorINS_12__value_typeINS_12basic_stringIcNS_11char_traitsIcEENS_9allocatorIcEEEES8_EEPNS_11__tree_nodeIS9_PvEElEEEC1B8ue170006ESE_, symObjAddr: 0x267B0, symBinAddr: 0x1000270F0, symSize: 0x30 }
  - { offsetInCU: 0x980DC, offset: 0x980DC, size: 0x8, addend: 0x0, symName: __ZNSt3__16__treeINS_12__value_typeINS_12basic_stringIcNS_11char_traitsIcEENS_9allocatorIcEEEES7_EENS_19__map_value_compareIS7_S8_NS_4lessIS7_EELb1EEENS5_IS8_EEE30__emplace_hint_unique_key_argsIS7_JRKNS_4pairIKS7_S7_EEEEENSG_INS_15__tree_iteratorIS8_PNS_11__tree_nodeIS8_PvEElEEbEENS_21__tree_const_iteratorIS8_SP_lEERKT_DpOT0_, symObjAddr: 0x267E0, symBinAddr: 0x100027120, symSize: 0x110 }
  - { offsetInCU: 0x981B8, offset: 0x981B8, size: 0x8, addend: 0x0, symName: __ZNSt3__122__tree_key_value_typesINS_12__value_typeINS_12basic_stringIcNS_11char_traitsIcEENS_9allocatorIcEEEES7_EEE9__get_keyB8ue170006IKNS_4pairIKS7_S7_EEEENS_9enable_ifIXsr17__is_same_uncvrefIT_SD_EE5valueERSC_E4typeERSG_, symObjAddr: 0x268F0, symBinAddr: 0x100027230, symSize: 0x10 }
  - { offsetInCU: 0x981E5, offset: 0x981E5, size: 0x8, addend: 0x0, symName: __ZNSt3__16__treeINS_12__value_typeINS_12basic_stringIcNS_11char_traitsIcEENS_9allocatorIcEEEES7_EENS_19__map_value_compareIS7_S8_NS_4lessIS7_EELb1EEENS5_IS8_EEE12__find_equalIS7_EERPNS_16__tree_node_baseIPvEENS_21__tree_const_iteratorIS8_PNS_11__tree_nodeIS8_SH_EElEERPNS_15__tree_end_nodeISJ_EESK_RKT_, symObjAddr: 0x26900, symBinAddr: 0x100027240, symSize: 0x330 }
  - { offsetInCU: 0x98292, offset: 0x98292, size: 0x8, addend: 0x0, symName: __ZNSt3__16__treeINS_12__value_typeINS_12basic_stringIcNS_11char_traitsIcEENS_9allocatorIcEEEES7_EENS_19__map_value_compareIS7_S8_NS_4lessIS7_EELb1EEENS5_IS8_EEE16__construct_nodeIJRKNS_4pairIKS7_S7_EEEEENS_10unique_ptrINS_11__tree_nodeIS8_PvEENS_22__tree_node_destructorINS5_ISO_EEEEEEDpOT_, symObjAddr: 0x26C30, symBinAddr: 0x100027570, symSize: 0x100 }
  - { offsetInCU: 0x982F5, offset: 0x982F5, size: 0x8, addend: 0x0, symName: __ZNSt3__16__treeINS_12__value_typeINS_12basic_stringIcNS_11char_traitsIcEENS_9allocatorIcEEEES7_EENS_19__map_value_compareIS7_S8_NS_4lessIS7_EELb1EEENS5_IS8_EEE16__insert_node_atEPNS_15__tree_end_nodeIPNS_16__tree_node_baseIPvEEEERSJ_SJ_, symObjAddr: 0x26D30, symBinAddr: 0x100027670, symSize: 0xC0 }
  - { offsetInCU: 0x9834A, offset: 0x9834A, size: 0x8, addend: 0x0, symName: __ZNKSt3__110unique_ptrINS_11__tree_nodeINS_12__value_typeINS_12basic_stringIcNS_11char_traitsIcEENS_9allocatorIcEEEES8_EEPvEENS_22__tree_node_destructorINS6_ISB_EEEEE3getB8ue170006Ev, symObjAddr: 0x26DF0, symBinAddr: 0x100027730, symSize: 0x20 }
  - { offsetInCU: 0x98370, offset: 0x98370, size: 0x8, addend: 0x0, symName: __ZNSt3__110unique_ptrINS_11__tree_nodeINS_12__value_typeINS_12basic_stringIcNS_11char_traitsIcEENS_9allocatorIcEEEES8_EEPvEENS_22__tree_node_destructorINS6_ISB_EEEEE7releaseB8ue170006Ev, symObjAddr: 0x26E10, symBinAddr: 0x100027750, symSize: 0x40 }
  - { offsetInCU: 0x983A6, offset: 0x983A6, size: 0x8, addend: 0x0, symName: __ZNSt3__110unique_ptrINS_11__tree_nodeINS_12__value_typeINS_12basic_stringIcNS_11char_traitsIcEENS_9allocatorIcEEEES8_EEPvEENS_22__tree_node_destructorINS6_ISB_EEEEED1B8ue170006Ev, symObjAddr: 0x26E50, symBinAddr: 0x100027790, symSize: 0x20 }
  - { offsetInCU: 0x983D0, offset: 0x983D0, size: 0x8, addend: 0x0, symName: __ZNSt3__115__tree_iteratorINS_12__value_typeINS_12basic_stringIcNS_11char_traitsIcEENS_9allocatorIcEEEES7_EEPNS_11__tree_nodeIS8_PvEElEC1B8ue170006ESC_, symObjAddr: 0x26E70, symBinAddr: 0x1000277B0, symSize: 0x30 }
  - { offsetInCU: 0x9840F, offset: 0x9840F, size: 0x8, addend: 0x0, symName: __ZNSt3__14pairINS_15__tree_iteratorINS_12__value_typeINS_12basic_stringIcNS_11char_traitsIcEENS_9allocatorIcEEEES8_EEPNS_11__tree_nodeIS9_PvEElEEbEC1B8ue170006ISE_RbLSB_0EEEOT_OT0_, symObjAddr: 0x26EA0, symBinAddr: 0x1000277E0, symSize: 0x30 }
  - { offsetInCU: 0x9846D, offset: 0x9846D, size: 0x8, addend: 0x0, symName: __ZNSt3__16__treeINS_12__value_typeINS_12basic_stringIcNS_11char_traitsIcEENS_9allocatorIcEEEES7_EENS_19__map_value_compareIS7_S8_NS_4lessIS7_EELb1EEENS5_IS8_EEE3endB8ue170006Ev, symObjAddr: 0x26ED0, symBinAddr: 0x100027810, symSize: 0x30 }
  - { offsetInCU: 0x98493, offset: 0x98493, size: 0x8, addend: 0x0, symName: __ZNSt3__121__tree_const_iteratorINS_12__value_typeINS_12basic_stringIcNS_11char_traitsIcEENS_9allocatorIcEEEES7_EEPNS_11__tree_nodeIS8_PvEElEC1B8ue170006ENS_15__tree_iteratorIS8_SC_lEE, symObjAddr: 0x26F00, symBinAddr: 0x100027840, symSize: 0x30 }
  - { offsetInCU: 0x984CC, offset: 0x984CC, size: 0x8, addend: 0x0, symName: __ZNSt3__16__treeINS_12__value_typeINS_12basic_stringIcNS_11char_traitsIcEENS_9allocatorIcEEEES7_EENS_19__map_value_compareIS7_S8_NS_4lessIS7_EELb1EEENS5_IS8_EEE10value_compB8ue170006Ev, symObjAddr: 0x26F30, symBinAddr: 0x100027870, symSize: 0x20 }
  - { offsetInCU: 0x984F2, offset: 0x984F2, size: 0x8, addend: 0x0, symName: __ZNKSt3__119__map_value_compareINS_12basic_stringIcNS_11char_traitsIcEENS_9allocatorIcEEEENS_12__value_typeIS6_S6_EENS_4lessIS6_EELb1EEclB8ue170006ERKS6_RKS8_, symObjAddr: 0x26F50, symBinAddr: 0x100027890, symSize: 0x50 }
  - { offsetInCU: 0x98536, offset: 0x98536, size: 0x8, addend: 0x0, symName: __ZNKSt3__121__tree_const_iteratorINS_12__value_typeINS_12basic_stringIcNS_11char_traitsIcEENS_9allocatorIcEEEES7_EEPNS_11__tree_nodeIS8_PvEElEdeB8ue170006Ev, symObjAddr: 0x26FA0, symBinAddr: 0x1000278E0, symSize: 0x20 }
  - { offsetInCU: 0x9855C, offset: 0x9855C, size: 0x8, addend: 0x0, symName: __ZNSt3__16__treeINS_12__value_typeINS_12basic_stringIcNS_11char_traitsIcEENS_9allocatorIcEEEES7_EENS_19__map_value_compareIS7_S8_NS_4lessIS7_EELb1EEENS5_IS8_EEE5beginB8ue170006Ev, symObjAddr: 0x26FC0, symBinAddr: 0x100027900, symSize: 0x30 }
  - { offsetInCU: 0x98582, offset: 0x98582, size: 0x8, addend: 0x0, symName: __ZNKSt3__119__map_value_compareINS_12basic_stringIcNS_11char_traitsIcEENS_9allocatorIcEEEENS_12__value_typeIS6_S6_EENS_4lessIS6_EELb1EEclB8ue170006ERKS8_RKS6_, symObjAddr: 0x26FF0, symBinAddr: 0x100027930, symSize: 0x40 }
  - { offsetInCU: 0x985C6, offset: 0x985C6, size: 0x8, addend: 0x0, symName: __ZNSt3__121__tree_const_iteratorINS_12__value_typeINS_12basic_stringIcNS_11char_traitsIcEENS_9allocatorIcEEEES7_EEPNS_11__tree_nodeIS8_PvEElEmmB8ue170006Ev, symObjAddr: 0x27030, symBinAddr: 0x100027970, symSize: 0x30 }
  - { offsetInCU: 0x985EC, offset: 0x985EC, size: 0x8, addend: 0x0, symName: __ZNSt3__16__treeINS_12__value_typeINS_12basic_stringIcNS_11char_traitsIcEENS_9allocatorIcEEEES7_EENS_19__map_value_compareIS7_S8_NS_4lessIS7_EELb1EEENS5_IS8_EEE12__find_equalIS7_EERPNS_16__tree_node_baseIPvEERPNS_15__tree_end_nodeISJ_EERKT_, symObjAddr: 0x27060, symBinAddr: 0x1000279A0, symSize: 0x180 }
  - { offsetInCU: 0x9865B, offset: 0x9865B, size: 0x8, addend: 0x0, symName: __ZNKSt3__121__tree_const_iteratorINS_12__value_typeINS_12basic_stringIcNS_11char_traitsIcEENS_9allocatorIcEEEES7_EEPNS_11__tree_nodeIS8_PvEElE8__get_npB8ue170006Ev, symObjAddr: 0x27210, symBinAddr: 0x100027B50, symSize: 0x20 }
  - { offsetInCU: 0x98681, offset: 0x98681, size: 0x8, addend: 0x0, symName: __ZNSt3__115__tree_iteratorINS_12__value_typeINS_12basic_stringIcNS_11char_traitsIcEENS_9allocatorIcEEEES7_EEPNS_11__tree_nodeIS8_PvEElEC1B8ue170006EPNS_15__tree_end_nodeIPNS_16__tree_node_baseISA_EEEE, symObjAddr: 0x27230, symBinAddr: 0x100027B70, symSize: 0x30 }
  - { offsetInCU: 0x986BA, offset: 0x986BA, size: 0x8, addend: 0x0, symName: __ZNSt3__115__tree_iteratorINS_12__value_typeINS_12basic_stringIcNS_11char_traitsIcEENS_9allocatorIcEEEES7_EEPNS_11__tree_nodeIS8_PvEElEC2B8ue170006EPNS_15__tree_end_nodeIPNS_16__tree_node_baseISA_EEEE, symObjAddr: 0x27260, symBinAddr: 0x100027BA0, symSize: 0x20 }
  - { offsetInCU: 0x986F3, offset: 0x986F3, size: 0x8, addend: 0x0, symName: __ZNSt3__121__tree_const_iteratorINS_12__value_typeINS_12basic_stringIcNS_11char_traitsIcEENS_9allocatorIcEEEES7_EEPNS_11__tree_nodeIS8_PvEElEC2B8ue170006ENS_15__tree_iteratorIS8_SC_lEE, symObjAddr: 0x27280, symBinAddr: 0x100027BC0, symSize: 0x20 }
  - { offsetInCU: 0x9872C, offset: 0x9872C, size: 0x8, addend: 0x0, symName: __ZNSt3__117__compressed_pairImNS_19__map_value_compareINS_12basic_stringIcNS_11char_traitsIcEENS_9allocatorIcEEEENS_12__value_typeIS7_S7_EENS_4lessIS7_EELb1EEEE6secondB8ue170006Ev, symObjAddr: 0x272A0, symBinAddr: 0x100027BE0, symSize: 0x20 }
  - { offsetInCU: 0x98752, offset: 0x98752, size: 0x8, addend: 0x0, symName: __ZNSt3__122__compressed_pair_elemINS_19__map_value_compareINS_12basic_stringIcNS_11char_traitsIcEENS_9allocatorIcEEEENS_12__value_typeIS7_S7_EENS_4lessIS7_EELb1EEELi1ELb1EE5__getB8ue170006Ev, symObjAddr: 0x272C0, symBinAddr: 0x100027C00, symSize: 0x10 }
  - { offsetInCU: 0x98778, offset: 0x98778, size: 0x8, addend: 0x0, symName: __ZNKSt3__14lessINS_12basic_stringIcNS_11char_traitsIcEENS_9allocatorIcEEEEEclB8ue170006ERKS6_S9_, symObjAddr: 0x272D0, symBinAddr: 0x100027C10, symSize: 0x50 }
  - { offsetInCU: 0x987BC, offset: 0x987BC, size: 0x8, addend: 0x0, symName: __ZNKSt3__112__value_typeINS_12basic_stringIcNS_11char_traitsIcEENS_9allocatorIcEEEES6_E11__get_valueB8ue170006Ev, symObjAddr: 0x27320, symBinAddr: 0x100027C60, symSize: 0x20 }
  - { offsetInCU: 0x987F1, offset: 0x987F1, size: 0x8, addend: 0x0, symName: __ZNSt3__120_CmpUnspecifiedParamC1B8ue170006EMS0_i, symObjAddr: 0x273C0, symBinAddr: 0x100027D00, symSize: 0x30 }
  - { offsetInCU: 0x98826, offset: 0x98826, size: 0x8, addend: 0x0, symName: __ZNKSt3__112basic_stringIcNS_11char_traitsIcEENS_9allocatorIcEEEcvNS_17basic_string_viewIcS2_EEB8ue170006Ev, symObjAddr: 0x27480, symBinAddr: 0x100027DC0, symSize: 0x50 }
  - { offsetInCU: 0x9884C, offset: 0x9884C, size: 0x8, addend: 0x0, symName: __ZNKSt3__117basic_string_viewIcNS_11char_traitsIcEEE7compareES3_, symObjAddr: 0x274D0, symBinAddr: 0x100027E10, symSize: 0x100 }
  - { offsetInCU: 0x988A1, offset: 0x988A1, size: 0x8, addend: 0x0, symName: __ZNKSt3__117basic_string_viewIcNS_11char_traitsIcEEE4sizeB8ue170006Ev, symObjAddr: 0x27600, symBinAddr: 0x100027F40, symSize: 0x20 }
  - { offsetInCU: 0x988C7, offset: 0x988C7, size: 0x8, addend: 0x0, symName: __ZNSt3__111char_traitsIcE7compareB8ue170006EPKcS3_m, symObjAddr: 0x27620, symBinAddr: 0x100027F60, symSize: 0x30 }
  - { offsetInCU: 0x98906, offset: 0x98906, size: 0x8, addend: 0x0, symName: __ZNKSt3__117basic_string_viewIcNS_11char_traitsIcEEE4dataB8ue170006Ev, symObjAddr: 0x27650, symBinAddr: 0x100027F90, symSize: 0x20 }
  - { offsetInCU: 0x98936, offset: 0x98936, size: 0x8, addend: 0x0, symName: __ZNKSt3__16__lessIvvEclB8ue170006ImmEEbRKT_RKT0_, symObjAddr: 0x276C0, symBinAddr: 0x100028000, symSize: 0x30 }
  - { offsetInCU: 0x9898A, offset: 0x9898A, size: 0x8, addend: 0x0, symName: __ZNSt3__117basic_string_viewIcNS_11char_traitsIcEEEC1B8ue170006EPKcm, symObjAddr: 0x276F0, symBinAddr: 0x100028030, symSize: 0x30 }
  - { offsetInCU: 0x989D2, offset: 0x989D2, size: 0x8, addend: 0x0, symName: __ZNSt3__117basic_string_viewIcNS_11char_traitsIcEEEC2B8ue170006EPKcm, symObjAddr: 0x27720, symBinAddr: 0x100028060, symSize: 0x30 }
  - { offsetInCU: 0x98A1A, offset: 0x98A1A, size: 0x8, addend: 0x0, symName: __ZNSt3__120_CmpUnspecifiedParamC2B8ue170006EMS0_i, symObjAddr: 0x27750, symBinAddr: 0x100028090, symSize: 0x10 }
  - { offsetInCU: 0x98A4F, offset: 0x98A4F, size: 0x8, addend: 0x0, symName: __ZNKSt3__116__tree_node_baseIPvE15__parent_unsafeB8ue170006Ev, symObjAddr: 0x27890, symBinAddr: 0x1000281D0, symSize: 0x20 }
  - { offsetInCU: 0x98A75, offset: 0x98A75, size: 0x8, addend: 0x0, symName: __ZNKSt3__16__treeINS_12__value_typeINS_12basic_stringIcNS_11char_traitsIcEENS_9allocatorIcEEEES7_EENS_19__map_value_compareIS7_S8_NS_4lessIS7_EELb1EEENS5_IS8_EEE10__root_ptrB8ue170006Ev, symObjAddr: 0x278B0, symBinAddr: 0x1000281F0, symSize: 0x20 }
  - { offsetInCU: 0x98A9B, offset: 0x98A9B, size: 0x8, addend: 0x0, symName: __ZNSt3__121__tree_const_iteratorINS_12__value_typeINS_12basic_stringIcNS_11char_traitsIcEENS_9allocatorIcEEEES7_EEPNS_11__tree_nodeIS8_PvEElEppB8ue170006Ev, symObjAddr: 0x27990, symBinAddr: 0x1000282D0, symSize: 0x30 }
  - { offsetInCU: 0x98AC1, offset: 0x98AC1, size: 0x8, addend: 0x0, symName: __ZNSt3__116allocator_traitsINS_9allocatorINS_11__tree_nodeINS_12__value_typeINS_12basic_stringIcNS_11char_traitsIcEENS1_IcEEEES8_EEPvEEEEE8allocateB8ue170006ERSC_m, symObjAddr: 0x27A70, symBinAddr: 0x1000283B0, symSize: 0x30 }
  - { offsetInCU: 0x98AF4, offset: 0x98AF4, size: 0x8, addend: 0x0, symName: __ZNSt3__122__tree_node_destructorINS_9allocatorINS_11__tree_nodeINS_12__value_typeINS_12basic_stringIcNS_11char_traitsIcEENS1_IcEEEES8_EEPvEEEEEC1B8ue170006ERSC_b, symObjAddr: 0x27AA0, symBinAddr: 0x1000283E0, symSize: 0x40 }
  - { offsetInCU: 0x98B42, offset: 0x98B42, size: 0x8, addend: 0x0, symName: __ZNSt3__110unique_ptrINS_11__tree_nodeINS_12__value_typeINS_12basic_stringIcNS_11char_traitsIcEENS_9allocatorIcEEEES8_EEPvEENS_22__tree_node_destructorINS6_ISB_EEEEEC1B8ue170006ILb1EvEEPSB_NS_16__dependent_typeINS_27__unique_ptr_deleter_sfinaeISE_EEXT_EE20__good_rval_ref_typeE, symObjAddr: 0x27AE0, symBinAddr: 0x100028420, symSize: 0x30 }
  - { offsetInCU: 0x98B93, offset: 0x98B93, size: 0x8, addend: 0x0, symName: __ZNSt3__116allocator_traitsINS_9allocatorINS_11__tree_nodeINS_12__value_typeINS_12basic_stringIcNS_11char_traitsIcEENS1_IcEEEES8_EEPvEEEEE9constructB8ue170006INS_4pairIKS8_S8_EEJRKSH_EvvEEvRSC_PT_DpOT0_, symObjAddr: 0x27B10, symBinAddr: 0x100028450, symSize: 0x30 }
  - { offsetInCU: 0x98BE8, offset: 0x98BE8, size: 0x8, addend: 0x0, symName: __ZNKSt3__110unique_ptrINS_11__tree_nodeINS_12__value_typeINS_12basic_stringIcNS_11char_traitsIcEENS_9allocatorIcEEEES8_EEPvEENS_22__tree_node_destructorINS6_ISB_EEEEEptB8ue170006Ev, symObjAddr: 0x27B40, symBinAddr: 0x100028480, symSize: 0x20 }
  - { offsetInCU: 0x98C0E, offset: 0x98C0E, size: 0x8, addend: 0x0, symName: __ZNSt3__110unique_ptrINS_11__tree_nodeINS_12__value_typeINS_12basic_stringIcNS_11char_traitsIcEENS_9allocatorIcEEEES8_EEPvEENS_22__tree_node_destructorINS6_ISB_EEEEE11get_deleterB8ue170006Ev, symObjAddr: 0x27B60, symBinAddr: 0x1000284A0, symSize: 0x20 }
  - { offsetInCU: 0x98C34, offset: 0x98C34, size: 0x8, addend: 0x0, symName: __ZNSt3__19allocatorINS_11__tree_nodeINS_12__value_typeINS_12basic_stringIcNS_11char_traitsIcEENS0_IcEEEES7_EEPvEEE8allocateB8ue170006Em, symObjAddr: 0x27B80, symBinAddr: 0x1000284C0, symSize: 0x50 }
  - { offsetInCU: 0x98C68, offset: 0x98C68, size: 0x8, addend: 0x0, symName: __ZNSt3__116allocator_traitsINS_9allocatorINS_11__tree_nodeINS_12__value_typeINS_12basic_stringIcNS_11char_traitsIcEENS1_IcEEEES8_EEPvEEEEE8max_sizeB8ue170006ISC_vvEEmRKSC_, symObjAddr: 0x27BD0, symBinAddr: 0x100028510, symSize: 0x30 }
  - { offsetInCU: 0x98C94, offset: 0x98C94, size: 0x8, addend: 0x0, symName: __ZNSt3__122__tree_node_destructorINS_9allocatorINS_11__tree_nodeINS_12__value_typeINS_12basic_stringIcNS_11char_traitsIcEENS1_IcEEEES8_EEPvEEEEEC2B8ue170006ERSC_b, symObjAddr: 0x27C00, symBinAddr: 0x100028540, symSize: 0x30 }
  - { offsetInCU: 0x98CDC, offset: 0x98CDC, size: 0x8, addend: 0x0, symName: __ZNSt3__110unique_ptrINS_11__tree_nodeINS_12__value_typeINS_12basic_stringIcNS_11char_traitsIcEENS_9allocatorIcEEEES8_EEPvEENS_22__tree_node_destructorINS6_ISB_EEEEEC2B8ue170006ILb1EvEEPSB_NS_16__dependent_typeINS_27__unique_ptr_deleter_sfinaeISE_EEXT_EE20__good_rval_ref_typeE, symObjAddr: 0x27C30, symBinAddr: 0x100028570, symSize: 0x40 }
  - { offsetInCU: 0x98D2D, offset: 0x98D2D, size: 0x8, addend: 0x0, symName: __ZNSt3__117__compressed_pairIPNS_11__tree_nodeINS_12__value_typeINS_12basic_stringIcNS_11char_traitsIcEENS_9allocatorIcEEEES8_EEPvEENS_22__tree_node_destructorINS6_ISB_EEEEEC1B8ue170006IRSC_SF_EEOT_OT0_, symObjAddr: 0x27C70, symBinAddr: 0x1000285B0, symSize: 0x30 }
  - { offsetInCU: 0x98D85, offset: 0x98D85, size: 0x8, addend: 0x0, symName: __ZNSt3__117__compressed_pairIPNS_11__tree_nodeINS_12__value_typeINS_12basic_stringIcNS_11char_traitsIcEENS_9allocatorIcEEEES8_EEPvEENS_22__tree_node_destructorINS6_ISB_EEEEEC2B8ue170006IRSC_SF_EEOT_OT0_, symObjAddr: 0x27CA0, symBinAddr: 0x1000285E0, symSize: 0x40 }
  - { offsetInCU: 0x98DDD, offset: 0x98DDD, size: 0x8, addend: 0x0, symName: __ZNSt3__122__compressed_pair_elemIPNS_11__tree_nodeINS_12__value_typeINS_12basic_stringIcNS_11char_traitsIcEENS_9allocatorIcEEEES8_EEPvEELi0ELb0EEC2B8ue170006IRSC_vEEOT_, symObjAddr: 0x27CE0, symBinAddr: 0x100028620, symSize: 0x20 }
  - { offsetInCU: 0x98E1F, offset: 0x98E1F, size: 0x8, addend: 0x0, symName: __ZNSt3__122__compressed_pair_elemINS_22__tree_node_destructorINS_9allocatorINS_11__tree_nodeINS_12__value_typeINS_12basic_stringIcNS_11char_traitsIcEENS2_IcEEEES9_EEPvEEEEEELi1ELb0EEC2B8ue170006ISE_vEEOT_, symObjAddr: 0x27D00, symBinAddr: 0x100028640, symSize: 0x30 }
  - { offsetInCU: 0x98E61, offset: 0x98E61, size: 0x8, addend: 0x0, symName: __ZNSt3__14pairIKNS_12basic_stringIcNS_11char_traitsIcEENS_9allocatorIcEEEES6_EC1B8ue170006ERKS8_, symObjAddr: 0x27D70, symBinAddr: 0x1000286B0, symSize: 0x30 }
  - { offsetInCU: 0x98E96, offset: 0x98E96, size: 0x8, addend: 0x0, symName: __ZNSt3__14pairIKNS_12basic_stringIcNS_11char_traitsIcEENS_9allocatorIcEEEES6_EC2B8ue170006ERKS8_, symObjAddr: 0x27DA0, symBinAddr: 0x1000286E0, symSize: 0x60 }
  - { offsetInCU: 0x98ECB, offset: 0x98ECB, size: 0x8, addend: 0x0, symName: __ZNKSt3__117__compressed_pairIPNS_11__tree_nodeINS_12__value_typeINS_12basic_stringIcNS_11char_traitsIcEENS_9allocatorIcEEEES8_EEPvEENS_22__tree_node_destructorINS6_ISB_EEEEE5firstB8ue170006Ev, symObjAddr: 0x27E00, symBinAddr: 0x100028740, symSize: 0x20 }
  - { offsetInCU: 0x98EF1, offset: 0x98EF1, size: 0x8, addend: 0x0, symName: __ZNKSt3__122__compressed_pair_elemIPNS_11__tree_nodeINS_12__value_typeINS_12basic_stringIcNS_11char_traitsIcEENS_9allocatorIcEEEES8_EEPvEELi0ELb0EE5__getB8ue170006Ev, symObjAddr: 0x27E20, symBinAddr: 0x100028760, symSize: 0x10 }
  - { offsetInCU: 0x98F17, offset: 0x98F17, size: 0x8, addend: 0x0, symName: __ZNSt3__117__compressed_pairIPNS_11__tree_nodeINS_12__value_typeINS_12basic_stringIcNS_11char_traitsIcEENS_9allocatorIcEEEES8_EEPvEENS_22__tree_node_destructorINS6_ISB_EEEEE6secondB8ue170006Ev, symObjAddr: 0x27E30, symBinAddr: 0x100028770, symSize: 0x20 }
  - { offsetInCU: 0x98F3D, offset: 0x98F3D, size: 0x8, addend: 0x0, symName: __ZNSt3__122__compressed_pair_elemINS_22__tree_node_destructorINS_9allocatorINS_11__tree_nodeINS_12__value_typeINS_12basic_stringIcNS_11char_traitsIcEENS2_IcEEEES9_EEPvEEEEEELi1ELb0EE5__getB8ue170006Ev, symObjAddr: 0x27E50, symBinAddr: 0x100028790, symSize: 0x10 }
  - { offsetInCU: 0x98F63, offset: 0x98F63, size: 0x8, addend: 0x0, symName: __ZNSt3__116__tree_node_baseIPvE12__set_parentB8ue170006EPS2_, symObjAddr: 0x28230, symBinAddr: 0x100028B70, symSize: 0x20 }
  - { offsetInCU: 0x98F98, offset: 0x98F98, size: 0x8, addend: 0x0, symName: __ZNSt3__117__compressed_pairIPNS_11__tree_nodeINS_12__value_typeINS_12basic_stringIcNS_11char_traitsIcEENS_9allocatorIcEEEES8_EEPvEENS_22__tree_node_destructorINS6_ISB_EEEEE5firstB8ue170006Ev, symObjAddr: 0x28250, symBinAddr: 0x100028B90, symSize: 0x20 }
  - { offsetInCU: 0x98FBE, offset: 0x98FBE, size: 0x8, addend: 0x0, symName: __ZNSt3__122__compressed_pair_elemIPNS_11__tree_nodeINS_12__value_typeINS_12basic_stringIcNS_11char_traitsIcEENS_9allocatorIcEEEES8_EEPvEELi0ELb0EE5__getB8ue170006Ev, symObjAddr: 0x28270, symBinAddr: 0x100028BB0, symSize: 0x10 }
  - { offsetInCU: 0x98FE4, offset: 0x98FE4, size: 0x8, addend: 0x0, symName: __ZNSt3__110unique_ptrINS_11__tree_nodeINS_12__value_typeINS_12basic_stringIcNS_11char_traitsIcEENS_9allocatorIcEEEES8_EEPvEENS_22__tree_node_destructorINS6_ISB_EEEEED2B8ue170006Ev, symObjAddr: 0x28280, symBinAddr: 0x100028BC0, symSize: 0x20 }
  - { offsetInCU: 0x9900E, offset: 0x9900E, size: 0x8, addend: 0x0, symName: __ZNSt3__110unique_ptrINS_11__tree_nodeINS_12__value_typeINS_12basic_stringIcNS_11char_traitsIcEENS_9allocatorIcEEEES8_EEPvEENS_22__tree_node_destructorINS6_ISB_EEEEE5resetB8ue170006EPSB_, symObjAddr: 0x282A0, symBinAddr: 0x100028BE0, symSize: 0x70 }
  - { offsetInCU: 0x99053, offset: 0x99053, size: 0x8, addend: 0x0, symName: __ZNSt3__122__tree_node_destructorINS_9allocatorINS_11__tree_nodeINS_12__value_typeINS_12basic_stringIcNS_11char_traitsIcEENS1_IcEEEES8_EEPvEEEEEclB8ue170006EPSB_, symObjAddr: 0x28310, symBinAddr: 0x100028C50, symSize: 0x90 }
  - { offsetInCU: 0x99088, offset: 0x99088, size: 0x8, addend: 0x0, symName: __ZNSt3__115__tree_iteratorINS_12__value_typeINS_12basic_stringIcNS_11char_traitsIcEENS_9allocatorIcEEEES7_EEPNS_11__tree_nodeIS8_PvEElEC2B8ue170006ESC_, symObjAddr: 0x283A0, symBinAddr: 0x100028CE0, symSize: 0x20 }
  - { offsetInCU: 0x990C1, offset: 0x990C1, size: 0x8, addend: 0x0, symName: __ZNSt3__14pairINS_15__tree_iteratorINS_12__value_typeINS_12basic_stringIcNS_11char_traitsIcEENS_9allocatorIcEEEES8_EEPNS_11__tree_nodeIS9_PvEElEEbEC2B8ue170006ISE_RbLSB_0EEEOT_OT0_, symObjAddr: 0x283C0, symBinAddr: 0x100028D00, symSize: 0x30 }
  - { offsetInCU: 0x9911F, offset: 0x9911F, size: 0x8, addend: 0x0, symName: __ZNSt3__114__map_iteratorINS_15__tree_iteratorINS_12__value_typeINS_12basic_stringIcNS_11char_traitsIcEENS_9allocatorIcEEEES8_EEPNS_11__tree_nodeIS9_PvEElEEEC2B8ue170006ESE_, symObjAddr: 0x283F0, symBinAddr: 0x100028D30, symSize: 0x20 }
  - { offsetInCU: 0x99158, offset: 0x99158, size: 0x8, addend: 0x0, symName: __ZNSt3__120__map_const_iteratorINS_21__tree_const_iteratorINS_12__value_typeINS_12basic_stringIcNS_11char_traitsIcEENS_9allocatorIcEEEES8_EEPNS_11__tree_nodeIS9_PvEElEEEC2B8ue170006ESE_, symObjAddr: 0x28410, symBinAddr: 0x100028D50, symSize: 0x20 }
  - { offsetInCU: 0x99191, offset: 0x99191, size: 0x8, addend: 0x0, symName: __ZNKSt3__121__tree_const_iteratorINS_12__value_typeINS_12basic_stringIcNS_11char_traitsIcEENS_9allocatorIcEEEES7_EEPNS_11__tree_nodeIS8_PvEElEptB8ue170006Ev, symObjAddr: 0x28430, symBinAddr: 0x100028D70, symSize: 0x30 }
  - { offsetInCU: 0x991B7, offset: 0x991B7, size: 0x8, addend: 0x0, symName: __ZNSt3__114pointer_traitsIPKNS_12__value_typeINS_12basic_stringIcNS_11char_traitsIcEENS_9allocatorIcEEEES7_EEE10pointer_toB8ue170006ERS9_, symObjAddr: 0x28460, symBinAddr: 0x100028DA0, symSize: 0x10 }
  - { offsetInCU: 0x991DA, offset: 0x991DA, size: 0x8, addend: 0x0, symName: __ZNKSt3__16__treeINS_12__value_typeINS_12basic_stringIcNS_11char_traitsIcEENS_9allocatorIcEEEES7_EENS_19__map_value_compareIS7_S8_NS_4lessIS7_EELb1EEENS5_IS8_EEE5beginB8ue170006Ev, symObjAddr: 0x28470, symBinAddr: 0x100028DB0, symSize: 0x30 }
  - { offsetInCU: 0x99200, offset: 0x99200, size: 0x8, addend: 0x0, symName: __ZNKSt3__16__treeINS_12__value_typeINS_12basic_stringIcNS_11char_traitsIcEENS_9allocatorIcEEEES7_EENS_19__map_value_compareIS7_S8_NS_4lessIS7_EELb1EEENS5_IS8_EEE12__begin_nodeB8ue170006Ev, symObjAddr: 0x284A0, symBinAddr: 0x100028DE0, symSize: 0x10 }
  - { offsetInCU: 0x99226, offset: 0x99226, size: 0x8, addend: 0x0, symName: __ZNSt3__121__tree_const_iteratorINS_12__value_typeINS_12basic_stringIcNS_11char_traitsIcEENS_9allocatorIcEEEES7_EEPNS_11__tree_nodeIS8_PvEElEC1B8ue170006EPNS_15__tree_end_nodeIPNS_16__tree_node_baseISA_EEEE, symObjAddr: 0x284B0, symBinAddr: 0x100028DF0, symSize: 0x30 }
  - { offsetInCU: 0x9925F, offset: 0x9925F, size: 0x8, addend: 0x0, symName: __ZNSt3__121__tree_const_iteratorINS_12__value_typeINS_12basic_stringIcNS_11char_traitsIcEENS_9allocatorIcEEEES7_EEPNS_11__tree_nodeIS8_PvEElEC2B8ue170006EPNS_15__tree_end_nodeIPNS_16__tree_node_baseISA_EEEE, symObjAddr: 0x284E0, symBinAddr: 0x100028E20, symSize: 0x20 }
  - { offsetInCU: 0x99298, offset: 0x99298, size: 0x8, addend: 0x0, symName: __ZNKSt3__16__treeINS_12__value_typeINS_12basic_stringIcNS_11char_traitsIcEENS_9allocatorIcEEEES7_EENS_19__map_value_compareIS7_S8_NS_4lessIS7_EELb1EEENS5_IS8_EEE3endB8ue170006Ev, symObjAddr: 0x28500, symBinAddr: 0x100028E40, symSize: 0x30 }
  - { offsetInCU: 0x992BE, offset: 0x992BE, size: 0x8, addend: 0x0, symName: __ZNSt3__16__treeINS_12__value_typeINS_12basic_stringIcNS_11char_traitsIcEENS_9allocatorIcEEEES7_EENS_19__map_value_compareIS7_S8_NS_4lessIS7_EELb1EEENS5_IS8_EEED2Ev, symObjAddr: 0x28530, symBinAddr: 0x100028E70, symSize: 0x30 }
  - { offsetInCU: 0x992EA, offset: 0x992EA, size: 0x8, addend: 0x0, symName: __ZN7tinyobj16texture_option_tD2Ev, symObjAddr: 0x28560, symBinAddr: 0x100028EA0, symSize: 0x20 }
  - { offsetInCU: 0x99316, offset: 0x99316, size: 0x8, addend: 0x0, symName: __ZNSt3__117__compressed_pairIPN7tinyobj10material_tENS_9allocatorIS2_EEE6secondB8ue170006Ev, symObjAddr: 0x28580, symBinAddr: 0x100028EC0, symSize: 0x20 }
  - { offsetInCU: 0x9933C, offset: 0x9933C, size: 0x8, addend: 0x0, symName: __ZNSt3__122__compressed_pair_elemINS_9allocatorIN7tinyobj10material_tEEELi1ELb1EE5__getB8ue170006Ev, symObjAddr: 0x285A0, symBinAddr: 0x100028EE0, symSize: 0x10 }
  - { offsetInCU: 0x99362, offset: 0x99362, size: 0x8, addend: 0x0, symName: __ZNSt3__16vectorIN7tinyobj10material_tENS_9allocatorIS2_EEE21_ConstructTransactionD2B8ue170006Ev, symObjAddr: 0x285B0, symBinAddr: 0x100028EF0, symSize: 0x20 }
  - { offsetInCU: 0x9938C, offset: 0x9938C, size: 0x8, addend: 0x0, symName: __ZNKSt3__16vectorIN7tinyobj10material_tENS_9allocatorIS2_EEE11__recommendB8ue170006Em, symObjAddr: 0x285D0, symBinAddr: 0x100028F10, symSize: 0xA0 }
  - { offsetInCU: 0x993E3, offset: 0x993E3, size: 0x8, addend: 0x0, symName: __ZNSt3__114__split_bufferIN7tinyobj10material_tERNS_9allocatorIS2_EEEC1EmmS5_, symObjAddr: 0x28670, symBinAddr: 0x100028FB0, symSize: 0x40 }
  - { offsetInCU: 0x99439, offset: 0x99439, size: 0x8, addend: 0x0, symName: __ZNSt3__114__split_bufferIN7tinyobj10material_tERNS_9allocatorIS2_EEED1Ev, symObjAddr: 0x287D0, symBinAddr: 0x100029110, symSize: 0x20 }
  - { offsetInCU: 0x99465, offset: 0x99465, size: 0x8, addend: 0x0, symName: __ZNKSt3__16vectorIN7tinyobj10material_tENS_9allocatorIS2_EEE8max_sizeEv, symObjAddr: 0x287F0, symBinAddr: 0x100029130, symSize: 0x60 }
  - { offsetInCU: 0x9948D, offset: 0x9948D, size: 0x8, addend: 0x0, symName: __ZNKSt3__16vectorIN7tinyobj10material_tENS_9allocatorIS2_EEE20__throw_length_errorB8ue170006Ev, symObjAddr: 0x28850, symBinAddr: 0x100029190, symSize: 0x20 }
  - { offsetInCU: 0x994B3, offset: 0x994B3, size: 0x8, addend: 0x0, symName: __ZNKSt3__16vectorIN7tinyobj10material_tENS_9allocatorIS2_EEE8capacityB8ue170006Ev, symObjAddr: 0x28870, symBinAddr: 0x1000291B0, symSize: 0x40 }
  - { offsetInCU: 0x994E3, offset: 0x994E3, size: 0x8, addend: 0x0, symName: __ZNSt3__116allocator_traitsINS_9allocatorIN7tinyobj10material_tEEEE8max_sizeB8ue170006IS4_vvEEmRKS4_, symObjAddr: 0x288E0, symBinAddr: 0x100029220, symSize: 0x30 }
  - { offsetInCU: 0x9950F, offset: 0x9950F, size: 0x8, addend: 0x0, symName: __ZNKSt3__16vectorIN7tinyobj10material_tENS_9allocatorIS2_EEE7__allocB8ue170006Ev, symObjAddr: 0x28910, symBinAddr: 0x100029250, symSize: 0x20 }
  - { offsetInCU: 0x99535, offset: 0x99535, size: 0x8, addend: 0x0, symName: __ZNSt3__114numeric_limitsIlE3maxB8ue170006Ev, symObjAddr: 0x28930, symBinAddr: 0x100029270, symSize: 0x10 }
  - { offsetInCU: 0x99549, offset: 0x99549, size: 0x8, addend: 0x0, symName: __ZNKSt3__117__compressed_pairIPN7tinyobj10material_tENS_9allocatorIS2_EEE6secondB8ue170006Ev, symObjAddr: 0x28940, symBinAddr: 0x100029280, symSize: 0x20 }
  - { offsetInCU: 0x9956F, offset: 0x9956F, size: 0x8, addend: 0x0, symName: __ZNKSt3__122__compressed_pair_elemINS_9allocatorIN7tinyobj10material_tEEELi1ELb1EE5__getB8ue170006Ev, symObjAddr: 0x28960, symBinAddr: 0x1000292A0, symSize: 0x10 }
  - { offsetInCU: 0x99595, offset: 0x99595, size: 0x8, addend: 0x0, symName: __ZNSt3__123__libcpp_numeric_limitsIlLb1EE3maxB8ue170006Ev, symObjAddr: 0x28970, symBinAddr: 0x1000292B0, symSize: 0x10 }
  - { offsetInCU: 0x995A9, offset: 0x995A9, size: 0x8, addend: 0x0, symName: __ZNKSt3__16vectorIN7tinyobj10material_tENS_9allocatorIS2_EEE9__end_capB8ue170006Ev, symObjAddr: 0x28980, symBinAddr: 0x1000292C0, symSize: 0x20 }
  - { offsetInCU: 0x995CF, offset: 0x995CF, size: 0x8, addend: 0x0, symName: __ZNKSt3__117__compressed_pairIPN7tinyobj10material_tENS_9allocatorIS2_EEE5firstB8ue170006Ev, symObjAddr: 0x289A0, symBinAddr: 0x1000292E0, symSize: 0x20 }
  - { offsetInCU: 0x995F5, offset: 0x995F5, size: 0x8, addend: 0x0, symName: __ZNKSt3__122__compressed_pair_elemIPN7tinyobj10material_tELi0ELb0EE5__getB8ue170006Ev, symObjAddr: 0x289C0, symBinAddr: 0x100029300, symSize: 0x10 }
  - { offsetInCU: 0x9961B, offset: 0x9961B, size: 0x8, addend: 0x0, symName: __ZNSt3__114__split_bufferIN7tinyobj10material_tERNS_9allocatorIS2_EEEC2EmmS5_, symObjAddr: 0x28A20, symBinAddr: 0x100029360, symSize: 0xD0 }
  - { offsetInCU: 0x99696, offset: 0x99696, size: 0x8, addend: 0x0, symName: __ZNSt3__117__compressed_pairIPN7tinyobj10material_tERNS_9allocatorIS2_EEEC1B8ue170006IDnS6_EEOT_OT0_, symObjAddr: 0x28AF0, symBinAddr: 0x100029430, symSize: 0x30 }
  - { offsetInCU: 0x996EE, offset: 0x996EE, size: 0x8, addend: 0x0, symName: __ZNSt3__114__split_bufferIN7tinyobj10material_tERNS_9allocatorIS2_EEE7__allocB8ue170006Ev, symObjAddr: 0x28B60, symBinAddr: 0x1000294A0, symSize: 0x20 }
  - { offsetInCU: 0x99714, offset: 0x99714, size: 0x8, addend: 0x0, symName: __ZNSt3__114__split_bufferIN7tinyobj10material_tERNS_9allocatorIS2_EEE9__end_capB8ue170006Ev, symObjAddr: 0x28B80, symBinAddr: 0x1000294C0, symSize: 0x20 }
  - { offsetInCU: 0x9973A, offset: 0x9973A, size: 0x8, addend: 0x0, symName: __ZNSt3__117__compressed_pairIPN7tinyobj10material_tERNS_9allocatorIS2_EEEC2B8ue170006IDnS6_EEOT_OT0_, symObjAddr: 0x28BA0, symBinAddr: 0x1000294E0, symSize: 0x40 }
  - { offsetInCU: 0x99792, offset: 0x99792, size: 0x8, addend: 0x0, symName: __ZNSt3__122__compressed_pair_elemIPN7tinyobj10material_tELi0ELb0EEC2B8ue170006IDnvEEOT_, symObjAddr: 0x28BE0, symBinAddr: 0x100029520, symSize: 0x20 }
  - { offsetInCU: 0x997D4, offset: 0x997D4, size: 0x8, addend: 0x0, symName: __ZNSt3__122__compressed_pair_elemIRNS_9allocatorIN7tinyobj10material_tEEELi1ELb0EEC2B8ue170006IS5_vEEOT_, symObjAddr: 0x28C00, symBinAddr: 0x100029540, symSize: 0x20 }
  - { offsetInCU: 0x99816, offset: 0x99816, size: 0x8, addend: 0x0, symName: __ZNSt3__19allocatorIN7tinyobj10material_tEE8allocateB8ue170006Em, symObjAddr: 0x28C20, symBinAddr: 0x100029560, symSize: 0x50 }
  - { offsetInCU: 0x9984A, offset: 0x9984A, size: 0x8, addend: 0x0, symName: __ZNSt3__117__compressed_pairIPN7tinyobj10material_tERNS_9allocatorIS2_EEE6secondB8ue170006Ev, symObjAddr: 0x28C70, symBinAddr: 0x1000295B0, symSize: 0x20 }
  - { offsetInCU: 0x99870, offset: 0x99870, size: 0x8, addend: 0x0, symName: __ZNSt3__122__compressed_pair_elemIRNS_9allocatorIN7tinyobj10material_tEEELi1ELb0EE5__getB8ue170006Ev, symObjAddr: 0x28C90, symBinAddr: 0x1000295D0, symSize: 0x20 }
  - { offsetInCU: 0x99896, offset: 0x99896, size: 0x8, addend: 0x0, symName: __ZNSt3__117__compressed_pairIPN7tinyobj10material_tERNS_9allocatorIS2_EEE5firstB8ue170006Ev, symObjAddr: 0x28CB0, symBinAddr: 0x1000295F0, symSize: 0x20 }
  - { offsetInCU: 0x998BC, offset: 0x998BC, size: 0x8, addend: 0x0, symName: __ZNKSt3__16vectorIN7tinyobj10material_tENS_9allocatorIS2_EEE17__annotate_deleteB8ue170006Ev, symObjAddr: 0x28CD0, symBinAddr: 0x100029610, symSize: 0xC0 }
  - { offsetInCU: 0x998E2, offset: 0x998E2, size: 0x8, addend: 0x0, symName: __ZNSt3__116reverse_iteratorIPN7tinyobj10material_tEEC1B8ue170006ES3_, symObjAddr: 0x28F10, symBinAddr: 0x100029850, symSize: 0x30 }
  - { offsetInCU: 0x9991A, offset: 0x9991A, size: 0x8, addend: 0x0, symName: __ZNKSt3__116reverse_iteratorIPN7tinyobj10material_tEE4baseB8ue170006Ev, symObjAddr: 0x28F40, symBinAddr: 0x100029880, symSize: 0x20 }
  - { offsetInCU: 0x99940, offset: 0x99940, size: 0x8, addend: 0x0, symName: __ZNKSt3__16vectorIN7tinyobj10material_tENS_9allocatorIS2_EEE14__annotate_newB8ue170006Em, symObjAddr: 0x28FA0, symBinAddr: 0x1000298E0, symSize: 0xB0 }
  - { offsetInCU: 0x99975, offset: 0x99975, size: 0x8, addend: 0x0, symName: __ZNKSt3__16vectorIN7tinyobj10material_tENS_9allocatorIS2_EEE31__annotate_contiguous_containerB8ue170006EPKvS7_S7_S7_, symObjAddr: 0x29050, symBinAddr: 0x100029990, symSize: 0x20 }
  - { offsetInCU: 0x999CB, offset: 0x999CB, size: 0x8, addend: 0x0, symName: __ZNKSt3__16vectorIN7tinyobj10material_tENS_9allocatorIS2_EEE4dataB8ue170006Ev, symObjAddr: 0x29070, symBinAddr: 0x1000299B0, symSize: 0x20 }
  - { offsetInCU: 0x999F1, offset: 0x999F1, size: 0x8, addend: 0x0, symName: __ZNSt3__129_AllocatorDestroyRangeReverseINS_9allocatorIN7tinyobj10material_tEEENS_16reverse_iteratorIPS3_EEEC1B8ue170006ERS4_RS7_SA_, symObjAddr: 0x290F0, symBinAddr: 0x100029A30, symSize: 0x40 }
  - { offsetInCU: 0x99A4E, offset: 0x99A4E, size: 0x8, addend: 0x0, symName: __ZNSt3__116allocator_traitsINS_9allocatorIN7tinyobj10material_tEEEE9constructB8ue170006IS3_JS3_EvvEEvRS4_PT_DpOT0_, symObjAddr: 0x29170, symBinAddr: 0x100029AB0, symSize: 0x30 }
  - { offsetInCU: 0x99AA3, offset: 0x99AA3, size: 0x8, addend: 0x0, symName: __ZNKSt3__116reverse_iteratorIPN7tinyobj10material_tEEdeB8ue170006Ev, symObjAddr: 0x291C0, symBinAddr: 0x100029B00, symSize: 0x30 }
  - { offsetInCU: 0x99AD7, offset: 0x99AD7, size: 0x8, addend: 0x0, symName: __ZNSt3__116reverse_iteratorIPN7tinyobj10material_tEEppB8ue170006Ev, symObjAddr: 0x291F0, symBinAddr: 0x100029B30, symSize: 0x20 }
  - { offsetInCU: 0x99AFD, offset: 0x99AFD, size: 0x8, addend: 0x0, symName: __ZNSt3__128__exception_guard_exceptionsINS_29_AllocatorDestroyRangeReverseINS_9allocatorIN7tinyobj10material_tEEENS_16reverse_iteratorIPS4_EEEEE10__completeB8ue170006Ev, symObjAddr: 0x29210, symBinAddr: 0x100029B50, symSize: 0x20 }
  - { offsetInCU: 0x99B23, offset: 0x99B23, size: 0x8, addend: 0x0, symName: __ZNSt3__128__exception_guard_exceptionsINS_29_AllocatorDestroyRangeReverseINS_9allocatorIN7tinyobj10material_tEEENS_16reverse_iteratorIPS4_EEEEED1B8ue170006Ev, symObjAddr: 0x29230, symBinAddr: 0x100029B70, symSize: 0x20 }
  - { offsetInCU: 0x99B4D, offset: 0x99B4D, size: 0x8, addend: 0x0, symName: __ZNSt3__128__exception_guard_exceptionsINS_29_AllocatorDestroyRangeReverseINS_9allocatorIN7tinyobj10material_tEEENS_16reverse_iteratorIPS4_EEEEEC1B8ue170006ES9_, symObjAddr: 0x29250, symBinAddr: 0x100029B90, symSize: 0x40 }
  - { offsetInCU: 0x99B85, offset: 0x99B85, size: 0x8, addend: 0x0, symName: __ZNSt3__128__exception_guard_exceptionsINS_29_AllocatorDestroyRangeReverseINS_9allocatorIN7tinyobj10material_tEEENS_16reverse_iteratorIPS4_EEEEEC2B8ue170006ES9_, symObjAddr: 0x29290, symBinAddr: 0x100029BD0, symSize: 0x30 }
  - { offsetInCU: 0x99BBD, offset: 0x99BBD, size: 0x8, addend: 0x0, symName: __ZNSt3__129_AllocatorDestroyRangeReverseINS_9allocatorIN7tinyobj10material_tEEENS_16reverse_iteratorIPS3_EEEC2B8ue170006ERS4_RS7_SA_, symObjAddr: 0x292C0, symBinAddr: 0x100029C00, symSize: 0x40 }
  - { offsetInCU: 0x99C14, offset: 0x99C14, size: 0x8, addend: 0x0, symName: __ZN7tinyobj10material_tC1EOS0_, symObjAddr: 0x29340, symBinAddr: 0x100029C80, symSize: 0x30 }
  - { offsetInCU: 0x99C49, offset: 0x99C49, size: 0x8, addend: 0x0, symName: __ZN7tinyobj10material_tC2EOS0_, symObjAddr: 0x29370, symBinAddr: 0x100029CB0, symSize: 0x360 }
  - { offsetInCU: 0x99C7E, offset: 0x99C7E, size: 0x8, addend: 0x0, symName: __ZNSt3__112basic_stringIcNS_11char_traitsIcEENS_9allocatorIcEEEC1B8ue170006EOS5_, symObjAddr: 0x296D0, symBinAddr: 0x10002A010, symSize: 0x30 }
  - { offsetInCU: 0x99CBD, offset: 0x99CBD, size: 0x8, addend: 0x0, symName: __ZN7tinyobj16texture_option_tC1EOS0_, symObjAddr: 0x29700, symBinAddr: 0x10002A040, symSize: 0x30 }
  - { offsetInCU: 0x99CF2, offset: 0x99CF2, size: 0x8, addend: 0x0, symName: __ZNSt3__13mapINS_12basic_stringIcNS_11char_traitsIcEENS_9allocatorIcEEEES6_NS_4lessIS6_EENS4_INS_4pairIKS6_S6_EEEEEC1B8ue170006EOSD_, symObjAddr: 0x29730, symBinAddr: 0x10002A070, symSize: 0x30 }
  - { offsetInCU: 0x99D2B, offset: 0x99D2B, size: 0x8, addend: 0x0, symName: __ZNSt3__112basic_stringIcNS_11char_traitsIcEENS_9allocatorIcEEEC2B8ue170006EOS5_, symObjAddr: 0x29760, symBinAddr: 0x10002A0A0, symSize: 0x40 }
  - { offsetInCU: 0x99D64, offset: 0x99D64, size: 0x8, addend: 0x0, symName: __ZN7tinyobj16texture_option_tC2EOS0_, symObjAddr: 0x297A0, symBinAddr: 0x10002A0E0, symSize: 0x50 }
  - { offsetInCU: 0x99D99, offset: 0x99D99, size: 0x8, addend: 0x0, symName: __ZNSt3__13mapINS_12basic_stringIcNS_11char_traitsIcEENS_9allocatorIcEEEES6_NS_4lessIS6_EENS4_INS_4pairIKS6_S6_EEEEEC2B8ue170006EOSD_, symObjAddr: 0x297F0, symBinAddr: 0x10002A130, symSize: 0x30 }
  - { offsetInCU: 0x99DD2, offset: 0x99DD2, size: 0x8, addend: 0x0, symName: __ZNSt3__16__treeINS_12__value_typeINS_12basic_stringIcNS_11char_traitsIcEENS_9allocatorIcEEEES7_EENS_19__map_value_compareIS7_S8_NS_4lessIS7_EELb1EEENS5_IS8_EEEC1EOSE_, symObjAddr: 0x29820, symBinAddr: 0x10002A160, symSize: 0x30 }
  - { offsetInCU: 0x99E0D, offset: 0x99E0D, size: 0x8, addend: 0x0, symName: __ZNSt3__16__treeINS_12__value_typeINS_12basic_stringIcNS_11char_traitsIcEENS_9allocatorIcEEEES7_EENS_19__map_value_compareIS7_S8_NS_4lessIS7_EELb1EEENS5_IS8_EEEC2EOSE_, symObjAddr: 0x29850, symBinAddr: 0x10002A190, symSize: 0xD0 }
  - { offsetInCU: 0x99E4D, offset: 0x99E4D, size: 0x8, addend: 0x0, symName: __ZNSt3__119__to_address_helperINS_16reverse_iteratorIPN7tinyobj10material_tEEEvE6__callB8ue170006ERKS5_, symObjAddr: 0x29920, symBinAddr: 0x10002A260, symSize: 0x40 }
  - { offsetInCU: 0x99E70, offset: 0x99E70, size: 0x8, addend: 0x0, symName: __ZNKSt3__116reverse_iteratorIPN7tinyobj10material_tEEptB8ue170006Ev, symObjAddr: 0x29960, symBinAddr: 0x10002A2A0, symSize: 0x30 }
  - { offsetInCU: 0x99E96, offset: 0x99E96, size: 0x8, addend: 0x0, symName: __ZNSt3__128__exception_guard_exceptionsINS_29_AllocatorDestroyRangeReverseINS_9allocatorIN7tinyobj10material_tEEENS_16reverse_iteratorIPS4_EEEEED2B8ue170006Ev, symObjAddr: 0x29A20, symBinAddr: 0x10002A360, symSize: 0x40 }
  - { offsetInCU: 0x99EC0, offset: 0x99EC0, size: 0x8, addend: 0x0, symName: __ZNKSt3__129_AllocatorDestroyRangeReverseINS_9allocatorIN7tinyobj10material_tEEENS_16reverse_iteratorIPS3_EEEclB8ue170006Ev, symObjAddr: 0x29A60, symBinAddr: 0x10002A3A0, symSize: 0xF0 }
  - { offsetInCU: 0x99EE7, offset: 0x99EE7, size: 0x8, addend: 0x0, symName: __ZNSt3__116reverse_iteratorINS0_IPN7tinyobj10material_tEEEEC1B8ue170006ES4_, symObjAddr: 0x29BC0, symBinAddr: 0x10002A500, symSize: 0x30 }
  - { offsetInCU: 0x99F1F, offset: 0x99F1F, size: 0x8, addend: 0x0, symName: __ZNSt3__116allocator_traitsINS_9allocatorIN7tinyobj10material_tEEEE7destroyB8ue170006IS3_vvEEvRS4_PT_, symObjAddr: 0x29C40, symBinAddr: 0x10002A580, symSize: 0x20 }
  - { offsetInCU: 0x99F5A, offset: 0x99F5A, size: 0x8, addend: 0x0, symName: __ZNSt3__116reverse_iteratorINS0_IPN7tinyobj10material_tEEEEppB8ue170006Ev, symObjAddr: 0x29C80, symBinAddr: 0x10002A5C0, symSize: 0x30 }
  - { offsetInCU: 0x99F80, offset: 0x99F80, size: 0x8, addend: 0x0, symName: __ZNKSt3__116reverse_iteratorINS0_IPN7tinyobj10material_tEEEE4baseB8ue170006Ev, symObjAddr: 0x29CB0, symBinAddr: 0x10002A5F0, symSize: 0x20 }
  - { offsetInCU: 0x99FAB, offset: 0x99FAB, size: 0x8, addend: 0x0, symName: __ZNSt3__119__to_address_helperINS_16reverse_iteratorINS1_IPN7tinyobj10material_tEEEEEvE6__callB8ue170006ERKS6_, symObjAddr: 0x29D10, symBinAddr: 0x10002A650, symSize: 0x40 }
  - { offsetInCU: 0x99FCE, offset: 0x99FCE, size: 0x8, addend: 0x0, symName: __ZNKSt3__116reverse_iteratorINS0_IPN7tinyobj10material_tEEEEptB8ue170006Ev, symObjAddr: 0x29D50, symBinAddr: 0x10002A690, symSize: 0x50 }
  - { offsetInCU: 0x99FF4, offset: 0x99FF4, size: 0x8, addend: 0x0, symName: __ZNSt3__116reverse_iteratorIPN7tinyobj10material_tEEpLB8ue170006El, symObjAddr: 0x29E40, symBinAddr: 0x10002A780, symSize: 0x30 }
  - { offsetInCU: 0x9A028, offset: 0x9A028, size: 0x8, addend: 0x0, symName: __ZNSt3__116reverse_iteratorIPN7tinyobj10material_tEEmmB8ue170006Ev, symObjAddr: 0x29E70, symBinAddr: 0x10002A7B0, symSize: 0x20 }
  - { offsetInCU: 0x9A04E, offset: 0x9A04E, size: 0x8, addend: 0x0, symName: __ZNSt3__116reverse_iteratorINS0_IPN7tinyobj10material_tEEEEC2B8ue170006ES4_, symObjAddr: 0x29E90, symBinAddr: 0x10002A7D0, symSize: 0x40 }
  - { offsetInCU: 0x9A086, offset: 0x9A086, size: 0x8, addend: 0x0, symName: __ZNSt3__116reverse_iteratorIPN7tinyobj10material_tEEC2B8ue170006ES3_, symObjAddr: 0x29ED0, symBinAddr: 0x10002A810, symSize: 0x30 }
  - { offsetInCU: 0x9A0BE, offset: 0x9A0BE, size: 0x8, addend: 0x0, symName: __ZNSt3__114__split_bufferIN7tinyobj10material_tERNS_9allocatorIS2_EEED2Ev, symObjAddr: 0x29F00, symBinAddr: 0x10002A840, symSize: 0x70 }
  - { offsetInCU: 0x9A0EA, offset: 0x9A0EA, size: 0x8, addend: 0x0, symName: __ZNSt3__114__split_bufferIN7tinyobj10material_tERNS_9allocatorIS2_EEE5clearB8ue170006Ev, symObjAddr: 0x29F70, symBinAddr: 0x10002A8B0, symSize: 0x20 }
  - { offsetInCU: 0x9A110, offset: 0x9A110, size: 0x8, addend: 0x0, symName: __ZNSt3__116allocator_traitsINS_9allocatorIN7tinyobj10material_tEEEE10deallocateB8ue170006ERS4_PS3_m, symObjAddr: 0x29F90, symBinAddr: 0x10002A8D0, symSize: 0x30 }
  - { offsetInCU: 0x9A152, offset: 0x9A152, size: 0x8, addend: 0x0, symName: __ZNKSt3__114__split_bufferIN7tinyobj10material_tERNS_9allocatorIS2_EEE8capacityB8ue170006Ev, symObjAddr: 0x29FC0, symBinAddr: 0x10002A900, symSize: 0x40 }
  - { offsetInCU: 0x9A178, offset: 0x9A178, size: 0x8, addend: 0x0, symName: __ZNSt3__114__split_bufferIN7tinyobj10material_tERNS_9allocatorIS2_EEE17__destruct_at_endB8ue170006EPS2_, symObjAddr: 0x2A000, symBinAddr: 0x10002A940, symSize: 0x30 }
  - { offsetInCU: 0x9A1AC, offset: 0x9A1AC, size: 0x8, addend: 0x0, symName: __ZNSt3__114__split_bufferIN7tinyobj10material_tERNS_9allocatorIS2_EEE17__destruct_at_endB8ue170006EPS2_NS_17integral_constantIbLb0EEE, symObjAddr: 0x2A030, symBinAddr: 0x10002A970, symSize: 0x80 }
  - { offsetInCU: 0x9A1ED, offset: 0x9A1ED, size: 0x8, addend: 0x0, symName: __ZNSt3__19allocatorIN7tinyobj10material_tEE10deallocateB8ue170006EPS2_m, symObjAddr: 0x2A0B0, symBinAddr: 0x10002A9F0, symSize: 0x40 }
  - { offsetInCU: 0x9A22F, offset: 0x9A22F, size: 0x8, addend: 0x0, symName: __ZNKSt3__114__split_bufferIN7tinyobj10material_tERNS_9allocatorIS2_EEE9__end_capB8ue170006Ev, symObjAddr: 0x2A0F0, symBinAddr: 0x10002AA30, symSize: 0x20 }
  - { offsetInCU: 0x9A255, offset: 0x9A255, size: 0x8, addend: 0x0, symName: __ZNKSt3__117__compressed_pairIPN7tinyobj10material_tERNS_9allocatorIS2_EEE5firstB8ue170006Ev, symObjAddr: 0x2A110, symBinAddr: 0x10002AA50, symSize: 0x20 }
  - { offsetInCU: 0x9A27B, offset: 0x9A27B, size: 0x8, addend: 0x0, symName: __ZNSt3__112basic_stringIcNS_11char_traitsIcEENS_9allocatorIcEEEC2B8ue170006EPKcm, symObjAddr: 0x2A130, symBinAddr: 0x10002AA70, symSize: 0x40 }
  - { offsetInCU: 0x9A2C3, offset: 0x9A2C3, size: 0x8, addend: 0x0, symName: __ZNSt3__14pairINS_12basic_stringIcNS_11char_traitsIcEENS_9allocatorIcEEEES6_EC2B8ue170006IRS6_S9_LPv0EEEOT_OT0_, symObjAddr: 0x2A170, symBinAddr: 0x10002AAB0, symSize: 0x60 }
  - { offsetInCU: 0x9A321, offset: 0x9A321, size: 0x8, addend: 0x0, symName: __ZNSt3__14pairINS_12basic_stringIcNS_11char_traitsIcEENS_9allocatorIcEEEES6_ED2Ev, symObjAddr: 0x2A1D0, symBinAddr: 0x10002AB10, symSize: 0x30 }
  - { offsetInCU: 0x9A34D, offset: 0x9A34D, size: 0x8, addend: 0x0, symName: __ZNSt3__118basic_stringstreamIcNS_11char_traitsIcEENS_9allocatorIcEEED2Ev, symObjAddr: 0x2A200, symBinAddr: 0x10002AB40, symSize: 0x60 }
  - { offsetInCU: 0x9A387, offset: 0x9A387, size: 0x8, addend: 0x0, symName: __ZThn16_NSt3__118basic_stringstreamIcNS_11char_traitsIcEENS_9allocatorIcEEED1Ev, symObjAddr: 0x2A260, symBinAddr: 0x10002ABA0, symSize: 0x20 }
  - { offsetInCU: 0x9A39E, offset: 0x9A39E, size: 0x8, addend: 0x0, symName: __ZTv0_n24_NSt3__118basic_stringstreamIcNS_11char_traitsIcEENS_9allocatorIcEEED1Ev, symObjAddr: 0x2A280, symBinAddr: 0x10002ABC0, symSize: 0x20 }
  - { offsetInCU: 0x9A3B5, offset: 0x9A3B5, size: 0x8, addend: 0x0, symName: __ZN7tinyobj10material_tD2Ev, symObjAddr: 0x2A2A0, symBinAddr: 0x10002ABE0, symSize: 0x1D0 }
  - { offsetInCU: 0x9A3E1, offset: 0x9A3E1, size: 0x8, addend: 0x0, symName: __ZNSt3__13mapINS_12basic_stringIcNS_11char_traitsIcEENS_9allocatorIcEEEES6_NS_4lessIS6_EENS4_INS_4pairIKS6_S6_EEEEED1B8ue170006Ev, symObjAddr: 0x2A470, symBinAddr: 0x10002ADB0, symSize: 0x20 }
  - { offsetInCU: 0x9A40B, offset: 0x9A40B, size: 0x8, addend: 0x0, symName: __ZNSt3__13mapINS_12basic_stringIcNS_11char_traitsIcEENS_9allocatorIcEEEES6_NS_4lessIS6_EENS4_INS_4pairIKS6_S6_EEEEED2B8ue170006Ev, symObjAddr: 0x2A490, symBinAddr: 0x10002ADD0, symSize: 0x20 }
  - { offsetInCU: 0x9A435, offset: 0x9A435, size: 0x8, addend: 0x0, symName: __ZNSt3__16vectorINS_12basic_stringIcNS_11char_traitsIcEENS_9allocatorIcEEEENS4_IS6_EEEC2B8ue170006Ev, symObjAddr: 0x2A4B0, symBinAddr: 0x10002ADF0, symSize: 0x50 }
  - { offsetInCU: 0x9A45F, offset: 0x9A45F, size: 0x8, addend: 0x0, symName: __ZNSt3__117__compressed_pairIPNS_12basic_stringIcNS_11char_traitsIcEENS_9allocatorIcEEEENS4_IS6_EEEC1B8ue170006IDnNS_18__default_init_tagEEEOT_OT0_, symObjAddr: 0x2A500, symBinAddr: 0x10002AE40, symSize: 0x30 }
  - { offsetInCU: 0x9A4B7, offset: 0x9A4B7, size: 0x8, addend: 0x0, symName: __ZNSt3__117__compressed_pairIPNS_12basic_stringIcNS_11char_traitsIcEENS_9allocatorIcEEEENS4_IS6_EEEC2B8ue170006IDnNS_18__default_init_tagEEEOT_OT0_, symObjAddr: 0x2A530, symBinAddr: 0x10002AE70, symSize: 0x40 }
  - { offsetInCU: 0x9A50F, offset: 0x9A50F, size: 0x8, addend: 0x0, symName: __ZNSt3__122__compressed_pair_elemIPNS_12basic_stringIcNS_11char_traitsIcEENS_9allocatorIcEEEELi0ELb0EEC2B8ue170006IDnvEEOT_, symObjAddr: 0x2A570, symBinAddr: 0x10002AEB0, symSize: 0x20 }
  - { offsetInCU: 0x9A551, offset: 0x9A551, size: 0x8, addend: 0x0, symName: __ZNSt3__122__compressed_pair_elemINS_9allocatorINS_12basic_stringIcNS_11char_traitsIcEENS1_IcEEEEEELi1ELb1EEC2B8ue170006ENS_18__default_init_tagE, symObjAddr: 0x2A590, symBinAddr: 0x10002AED0, symSize: 0x20 }
  - { offsetInCU: 0x9A586, offset: 0x9A586, size: 0x8, addend: 0x0, symName: __ZNSt3__19allocatorINS_12basic_stringIcNS_11char_traitsIcEENS0_IcEEEEEC2B8ue170006Ev, symObjAddr: 0x2A5B0, symBinAddr: 0x10002AEF0, symSize: 0x20 }
  - { offsetInCU: 0x9A5B0, offset: 0x9A5B0, size: 0x8, addend: 0x0, symName: __ZNSt3__116__non_trivial_ifILb1ENS_9allocatorINS_12basic_stringIcNS_11char_traitsIcEENS1_IcEEEEEEEC2B8ue170006Ev, symObjAddr: 0x2A5D0, symBinAddr: 0x10002AF10, symSize: 0x10 }
  - { offsetInCU: 0x9A5DA, offset: 0x9A5DA, size: 0x8, addend: 0x0, symName: __ZNSt3__16vectorINS_12basic_stringIcNS_11char_traitsIcEENS_9allocatorIcEEEENS4_IS6_EEE9__end_capB8ue170006Ev, symObjAddr: 0x2A5E0, symBinAddr: 0x10002AF20, symSize: 0x20 }
  - { offsetInCU: 0x9A600, offset: 0x9A600, size: 0x8, addend: 0x0, symName: __ZNSt3__16vectorINS_12basic_stringIcNS_11char_traitsIcEENS_9allocatorIcEEEENS4_IS6_EEE22__construct_one_at_endB8ue170006IJRKS6_EEEvDpOT_, symObjAddr: 0x2A600, symBinAddr: 0x10002AF40, symSize: 0x90 }
  - { offsetInCU: 0x9A650, offset: 0x9A650, size: 0x8, addend: 0x0, symName: __ZNSt3__16vectorINS_12basic_stringIcNS_11char_traitsIcEENS_9allocatorIcEEEENS4_IS6_EEE21__push_back_slow_pathIRKS6_EEvOT_, symObjAddr: 0x2A690, symBinAddr: 0x10002AFD0, symSize: 0xD0 }
  - { offsetInCU: 0x9A6B0, offset: 0x9A6B0, size: 0x8, addend: 0x0, symName: __ZNSt3__117__compressed_pairIPNS_12basic_stringIcNS_11char_traitsIcEENS_9allocatorIcEEEENS4_IS6_EEE5firstB8ue170006Ev, symObjAddr: 0x2A760, symBinAddr: 0x10002B0A0, symSize: 0x20 }
  - { offsetInCU: 0x9A6D6, offset: 0x9A6D6, size: 0x8, addend: 0x0, symName: __ZNSt3__122__compressed_pair_elemIPNS_12basic_stringIcNS_11char_traitsIcEENS_9allocatorIcEEEELi0ELb0EE5__getB8ue170006Ev, symObjAddr: 0x2A780, symBinAddr: 0x10002B0C0, symSize: 0x10 }
  - { offsetInCU: 0x9A715, offset: 0x9A715, size: 0x8, addend: 0x0, symName: __ZNSt3__16vectorINS_12basic_stringIcNS_11char_traitsIcEENS_9allocatorIcEEEENS4_IS6_EEE21_ConstructTransactionC1B8ue170006ERS8_m, symObjAddr: 0x2A790, symBinAddr: 0x10002B0D0, symSize: 0x30 }
  - { offsetInCU: 0x9A75D, offset: 0x9A75D, size: 0x8, addend: 0x0, symName: __ZNSt3__116allocator_traitsINS_9allocatorINS_12basic_stringIcNS_11char_traitsIcEENS1_IcEEEEEEE9constructB8ue170006IS6_JRKS6_EvvEEvRS7_PT_DpOT0_, symObjAddr: 0x2A7C0, symBinAddr: 0x10002B100, symSize: 0x30 }
  - { offsetInCU: 0x9A7B2, offset: 0x9A7B2, size: 0x8, addend: 0x0, symName: __ZNSt3__16vectorINS_12basic_stringIcNS_11char_traitsIcEENS_9allocatorIcEEEENS4_IS6_EEE7__allocB8ue170006Ev, symObjAddr: 0x2A7F0, symBinAddr: 0x10002B130, symSize: 0x20 }
  - { offsetInCU: 0x9A7D8, offset: 0x9A7D8, size: 0x8, addend: 0x0, symName: __ZNSt3__16vectorINS_12basic_stringIcNS_11char_traitsIcEENS_9allocatorIcEEEENS4_IS6_EEE21_ConstructTransactionD1B8ue170006Ev, symObjAddr: 0x2A820, symBinAddr: 0x10002B160, symSize: 0x20 }
  - { offsetInCU: 0x9A802, offset: 0x9A802, size: 0x8, addend: 0x0, symName: __ZNSt3__16vectorINS_12basic_stringIcNS_11char_traitsIcEENS_9allocatorIcEEEENS4_IS6_EEE21_ConstructTransactionC2B8ue170006ERS8_m, symObjAddr: 0x2A840, symBinAddr: 0x10002B180, symSize: 0x40 }
  - { offsetInCU: 0x9A84A, offset: 0x9A84A, size: 0x8, addend: 0x0, symName: __ZNSt3__117__compressed_pairIPNS_12basic_stringIcNS_11char_traitsIcEENS_9allocatorIcEEEENS4_IS6_EEE6secondB8ue170006Ev, symObjAddr: 0x2A8C0, symBinAddr: 0x10002B200, symSize: 0x20 }
  - { offsetInCU: 0x9A870, offset: 0x9A870, size: 0x8, addend: 0x0, symName: __ZNSt3__122__compressed_pair_elemINS_9allocatorINS_12basic_stringIcNS_11char_traitsIcEENS1_IcEEEEEELi1ELb1EE5__getB8ue170006Ev, symObjAddr: 0x2A8E0, symBinAddr: 0x10002B220, symSize: 0x10 }
  - { offsetInCU: 0x9A896, offset: 0x9A896, size: 0x8, addend: 0x0, symName: __ZNSt3__16vectorINS_12basic_stringIcNS_11char_traitsIcEENS_9allocatorIcEEEENS4_IS6_EEE21_ConstructTransactionD2B8ue170006Ev, symObjAddr: 0x2A8F0, symBinAddr: 0x10002B230, symSize: 0x20 }
  - { offsetInCU: 0x9A8C0, offset: 0x9A8C0, size: 0x8, addend: 0x0, symName: __ZNKSt3__16vectorINS_12basic_stringIcNS_11char_traitsIcEENS_9allocatorIcEEEENS4_IS6_EEE11__recommendB8ue170006Em, symObjAddr: 0x2A910, symBinAddr: 0x10002B250, symSize: 0xA0 }
  - { offsetInCU: 0x9A917, offset: 0x9A917, size: 0x8, addend: 0x0, symName: __ZNSt3__114__split_bufferINS_12basic_stringIcNS_11char_traitsIcEENS_9allocatorIcEEEERNS4_IS6_EEEC1EmmS8_, symObjAddr: 0x2A9B0, symBinAddr: 0x10002B2F0, symSize: 0x40 }
  - { offsetInCU: 0x9A96D, offset: 0x9A96D, size: 0x8, addend: 0x0, symName: __ZNSt3__114__split_bufferINS_12basic_stringIcNS_11char_traitsIcEENS_9allocatorIcEEEERNS4_IS6_EEED1Ev, symObjAddr: 0x2AB10, symBinAddr: 0x10002B450, symSize: 0x20 }
  - { offsetInCU: 0x9A999, offset: 0x9A999, size: 0x8, addend: 0x0, symName: __ZNKSt3__16vectorINS_12basic_stringIcNS_11char_traitsIcEENS_9allocatorIcEEEENS4_IS6_EEE8max_sizeEv, symObjAddr: 0x2AB30, symBinAddr: 0x10002B470, symSize: 0x60 }
  - { offsetInCU: 0x9A9C1, offset: 0x9A9C1, size: 0x8, addend: 0x0, symName: __ZNKSt3__16vectorINS_12basic_stringIcNS_11char_traitsIcEENS_9allocatorIcEEEENS4_IS6_EEE20__throw_length_errorB8ue170006Ev, symObjAddr: 0x2AB90, symBinAddr: 0x10002B4D0, symSize: 0x20 }
  - { offsetInCU: 0x9A9E7, offset: 0x9A9E7, size: 0x8, addend: 0x0, symName: __ZNKSt3__16vectorINS_12basic_stringIcNS_11char_traitsIcEENS_9allocatorIcEEEENS4_IS6_EEE8capacityB8ue170006Ev, symObjAddr: 0x2ABB0, symBinAddr: 0x10002B4F0, symSize: 0x40 }
  - { offsetInCU: 0x9AA17, offset: 0x9AA17, size: 0x8, addend: 0x0, symName: __ZNSt3__116allocator_traitsINS_9allocatorINS_12basic_stringIcNS_11char_traitsIcEENS1_IcEEEEEEE8max_sizeB8ue170006IS7_vvEEmRKS7_, symObjAddr: 0x2ABF0, symBinAddr: 0x10002B530, symSize: 0x30 }
  - { offsetInCU: 0x9AA43, offset: 0x9AA43, size: 0x8, addend: 0x0, symName: __ZNKSt3__16vectorINS_12basic_stringIcNS_11char_traitsIcEENS_9allocatorIcEEEENS4_IS6_EEE7__allocB8ue170006Ev, symObjAddr: 0x2AC20, symBinAddr: 0x10002B560, symSize: 0x20 }
  - { offsetInCU: 0x9AA69, offset: 0x9AA69, size: 0x8, addend: 0x0, symName: __ZNKSt3__117__compressed_pairIPNS_12basic_stringIcNS_11char_traitsIcEENS_9allocatorIcEEEENS4_IS6_EEE6secondB8ue170006Ev, symObjAddr: 0x2AC40, symBinAddr: 0x10002B580, symSize: 0x20 }
  - { offsetInCU: 0x9AA8F, offset: 0x9AA8F, size: 0x8, addend: 0x0, symName: __ZNKSt3__122__compressed_pair_elemINS_9allocatorINS_12basic_stringIcNS_11char_traitsIcEENS1_IcEEEEEELi1ELb1EE5__getB8ue170006Ev, symObjAddr: 0x2AC60, symBinAddr: 0x10002B5A0, symSize: 0x10 }
  - { offsetInCU: 0x9AAB5, offset: 0x9AAB5, size: 0x8, addend: 0x0, symName: __ZNKSt3__16vectorINS_12basic_stringIcNS_11char_traitsIcEENS_9allocatorIcEEEENS4_IS6_EEE9__end_capB8ue170006Ev, symObjAddr: 0x2AC70, symBinAddr: 0x10002B5B0, symSize: 0x20 }
  - { offsetInCU: 0x9AADB, offset: 0x9AADB, size: 0x8, addend: 0x0, symName: __ZNKSt3__117__compressed_pairIPNS_12basic_stringIcNS_11char_traitsIcEENS_9allocatorIcEEEENS4_IS6_EEE5firstB8ue170006Ev, symObjAddr: 0x2AC90, symBinAddr: 0x10002B5D0, symSize: 0x20 }
  - { offsetInCU: 0x9AB01, offset: 0x9AB01, size: 0x8, addend: 0x0, symName: __ZNKSt3__122__compressed_pair_elemIPNS_12basic_stringIcNS_11char_traitsIcEENS_9allocatorIcEEEELi0ELb0EE5__getB8ue170006Ev, symObjAddr: 0x2ACB0, symBinAddr: 0x10002B5F0, symSize: 0x10 }
  - { offsetInCU: 0x9AB27, offset: 0x9AB27, size: 0x8, addend: 0x0, symName: __ZNSt3__114__split_bufferINS_12basic_stringIcNS_11char_traitsIcEENS_9allocatorIcEEEERNS4_IS6_EEEC2EmmS8_, symObjAddr: 0x2ACC0, symBinAddr: 0x10002B600, symSize: 0xC0 }
  - { offsetInCU: 0x9AB9C, offset: 0x9AB9C, size: 0x8, addend: 0x0, symName: __ZNSt3__117__compressed_pairIPNS_12basic_stringIcNS_11char_traitsIcEENS_9allocatorIcEEEERNS4_IS6_EEEC1B8ue170006IDnS9_EEOT_OT0_, symObjAddr: 0x2AD80, symBinAddr: 0x10002B6C0, symSize: 0x30 }
  - { offsetInCU: 0x9ABF4, offset: 0x9ABF4, size: 0x8, addend: 0x0, symName: __ZNSt3__114__split_bufferINS_12basic_stringIcNS_11char_traitsIcEENS_9allocatorIcEEEERNS4_IS6_EEE7__allocB8ue170006Ev, symObjAddr: 0x2ADF0, symBinAddr: 0x10002B730, symSize: 0x20 }
  - { offsetInCU: 0x9AC1A, offset: 0x9AC1A, size: 0x8, addend: 0x0, symName: __ZNSt3__114__split_bufferINS_12basic_stringIcNS_11char_traitsIcEENS_9allocatorIcEEEERNS4_IS6_EEE9__end_capB8ue170006Ev, symObjAddr: 0x2AE10, symBinAddr: 0x10002B750, symSize: 0x20 }
  - { offsetInCU: 0x9AC40, offset: 0x9AC40, size: 0x8, addend: 0x0, symName: __ZNSt3__117__compressed_pairIPNS_12basic_stringIcNS_11char_traitsIcEENS_9allocatorIcEEEERNS4_IS6_EEEC2B8ue170006IDnS9_EEOT_OT0_, symObjAddr: 0x2AE30, symBinAddr: 0x10002B770, symSize: 0x40 }
  - { offsetInCU: 0x9AC98, offset: 0x9AC98, size: 0x8, addend: 0x0, symName: __ZNSt3__122__compressed_pair_elemIRNS_9allocatorINS_12basic_stringIcNS_11char_traitsIcEENS1_IcEEEEEELi1ELb0EEC2B8ue170006IS8_vEEOT_, symObjAddr: 0x2AE70, symBinAddr: 0x10002B7B0, symSize: 0x20 }
  - { offsetInCU: 0x9ACDA, offset: 0x9ACDA, size: 0x8, addend: 0x0, symName: __ZNSt3__19allocatorINS_12basic_stringIcNS_11char_traitsIcEENS0_IcEEEEE8allocateB8ue170006Em, symObjAddr: 0x2AE90, symBinAddr: 0x10002B7D0, symSize: 0x50 }
  - { offsetInCU: 0x9AD0E, offset: 0x9AD0E, size: 0x8, addend: 0x0, symName: __ZNSt3__117__compressed_pairIPNS_12basic_stringIcNS_11char_traitsIcEENS_9allocatorIcEEEERNS4_IS6_EEE6secondB8ue170006Ev, symObjAddr: 0x2AEE0, symBinAddr: 0x10002B820, symSize: 0x20 }
  - { offsetInCU: 0x9AD34, offset: 0x9AD34, size: 0x8, addend: 0x0, symName: __ZNSt3__122__compressed_pair_elemIRNS_9allocatorINS_12basic_stringIcNS_11char_traitsIcEENS1_IcEEEEEELi1ELb0EE5__getB8ue170006Ev, symObjAddr: 0x2AF00, symBinAddr: 0x10002B840, symSize: 0x20 }
  - { offsetInCU: 0x9AD5A, offset: 0x9AD5A, size: 0x8, addend: 0x0, symName: __ZNSt3__117__compressed_pairIPNS_12basic_stringIcNS_11char_traitsIcEENS_9allocatorIcEEEERNS4_IS6_EEE5firstB8ue170006Ev, symObjAddr: 0x2AF20, symBinAddr: 0x10002B860, symSize: 0x20 }
  - { offsetInCU: 0x9AD80, offset: 0x9AD80, size: 0x8, addend: 0x0, symName: __ZNKSt3__16vectorINS_12basic_stringIcNS_11char_traitsIcEENS_9allocatorIcEEEENS4_IS6_EEE17__annotate_deleteB8ue170006Ev, symObjAddr: 0x2AF40, symBinAddr: 0x10002B880, symSize: 0xB0 }
  - { offsetInCU: 0x9ADA6, offset: 0x9ADA6, size: 0x8, addend: 0x0, symName: __ZNSt3__116reverse_iteratorIPNS_12basic_stringIcNS_11char_traitsIcEENS_9allocatorIcEEEEEC1B8ue170006ES7_, symObjAddr: 0x2B170, symBinAddr: 0x10002BAB0, symSize: 0x30 }
  - { offsetInCU: 0x9ADDE, offset: 0x9ADDE, size: 0x8, addend: 0x0, symName: __ZNKSt3__116reverse_iteratorIPNS_12basic_stringIcNS_11char_traitsIcEENS_9allocatorIcEEEEE4baseB8ue170006Ev, symObjAddr: 0x2B1A0, symBinAddr: 0x10002BAE0, symSize: 0x20 }
  - { offsetInCU: 0x9AE04, offset: 0x9AE04, size: 0x8, addend: 0x0, symName: __ZNKSt3__16vectorINS_12basic_stringIcNS_11char_traitsIcEENS_9allocatorIcEEEENS4_IS6_EEE14__annotate_newB8ue170006Em, symObjAddr: 0x2B200, symBinAddr: 0x10002BB40, symSize: 0xA0 }
  - { offsetInCU: 0x9AE39, offset: 0x9AE39, size: 0x8, addend: 0x0, symName: __ZNKSt3__16vectorINS_12basic_stringIcNS_11char_traitsIcEENS_9allocatorIcEEEENS4_IS6_EEE31__annotate_contiguous_containerB8ue170006EPKvSA_SA_SA_, symObjAddr: 0x2B2A0, symBinAddr: 0x10002BBE0, symSize: 0x20 }
  - { offsetInCU: 0x9AE8F, offset: 0x9AE8F, size: 0x8, addend: 0x0, symName: __ZNKSt3__16vectorINS_12basic_stringIcNS_11char_traitsIcEENS_9allocatorIcEEEENS4_IS6_EEE4dataB8ue170006Ev, symObjAddr: 0x2B2C0, symBinAddr: 0x10002BC00, symSize: 0x20 }
  - { offsetInCU: 0x9AEB5, offset: 0x9AEB5, size: 0x8, addend: 0x0, symName: __ZNSt3__129_AllocatorDestroyRangeReverseINS_9allocatorINS_12basic_stringIcNS_11char_traitsIcEENS1_IcEEEEEENS_16reverse_iteratorIPS6_EEEC1B8ue170006ERS7_RSA_SD_, symObjAddr: 0x2B340, symBinAddr: 0x10002BC80, symSize: 0x40 }
  - { offsetInCU: 0x9AF12, offset: 0x9AF12, size: 0x8, addend: 0x0, symName: __ZNSt3__116allocator_traitsINS_9allocatorINS_12basic_stringIcNS_11char_traitsIcEENS1_IcEEEEEEE9constructB8ue170006IS6_JS6_EvvEEvRS7_PT_DpOT0_, symObjAddr: 0x2B3C0, symBinAddr: 0x10002BD00, symSize: 0x30 }
  - { offsetInCU: 0x9AF67, offset: 0x9AF67, size: 0x8, addend: 0x0, symName: __ZNKSt3__116reverse_iteratorIPNS_12basic_stringIcNS_11char_traitsIcEENS_9allocatorIcEEEEEdeB8ue170006Ev, symObjAddr: 0x2B410, symBinAddr: 0x10002BD50, symSize: 0x30 }
  - { offsetInCU: 0x9AF9B, offset: 0x9AF9B, size: 0x8, addend: 0x0, symName: __ZNSt3__116reverse_iteratorIPNS_12basic_stringIcNS_11char_traitsIcEENS_9allocatorIcEEEEEppB8ue170006Ev, symObjAddr: 0x2B440, symBinAddr: 0x10002BD80, symSize: 0x20 }
  - { offsetInCU: 0x9AFC1, offset: 0x9AFC1, size: 0x8, addend: 0x0, symName: __ZNSt3__128__exception_guard_exceptionsINS_29_AllocatorDestroyRangeReverseINS_9allocatorINS_12basic_stringIcNS_11char_traitsIcEENS2_IcEEEEEENS_16reverse_iteratorIPS7_EEEEE10__completeB8ue170006Ev, symObjAddr: 0x2B460, symBinAddr: 0x10002BDA0, symSize: 0x20 }
  - { offsetInCU: 0x9AFE7, offset: 0x9AFE7, size: 0x8, addend: 0x0, symName: __ZNSt3__128__exception_guard_exceptionsINS_29_AllocatorDestroyRangeReverseINS_9allocatorINS_12basic_stringIcNS_11char_traitsIcEENS2_IcEEEEEENS_16reverse_iteratorIPS7_EEEEED1B8ue170006Ev, symObjAddr: 0x2B480, symBinAddr: 0x10002BDC0, symSize: 0x20 }
  - { offsetInCU: 0x9B011, offset: 0x9B011, size: 0x8, addend: 0x0, symName: __ZNSt3__128__exception_guard_exceptionsINS_29_AllocatorDestroyRangeReverseINS_9allocatorINS_12basic_stringIcNS_11char_traitsIcEENS2_IcEEEEEENS_16reverse_iteratorIPS7_EEEEEC1B8ue170006ESC_, symObjAddr: 0x2B4A0, symBinAddr: 0x10002BDE0, symSize: 0x40 }
  - { offsetInCU: 0x9B049, offset: 0x9B049, size: 0x8, addend: 0x0, symName: __ZNSt3__128__exception_guard_exceptionsINS_29_AllocatorDestroyRangeReverseINS_9allocatorINS_12basic_stringIcNS_11char_traitsIcEENS2_IcEEEEEENS_16reverse_iteratorIPS7_EEEEEC2B8ue170006ESC_, symObjAddr: 0x2B4E0, symBinAddr: 0x10002BE20, symSize: 0x30 }
  - { offsetInCU: 0x9B081, offset: 0x9B081, size: 0x8, addend: 0x0, symName: __ZNSt3__129_AllocatorDestroyRangeReverseINS_9allocatorINS_12basic_stringIcNS_11char_traitsIcEENS1_IcEEEEEENS_16reverse_iteratorIPS6_EEEC2B8ue170006ERS7_RSA_SD_, symObjAddr: 0x2B510, symBinAddr: 0x10002BE50, symSize: 0x40 }
  - { offsetInCU: 0x9B0DD, offset: 0x9B0DD, size: 0x8, addend: 0x0, symName: __ZNSt3__119__to_address_helperINS_16reverse_iteratorIPNS_12basic_stringIcNS_11char_traitsIcEENS_9allocatorIcEEEEEEvE6__callB8ue170006ERKS9_, symObjAddr: 0x2B590, symBinAddr: 0x10002BED0, symSize: 0x40 }
  - { offsetInCU: 0x9B100, offset: 0x9B100, size: 0x8, addend: 0x0, symName: __ZNKSt3__116reverse_iteratorIPNS_12basic_stringIcNS_11char_traitsIcEENS_9allocatorIcEEEEEptB8ue170006Ev, symObjAddr: 0x2B5D0, symBinAddr: 0x10002BF10, symSize: 0x30 }
  - { offsetInCU: 0x9B126, offset: 0x9B126, size: 0x8, addend: 0x0, symName: __ZNSt3__128__exception_guard_exceptionsINS_29_AllocatorDestroyRangeReverseINS_9allocatorINS_12basic_stringIcNS_11char_traitsIcEENS2_IcEEEEEENS_16reverse_iteratorIPS7_EEEEED2B8ue170006Ev, symObjAddr: 0x2B680, symBinAddr: 0x10002BFC0, symSize: 0x40 }
  - { offsetInCU: 0x9B150, offset: 0x9B150, size: 0x8, addend: 0x0, symName: __ZNKSt3__129_AllocatorDestroyRangeReverseINS_9allocatorINS_12basic_stringIcNS_11char_traitsIcEENS1_IcEEEEEENS_16reverse_iteratorIPS6_EEEclB8ue170006Ev, symObjAddr: 0x2B6C0, symBinAddr: 0x10002C000, symSize: 0xF0 }
  - { offsetInCU: 0x9B177, offset: 0x9B177, size: 0x8, addend: 0x0, symName: __ZNSt3__116reverse_iteratorINS0_IPNS_12basic_stringIcNS_11char_traitsIcEENS_9allocatorIcEEEEEEEC1B8ue170006ES8_, symObjAddr: 0x2B820, symBinAddr: 0x10002C160, symSize: 0x30 }
  - { offsetInCU: 0x9B1AF, offset: 0x9B1AF, size: 0x8, addend: 0x0, symName: __ZNSt3__116allocator_traitsINS_9allocatorINS_12basic_stringIcNS_11char_traitsIcEENS1_IcEEEEEEE7destroyB8ue170006IS6_vvEEvRS7_PT_, symObjAddr: 0x2B8A0, symBinAddr: 0x10002C1E0, symSize: 0x20 }
  - { offsetInCU: 0x9B1EA, offset: 0x9B1EA, size: 0x8, addend: 0x0, symName: __ZNSt3__116reverse_iteratorINS0_IPNS_12basic_stringIcNS_11char_traitsIcEENS_9allocatorIcEEEEEEEppB8ue170006Ev, symObjAddr: 0x2B8E0, symBinAddr: 0x10002C220, symSize: 0x30 }
  - { offsetInCU: 0x9B210, offset: 0x9B210, size: 0x8, addend: 0x0, symName: __ZNKSt3__116reverse_iteratorINS0_IPNS_12basic_stringIcNS_11char_traitsIcEENS_9allocatorIcEEEEEEE4baseB8ue170006Ev, symObjAddr: 0x2B910, symBinAddr: 0x10002C250, symSize: 0x20 }
  - { offsetInCU: 0x9B23B, offset: 0x9B23B, size: 0x8, addend: 0x0, symName: __ZNSt3__119__to_address_helperINS_16reverse_iteratorINS1_IPNS_12basic_stringIcNS_11char_traitsIcEENS_9allocatorIcEEEEEEEEvE6__callB8ue170006ERKSA_, symObjAddr: 0x2B970, symBinAddr: 0x10002C2B0, symSize: 0x40 }
  - { offsetInCU: 0x9B25E, offset: 0x9B25E, size: 0x8, addend: 0x0, symName: __ZNKSt3__116reverse_iteratorINS0_IPNS_12basic_stringIcNS_11char_traitsIcEENS_9allocatorIcEEEEEEEptB8ue170006Ev, symObjAddr: 0x2B9B0, symBinAddr: 0x10002C2F0, symSize: 0x50 }
  - { offsetInCU: 0x9B284, offset: 0x9B284, size: 0x8, addend: 0x0, symName: __ZNSt3__116reverse_iteratorIPNS_12basic_stringIcNS_11char_traitsIcEENS_9allocatorIcEEEEEpLB8ue170006El, symObjAddr: 0x2BAA0, symBinAddr: 0x10002C3E0, symSize: 0x30 }
  - { offsetInCU: 0x9B2B8, offset: 0x9B2B8, size: 0x8, addend: 0x0, symName: __ZNSt3__116reverse_iteratorIPNS_12basic_stringIcNS_11char_traitsIcEENS_9allocatorIcEEEEEmmB8ue170006Ev, symObjAddr: 0x2BAD0, symBinAddr: 0x10002C410, symSize: 0x20 }
  - { offsetInCU: 0x9B2DE, offset: 0x9B2DE, size: 0x8, addend: 0x0, symName: __ZNSt3__116reverse_iteratorINS0_IPNS_12basic_stringIcNS_11char_traitsIcEENS_9allocatorIcEEEEEEEC2B8ue170006ES8_, symObjAddr: 0x2BAF0, symBinAddr: 0x10002C430, symSize: 0x40 }
  - { offsetInCU: 0x9B316, offset: 0x9B316, size: 0x8, addend: 0x0, symName: __ZNSt3__116reverse_iteratorIPNS_12basic_stringIcNS_11char_traitsIcEENS_9allocatorIcEEEEEC2B8ue170006ES7_, symObjAddr: 0x2BB30, symBinAddr: 0x10002C470, symSize: 0x30 }
  - { offsetInCU: 0x9B34E, offset: 0x9B34E, size: 0x8, addend: 0x0, symName: __ZNSt3__114__split_bufferINS_12basic_stringIcNS_11char_traitsIcEENS_9allocatorIcEEEERNS4_IS6_EEED2Ev, symObjAddr: 0x2BB60, symBinAddr: 0x10002C4A0, symSize: 0x70 }
  - { offsetInCU: 0x9B37A, offset: 0x9B37A, size: 0x8, addend: 0x0, symName: __ZNSt3__114__split_bufferINS_12basic_stringIcNS_11char_traitsIcEENS_9allocatorIcEEEERNS4_IS6_EEE5clearB8ue170006Ev, symObjAddr: 0x2BBD0, symBinAddr: 0x10002C510, symSize: 0x20 }
  - { offsetInCU: 0x9B3A0, offset: 0x9B3A0, size: 0x8, addend: 0x0, symName: __ZNSt3__116allocator_traitsINS_9allocatorINS_12basic_stringIcNS_11char_traitsIcEENS1_IcEEEEEEE10deallocateB8ue170006ERS7_PS6_m, symObjAddr: 0x2BBF0, symBinAddr: 0x10002C530, symSize: 0x30 }
  - { offsetInCU: 0x9B3E2, offset: 0x9B3E2, size: 0x8, addend: 0x0, symName: __ZNKSt3__114__split_bufferINS_12basic_stringIcNS_11char_traitsIcEENS_9allocatorIcEEEERNS4_IS6_EEE8capacityB8ue170006Ev, symObjAddr: 0x2BC20, symBinAddr: 0x10002C560, symSize: 0x40 }
  - { offsetInCU: 0x9B408, offset: 0x9B408, size: 0x8, addend: 0x0, symName: __ZNSt3__114__split_bufferINS_12basic_stringIcNS_11char_traitsIcEENS_9allocatorIcEEEERNS4_IS6_EEE17__destruct_at_endB8ue170006EPS6_, symObjAddr: 0x2BC60, symBinAddr: 0x10002C5A0, symSize: 0x30 }
  - { offsetInCU: 0x9B43C, offset: 0x9B43C, size: 0x8, addend: 0x0, symName: __ZNSt3__114__split_bufferINS_12basic_stringIcNS_11char_traitsIcEENS_9allocatorIcEEEERNS4_IS6_EEE17__destruct_at_endB8ue170006EPS6_NS_17integral_constantIbLb0EEE, symObjAddr: 0x2BC90, symBinAddr: 0x10002C5D0, symSize: 0x80 }
  - { offsetInCU: 0x9B47D, offset: 0x9B47D, size: 0x8, addend: 0x0, symName: __ZNSt3__19allocatorINS_12basic_stringIcNS_11char_traitsIcEENS0_IcEEEEE10deallocateB8ue170006EPS5_m, symObjAddr: 0x2BD10, symBinAddr: 0x10002C650, symSize: 0x50 }
  - { offsetInCU: 0x9B4BF, offset: 0x9B4BF, size: 0x8, addend: 0x0, symName: __ZNKSt3__114__split_bufferINS_12basic_stringIcNS_11char_traitsIcEENS_9allocatorIcEEEERNS4_IS6_EEE9__end_capB8ue170006Ev, symObjAddr: 0x2BD60, symBinAddr: 0x10002C6A0, symSize: 0x20 }
  - { offsetInCU: 0x9B4E5, offset: 0x9B4E5, size: 0x8, addend: 0x0, symName: __ZNKSt3__117__compressed_pairIPNS_12basic_stringIcNS_11char_traitsIcEENS_9allocatorIcEEEERNS4_IS6_EEE5firstB8ue170006Ev, symObjAddr: 0x2BD80, symBinAddr: 0x10002C6C0, symSize: 0x20 }
  - { offsetInCU: 0x9B50B, offset: 0x9B50B, size: 0x8, addend: 0x0, symName: __ZNKSt3__112basic_stringIcNS_11char_traitsIcEENS_9allocatorIcEEE6rbeginB8ue170006Ev, symObjAddr: 0x2BDA0, symBinAddr: 0x10002C6E0, symSize: 0x50 }
  - { offsetInCU: 0x9B531, offset: 0x9B531, size: 0x8, addend: 0x0, symName: __ZNKSt3__116reverse_iteratorINS_11__wrap_iterIPKcEEEdeB8ue170006Ev, symObjAddr: 0x2BDF0, symBinAddr: 0x10002C730, symSize: 0x30 }
  - { offsetInCU: 0x9B565, offset: 0x9B565, size: 0x8, addend: 0x0, symName: __ZNKSt3__112basic_stringIcNS_11char_traitsIcEENS_9allocatorIcEEE3endB8ue170006Ev, symObjAddr: 0x2BEC0, symBinAddr: 0x10002C800, symSize: 0x60 }
  - { offsetInCU: 0x9B58B, offset: 0x9B58B, size: 0x8, addend: 0x0, symName: __ZNSt3__116reverse_iteratorINS_11__wrap_iterIPKcEEEC1B8ue170006ES4_, symObjAddr: 0x2BF20, symBinAddr: 0x10002C860, symSize: 0x30 }
  - { offsetInCU: 0x9B5C3, offset: 0x9B5C3, size: 0x8, addend: 0x0, symName: __ZNKSt3__112basic_stringIcNS_11char_traitsIcEENS_9allocatorIcEEE21__make_const_iteratorB8ue170006EPKc, symObjAddr: 0x2BF50, symBinAddr: 0x10002C890, symSize: 0x30 }
  - { offsetInCU: 0x9B5F8, offset: 0x9B5F8, size: 0x8, addend: 0x0, symName: __ZNSt3__111__wrap_iterIPKcEC1B8ue170006ES2_, symObjAddr: 0x2BF80, symBinAddr: 0x10002C8C0, symSize: 0x30 }
  - { offsetInCU: 0x9B630, offset: 0x9B630, size: 0x8, addend: 0x0, symName: __ZNSt3__111__wrap_iterIPKcEC2B8ue170006ES2_, symObjAddr: 0x2BFB0, symBinAddr: 0x10002C8F0, symSize: 0x20 }
  - { offsetInCU: 0x9B668, offset: 0x9B668, size: 0x8, addend: 0x0, symName: __ZNSt3__116reverse_iteratorINS_11__wrap_iterIPKcEEEC2B8ue170006ES4_, symObjAddr: 0x2BFD0, symBinAddr: 0x10002C910, symSize: 0x30 }
  - { offsetInCU: 0x9B6A0, offset: 0x9B6A0, size: 0x8, addend: 0x0, symName: __ZNSt3__111__wrap_iterIPKcEmmB8ue170006Ev, symObjAddr: 0x2C000, symBinAddr: 0x10002C940, symSize: 0x20 }
  - { offsetInCU: 0x9B6C6, offset: 0x9B6C6, size: 0x8, addend: 0x0, symName: __ZNKSt3__111__wrap_iterIPKcEdeB8ue170006Ev, symObjAddr: 0x2C020, symBinAddr: 0x10002C960, symSize: 0x20 }
  - { offsetInCU: 0x9B6EC, offset: 0x9B6EC, size: 0x8, addend: 0x0, symName: __ZNSt3__112basic_stringIcNS_11char_traitsIcEENS_9allocatorIcEEE6appendB8ue170006ERKS5_, symObjAddr: 0x2C040, symBinAddr: 0x10002C980, symSize: 0x50 }
